(lp0
(I0
I187
S'270'
p1
F0.9556222391444518
tp2
a(I86
I0
S'0'
p3
F1.2575170603288208
tp4
a(I183
I6
S'180'
p5
F0.8004107181817858
tp6
a(I96
I147
S'90'
p7
F1.37583487680085
tp8
a(I0
I188
g1
F0.6381008500731065
tp9
a(I65
I0
g3
F1.346495216833572
tp10
a(I180
I3
g5
F1.0966411837366539
tp11
a(I120
I171
g7
F1.1984201103458996
tp12
a(I0
I189
g1
F0.3683767665812161
tp13
a(I110
I0
g3
F1.1550673987511146
tp14
a(I180
I24
g5
F0.7981153398942211
tp15
a(I120
I3
g7
F1.2526533326490852
tp16
a(I0
I190
g1
F0.013492732595360109
tp17
a(I83
I0
g3
F1.292800453071796
tp18
a(I183
I24
g5
F0.6488287326170694
tp19
a(I96
I3
g7
F1.2295233534837946
tp20
a(I0
I191
g1
F0.03952267180311545
tp21
a(I59
I0
g3
F1.2520105798832741
tp22
a(I183
I3
g5
F1.4747854549079185
tp23
a(I96
I171
g7
F0.9271073480992601
tp24
a.