(lp0
(I0
I188
S'270'
p1
F1.0962132471338475
tp2
a(I65
I0
S'0'
p3
F1.181566928237357
tp4
a(I180
I3
S'180'
p5
F0.8444099703025697
tp6
a(I120
I171
S'90'
p7
F1.3057622543288292
tp8
a(I0
I189
g1
F0.7753125867721228
tp9
a(I110
I0
g3
F1.1838870236422765
tp10
a(I180
I24
g5
F1.2054442122598614
tp11
a(I120
I3
g7
F1.271017000588106
tp12
a(I0
I190
g1
F0.1904555812917024
tp13
a(I83
I0
g3
F1.2603564715372213
tp14
a(I183
I24
g5
F0.8653486771356582
tp15
a(I96
I3
g7
F1.2167503691775376
tp16
a(I0
I191
g1
F0.04839336835324531
tp17
a(I59
I0
g3
F1.1748721964417659
tp18
a(I183
I3
g5
F1.4247967566926427
tp19
a(I96
I171
g7
F0.9758299683052811
tp20
a.