(lp0
(I0
I1
S'270'
p1
F0.5236463121950509
tp2
a(I4
I0
S'0'
p3
F1.758496652878199
tp4
a(I158
I24
S'180'
p5
F0.8953543252571113
tp6
a(I92
I3
S'90'
p7
F1.131306667212867
tp8
a(I0
I2
g1
F0.40412225259584394
tp9
a(I6
I0
g3
F1.694943545498631
tp10
a(I180
I21
g5
F0.8715710355114724
tp11
a(I120
I27
g7
F1.278904269486908
tp12
a(I0
I3
g1
F0.5730886251989808
tp13
a(I28
I0
g3
F1.1916206994387692
tp14
a(I180
I27
g5
F1.3475489497041397
tp15
a(I120
I174
g7
F1.1869341937490971
tp16
a(I0
I4
g1
F0.9387825601428146
tp17
a(I29
I0
g3
F0.8427201884646506
tp18
a(I155
I51
g5
F1.1854442968418253
tp19
a(I44
I3
g7
F1.205420411786901
tp20
a(I0
I5
g1
F0.6955440244126323
tp21
a(I30
I0
g3
F0.4793220965265246
tp22
a(I164
I24
g5
F0.8963918158171679
tp23
a(I116
I177
g7
F0.6672607541436542
tp24
a(I0
I6
g1
F0.6280495465196531
tp25
a(I37
I0
g3
F0.6275845047043153
tp26
a(I179
I21
g5
F0.8552945673143225
tp27
a(I119
I27
g7
F1.5045264655979065
tp28
a(I0
I7
g1
F0.46785461620008467
tp29
a(I39
I0
g3
F0.7772746979889161
tp30
a(I152
I24
g5
F0.5251570462799863
tp31
a(I140
I3
g7
F2.3605057917462084
tp32
a(I0
I8
g1
F0.3540076367203996
tp33
a(I52
I0
g3
F-0.19673964832867594
tp34
a(I130
I24
g5
F0.5185774004962768
tp35
a(I48
I177
g7
F0.2799285576385814
tp36
a(I0
I9
g1
F0.42889642047518706
tp37
a(I53
I0
g3
F-0.1957980463790773
tp38
a(I155
I24
g5
F0.7240236026639822
tp39
a(I71
I177
g7
F0.47851462242555215
tp40
a(I0
I10
g1
F0.08283390345331972
tp41
a(I54
I0
g3
F-0.18437662869444085
tp42
a(I158
I51
g5
F2.1781552723686244
tp43
a(I92
I177
g7
F0.4408270412344159
tp44
a(I0
I11
g1
F-0.07384041656627573
tp45
a(I55
I0
g3
F-0.0474341700321114
tp46
a(I176
I51
g5
F0.983010781786312
tp47
a(I96
I174
g7
F0.5397180009773327
tp48
a(I0
I12
g1
F-0.1866990134947748
tp49
a(I56
I0
g3
F0.05196903217880436
tp50
a(I177
I3
g5
F1.8285371609464587
tp51
a(I112
I3
g7
F2.0558076891114956
tp52
a(I0
I13
g1
F-0.3599447582459485
tp53
a(I58
I0
g3
F0.046726850458910625
tp54
a(I177
I51
g5
F1.0686570629574441
tp55
a(I116
I3
g7
F2.1201804960566153
tp56
a(I0
I14
g1
F-0.45224896887531224
tp57
a(I59
I0
g3
F0.6826557052370889
tp58
a(I177
I54
g5
F0.9093474068712084
tp59
a(I119
I171
g7
F0.6908570684431987
tp60
a(I0
I15
g1
F-0.2579931975988131
tp61
a(I60
I0
g3
F0.6490165466974367
tp62
a(I177
I78
g5
F0.6615733731407512
tp63
a(I119
I174
g7
F0.7673176031638878
tp64
a(I0
I16
g1
F-0.021812641651492902
tp65
a(I61
I0
g3
F0.519306547402022
tp66
a(I179
I3
g5
F2.236707089906967
tp67
a(I120
I153
g7
F0.8798869179674832
tp68
a(I0
I17
g1
F-0.19332896345776854
tp69
a(I62
I0
g3
F1.03285796634909
tp70
a(I179
I27
g5
F1.5291141445740748
tp71
a(I120
I177
g7
F0.6745158022390502
tp72
a(I0
I18
g1
F-0.1259671419302484
tp73
a(I63
I0
g3
F0.9491006890801189
tp74
a(I180
I51
g5
F1.5474661268866567
tp75
a(I143
I177
g7
F0.6538985076501955
tp76
a(I0
I19
g1
F0.07598790713671667
tp77
a(I64
I0
g3
F1.3611267645022629
tp78
a(I180
I54
g5
F1.6176567891979508
tp79
a(I144
I153
g7
F0.7923281868511647
tp80
a(I0
I20
g1
F0.011220658059105588
tp81
a(I65
I0
g3
F1.7802084725955396
tp82
a(I183
I27
g5
F1.9085577398718692
tp83
a(I144
I156
g7
F0.3611201378289281
tp84
a(I0
I21
g1
F-0.027802914510004335
tp85
a(I67
I0
g3
F1.625110291669833
tp86
a(I185
I51
g5
F1.6604492152490298
tp87
a(I144
I171
g7
F0.7274061918659782
tp88
a(I0
I22
g1
F0.021869893296518443
tp89
a(I68
I0
g3
F2.231395174831164
tp90
a(I189
I51
g5
F1.651938038620231
tp91
a(I144
I177
g7
F0.6252870635823157
tp92
a(I0
I23
g1
F-0.05686958283814111
tp93
a(I76
I0
g3
F1.1998047399552005
tp94
a(I152
I54
g5
F0.5948538697162782
tp95
a(I92
I27
g7
F1.0440940298870458
tp96
a(I0
I24
g1
F-0.03736567244744294
tp97
a(I77
I0
g3
F1.4815984939031699
tp98
a(I158
I21
g5
F0.32208098401429114
tp99
a(I95
I177
g7
F0.31208207437085167
tp100
a(I0
I25
g1
F1.179713748305548
tp101
a(I79
I0
g3
F0.38067775211555294
tp102
a(I177
I18
g5
F0.6358954769663033
tp103
a(I119
I177
g7
F0.30748186021205864
tp104
a(I0
I26
g1
F0.7728540782678824
tp105
a(I80
I0
g3
F0.7169146590810616
tp106
a(I177
I24
g5
F0.13696308784660702
tp107
a(I120
I171
g7
F0.3134996353389023
tp108
a(I0
I27
g1
F0.5844195463779276
tp109
a(I82
I0
g3
F0.47498677445281123
tp110
a(I177
I27
g5
F0.7128083322558805
tp111
a(I140
I153
g7
F0.7344768522809287
tp112
a(I0
I28
g1
F0.4963543313992697
tp113
a(I83
I0
g3
F0.8375713162082894
tp114
a(I179
I51
g5
F1.546141332244384
tp115
a(I144
I3
g7
F1.7239076899257972
tp116
a(I0
I29
g1
F0.41736268126794107
tp117
a(I85
I0
g3
F0.7862206176259451
tp118
a(I180
I3
g5
F3.4481293712786325
tp119
a(I144
I51
g7
F1.7376081568470714
tp120
a(I0
I30
g1
F0.30186183085808604
tp121
a(I86
I0
g3
F1.066874370280969
tp122
a(I182
I51
g5
F2.295676549530407
tp123
a(I144
I174
g7
F0.3168464794105123
tp124
a(I0
I31
g1
F0.11352236270352431
tp125
a(I87
I0
g3
F1.0617072515226478
tp126
a(I152
I27
g5
F0.940940900922294
tp127
a(I68
I3
g7
F0.6664078155728143
tp128
a(I0
I32
g1
F0.0594248167924478
tp129
a(I91
I0
g3
F2.2370053819196736
tp130
a(I156
I27
g5
F1.991111763435575
tp131
a(I92
I147
g7
F0.09397770210196785
tp132
a(I0
I33
g1
F0.04826518279764989
tp133
a(I92
I0
g3
F2.541171018493008
tp134
a(I158
I3
g5
F4.3778094185048655
tp135
a(I92
I171
g7
F0.07993455652924494
tp136
a(I0
I34
g1
F-0.5388954625626965
tp137
a(I93
I0
g3
F2.543769726778094
tp138
a(I158
I6
g5
F4.1699242901868505
tp139
a(I92
I174
g7
F0.07879649123972102
tp140
a(I0
I35
g1
F-0.4086344822583521
tp141
a(I100
I0
g3
F0.5621323836993203
tp142
a(I158
I27
g5
F3.433527853498917
tp143
a(I93
I3
g7
F1.0635933890962475
tp144
a(I0
I36
g1
F0.0009172244859378383
tp145
a(I101
I0
g3
F0.6243387167322678
tp146
a(I159
I24
g5
F0.42563135587054185
tp147
a(I93
I174
g7
F0.09671736933389981
tp148
a(I0
I37
g1
F-0.6369339630121662
tp149
a(I102
I0
g3
F0.6781019932930956
tp150
a(I159
I27
g5
F3.4899888022059273
tp151
a(I95
I3
g7
F1.434957945528335
tp152
a(I0
I38
g1
F-0.6911430361169276
tp153
a(I103
I0
g3
F0.9029241035820809
tp154
a(I161
I24
g5
F0.6040817333322788
tp155
a(I95
I174
g7
F0.3215027019370893
tp156
a(I0
I39
g1
F-0.7184434446584509
tp157
a(I104
I0
g3
F1.1163692358196668
tp158
a(I174
I54
g5
F0.6778961385664113
tp159
a(I117
I174
g7
F0.4337345215749963
tp160
a(I0
I40
g1
F-0.37903360331274893
tp161
a(I105
I0
g3
F1.2798903203220031
tp162
a(I176
I3
g5
F1.1288872670147978
tp163
a(I119
I3
g7
F1.416055530862313
tp164
a(I0
I41
g1
F-0.17317026258649368
tp165
a(I108
I0
g3
F1.4448771132679556
tp166
a(I176
I24
g5
F-0.04616587933721254
tp167
a(I120
I3
g7
F1.437239354276087
tp168
a(I0
I42
g1
F-0.12403259568308893
tp169
a(I109
I0
g3
F1.3592874715168781
tp170
a(I177
I6
g5
F0.9558323582051451
tp171
a(I120
I30
g7
F1.4254622078632362
tp172
a(I0
I43
g1
F-0.06644743777002757
tp173
a(I110
I0
g3
F1.4617289376195468
tp174
a(I177
I75
g5
F0.5658759829748445
tp175
a(I120
I51
g7
F1.721362095998902
tp176
a(I0
I44
g1
F0.06423932601611118
tp177
a(I112
I0
g3
F2.2533833631095
tp178
a(I179
I24
g5
F0.15924743541125733
tp179
a(I120
I81
g7
F1.6469611622508968
tp180
a(I0
I45
g1
F-0.07373590949560455
tp181
a(I113
I0
g3
F2.2903084711793187
tp182
a(I180
I18
g5
F0.2347838425450773
tp183
a(I140
I174
g7
F0.6954553400957117
tp184
a(I0
I46
g1
F-0.025347834659394625
tp185
a(I114
I0
g3
F2.2944966813643384
tp186
a(I180
I24
g5
F0.18626798185945362
tp187
a(I143
I3
g7
F1.9043988155617573
tp188
a(I0
I47
g1
F-0.06575168359365131
tp189
a(I115
I0
g3
F2.814417477093623
tp190
a(I180
I45
g5
F0.04341771230206288
tp191
a(I143
I171
g7
F0.9183097967127046
tp192
a(I0
I48
g1
F-0.04095509743591219
tp193
a(I116
I0
g3
F2.9853007348972946
tp194
a(I180
I63
g5
F0.5757857457399006
tp195
a(I144
I147
g7
F1.1990363407739688
tp196
a(I0
I49
g1
F0.8529144441117491
tp197
a(I117
I0
g3
F3.0858852416807925
tp198
a(I182
I24
g5
F0.3880531211670122
tp199
a(I144
I180
g7
F0.30654939725345076
tp200
a(I0
I50
g1
F0.4474996964838957
tp201
a(I128
I0
g3
F0.7152009760857528
tp202
a(I182
I27
g5
F3.032301522305744
tp203
a(I168
I153
g7
F1.3298243123906819
tp204
a(I0
I51
g1
F0.2491174797525656
tp205
a(I129
I0
g3
F0.7098714439173104
tp206
a(I133
I24
g5
F0.21040920863489632
tp207
a(I44
I6
g7
F1.3197388033561168
tp208
a(I0
I52
g1
F1.2011884471643755
tp209
a(I130
I0
g3
F0.44786685541131455
tp210
a(I152
I21
g5
F0.30861665137280786
tp211
a(I71
I174
g7
F-0.1412673397301079
tp212
a(I0
I53
g1
F0.9716406440198218
tp213
a(I131
I0
g3
F0.37339675031456937
tp214
a(I152
I51
g5
F0.3793461809276951
tp215
a(I72
I177
g7
F-0.288253521580761
tp216
a(I0
I54
g1
F0.9126298446793799
tp217
a(I132
I0
g3
F0.34700370892477556
tp218
a(I155
I27
g5
F1.6355121042705907
tp219
a(I88
I3
g7
F1.3065350815846277
tp220
a(I0
I55
g1
F0.3924094624029618
tp221
a(I139
I0
g3
F2.03670126754397
tp222
a(I155
I54
g5
F1.0117091964477165
tp223
a(I93
I27
g7
F1.1682568457416158
tp224
a(I0
I56
g1
F0.39607838025336417
tp225
a(I140
I0
g3
F2.8082250995098206
tp226
a(I159
I21
g5
F0.7954457612197368
tp227
a(I95
I27
g7
F1.4677175789859365
tp228
a(I0
I57
g1
F0.3325142874984596
tp229
a(I141
I0
g3
F3.2516725895959384
tp230
a(I164
I48
g5
F0.5515803613728014
tp231
a(I96
I3
g7
F1.3608395070536898
tp232
a(I0
I58
g1
F0.20425828038981222
tp233
a(I148
I0
g3
F0.23624847806685348
tp234
a(I173
I3
g5
F1.551673227219886
tp235
a(I96
I150
g7
F0.3861130772911176
tp236
a(I0
I59
g1
F0.139337107245862
tp237
a(I149
I0
g3
F0.2356989742922104
tp238
a(I173
I51
g5
F1.4426239601881194
tp239
a(I116
I153
g7
F1.1330420004747621
tp240
a(I0
I60
g1
F0.23296902991166066
tp241
a(I150
I0
g3
F0.16353294771085042
tp242
a(I176
I72
g5
F0.2825741114081182
tp243
a(I116
I174
g7
F0.2551104084869424
tp244
a(I0
I61
g1
F-0.2852016464982894
tp245
a(I154
I0
g3
F0.3035094188490537
tp246
a(I179
I18
g5
F0.7547373337599897
tp247
a(I119
I51
g7
F2.2287817431195536
tp248
a(I0
I62
g1
F-0.26769384742407104
tp249
a(I156
I0
g3
F0.4621994014061184
tp250
a(I180
I30
g5
F3.547022498643594
tp251
a(I120
I150
g7
F0.08528335654792057
tp252
a(I0
I63
g1
F-0.1901607681342911
tp253
a(I163
I0
g3
F2.831981851468114
tp254
a(I182
I21
g5
F1.00548310122736
tp255
a(I140
I27
g7
F2.256529183194295
tp256
a(I0
I64
g1
F-1.507848088766948
tp257
a(I164
I0
g3
F3.03781560745353
tp258
a(I183
I24
g5
F0.9703768312789898
tp259
a(I140
I177
g7
F0.45605310925997
tp260
a(I0
I65
g1
F-1.4656520220682603
tp261
a(I165
I0
g3
F3.1850089824446943
tp262
a(I183
I30
g5
F3.6892507054852914
tp263
a(I143
I9
g7
F2.8089891019631343
tp264
a(I0
I66
g1
F-1.294300527002388
tp265
a(I5
I0
g3
F-0.03146504856859799
tp266
a(I185
I27
g5
F2.8554497652220427
tp267
a(I167
I171
g7
F1.037154768306709
tp268
a(I0
I67
g1
F-0.6800623310371012
tp269
a(I10
I0
g3
F1.4630151162263523
tp270
a(I186
I51
g5
F2.3255917663037926
tp271
a(I167
I177
g7
F0.8120635502151164
tp272
a(I0
I68
g1
F-0.11640509322422178
tp273
a(I14
I0
g3
F2.051514536685131
tp274
a(I149
I24
g5
F-0.2717091364153876
tp275
a(I44
I27
g7
F1.0602533400114627
tp276
a(I0
I69
g1
F-0.06859598305651664
tp277
a(I15
I0
g3
F2.0906740016245027
tp278
a(I152
I3
g5
F0.775155023370945
tp279
a(I45
I3
g7
F1.0450595318126847
tp280
a(I0
I70
g1
F0.1055046837209058
tp281
a(I17
I0
g3
F2.0386093133008045
tp282
a(I164
I21
g5
F0.8267096816807018
tp283
a(I47
I3
g7
F1.0127325822110467
tp284
a(I0
I71
g1
F0.00927680411584131
tp285
a(I25
I0
g3
F0.7572137144842273
tp286
a(I165
I24
g5
F0.5291822976177151
tp287
a(I48
I3
g7
F1.027805869382601
tp288
a(I0
I72
g1
F-0.017330476236553156
tp289
a(I26
I0
g3
F0.7692155216092111
tp290
a(I174
I78
g5
F0.39349800965513104
tp291
a(I48
I6
g7
F1.0740080005516235
tp292
a(I0
I73
g1
F0.43689611632830627
tp293
a(I31
I0
g3
F0.6127831666782878
tp294
a(I176
I21
g5
F-0.054080560731529795
tp295
a(I48
I174
g7
F0.07979266448023242
tp296
a(I0
I74
g1
F0.09550611086036363
tp297
a(I33
I0
g3
F0.615112304109647
tp298
a(I176
I48
g5
F-0.03194239337672613
tp299
a(I72
I174
g7
F0.0415802441387338
tp300
a(I0
I75
g1
F0.0366138996387429
tp301
a(I34
I0
g3
F1.282187871562367
tp302
a(I177
I15
g5
F0.45037970094798857
tp303
a(I96
I6
g7
F1.067068360985916
tp304
a(I0
I76
g1
F0.11319392089803834
tp305
a(I36
I0
g3
F0.5540311081391449
tp306
a(I177
I21
g5
F-0.018085176896314798
tp307
a(I96
I30
g7
F1.2980874902481754
tp308
a(I0
I77
g1
F-0.48746684934498674
tp309
a(I38
I0
g3
F1.886009438511882
tp310
a(I177
I42
g5
F-0.08925285147276318
tp311
a(I96
I153
g7
F0.5238173005663681
tp312
a(I0
I78
g1
F-0.10252330992799824
tp313
a(I40
I0
g3
F1.9223231814949633
tp314
a(I177
I48
g5
F-0.14248869320311994
tp315
a(I96
I177
g7
F0.36046910743579025
tp316
a(I0
I79
g1
F1.0011144313859797
tp317
a(I41
I0
g3
F1.560741703259772
tp318
a(I179
I6
g5
F2.235841865435647
tp319
a(I119
I147
g7
F0.44838439831976207
tp320
a(I0
I80
g1
F0.48203054890619207
tp321
a(I42
I0
g3
F1.7120792831306282
tp322
a(I179
I30
g5
F2.575894637353243
tp323
a(I119
I150
g7
F0.39132261042795957
tp324
a(I0
I81
g1
F0.035820612553587684
tp325
a(I49
I0
g3
F-0.10085951315250019
tp326
a(I180
I15
g5
F0.8958999643965315
tp327
a(I120
I9
g7
F2.0830894890262157
tp328
a(I0
I82
g1
F0.10199482935847558
tp329
a(I50
I0
g3
F-0.24971281717031035
tp330
a(I180
I72
g5
F0.1591072531252387
tp331
a(I120
I75
g7
F1.9406803585577768
tp332
a(I0
I83
g1
F-0.2307707954350815
tp333
a(I51
I0
g3
F0.038326934933789726
tp334
a(I180
I75
g5
F2.0446661286256997
tp335
a(I120
I180
g7
F0.17852713316899305
tp336
a(I0
I84
g1
F-0.04355855850927149
tp337
a(I57
I0
g3
F0.26591192907564803
tp338
a(I183
I45
g5
F0.3712418279905286
tp339
a(I140
I171
g7
F0.21831777727691165
tp340
a(I0
I85
g1
F-0.5185745145326708
tp341
a(I66
I0
g3
F1.9073990009234993
tp342
a(I183
I48
g5
F0.2537249401546542
tp343
a(I143
I6
g7
F2.4786653976718664
tp344
a(I0
I86
g1
F-0.21025189657055648
tp345
a(I69
I0
g3
F2.3997328199069616
tp346
a(I183
I51
g5
F2.2426761911899256
tp347
a(I143
I27
g7
F2.493895427085468
tp348
a(I0
I87
g1
F-0.06748241775008253
tp349
a(I73
I0
g3
F1.1160898187104524
tp350
a(I183
I54
g5
F2.3296928121859737
tp351
a(I144
I6
g7
F2.363144136285578
tp352
a(I0
I88
g1
F-0.31750805505364027
tp353
a(I74
I0
g3
F1.3688748520481846
tp354
a(I186
I27
g5
F2.2852912763478277
tp355
a(I144
I27
g7
F2.319590100206184
tp356
a(I0
I89
g1
F-0.0442888863694142
tp357
a(I78
I0
g3
F2.4688630492027355
tp358
a(I188
I24
g5
F0.22518239268029705
tp359
a(I144
I54
g7
F2.1597605429404734
tp360
a(I0
I90
g1
F-0.0011681872213550372
tp361
a(I81
I0
g3
F1.2558561027585515
tp362
a(I189
I24
g5
F0.3427355867182996
tp363
a(I144
I75
g7
F2.066064118592014
tp364
a(I0
I91
g1
F-0.10804054632249119
tp365
a(I84
I0
g3
F1.4745787808838628
tp366
a(I189
I27
g5
F2.234694491444136
tp367
a(I164
I3
g7
F1.9462209717529395
tp368
a(I0
I92
g1
F-0.013677780670627204
tp369
a(I88
I0
g3
F2.8332370162915743
tp370
a(I189
I48
g5
F0.3768761770310075
tp371
a(I168
I156
g7
F0.8394843472060085
tp372
a(I0
I93
g1
F-0.002978555915020563
tp373
a(I89
I0
g3
F2.8334034846319
tp374
a(I124
I24
g5
F-0.21545085846020154
tp375
a(I47
I6
g7
F1.2163977849307486
tp376
a(I0
I94
g1
F-0.016274890531471686
tp377
a(I90
I0
g3
F2.852509074598566
tp378
a(I131
I3
g5
F1.442970771968387
tp379
a(I47
I27
g7
F0.8786515282000164
tp380
a(I0
I95
g1
F0.25971265049539377
tp381
a(I97
I0
g3
F1.1154602250621437
tp382
a(I131
I24
g5
F-0.3946104643595676
tp383
a(I47
I174
g7
F0.35113819252504624
tp384
a(I0
I96
g1
F-0.0741985824769593
tp385
a(I98
I0
g3
F1.1917845469514097
tp386
a(I153
I27
g5
F0.36903620597306414
tp387
a(I47
I177
g7
F0.2748124054295678
tp388
a(I0
I97
g1
F1.0110338334360727
tp389
a(I99
I0
g3
F0.6652284410058292
tp390
a(I156
I51
g5
F1.848136345169331
tp391
a(I48
I9
g7
F0.4529961427134839
tp392
a(I0
I98
g1
F0.41128263877351495
tp393
a(I106
I0
g3
F0.5187315919796719
tp394
a(I157
I24
g5
F-0.005523163987460879
tp395
a(I48
I75
g7
F0.5520106114701122
tp396
a(I0
I99
g1
F0.2536867664152688
tp397
a(I107
I0
g3
F0.4471411452478191
tp398
a(I158
I9
g5
F2.7657682738042673
tp399
a(I68
I171
g7
F0.052115398447230024
tp400
a(I0
I100
g1
F0.23862634208937122
tp401
a(I111
I0
g3
F1.7561576099280103
tp402
a(I158
I54
g5
F3.243990143506401
tp403
a(I71
I3
g7
F1.780705268815266
tp404
a(I0
I101
g1
F0.17803914018465894
tp405
a(I119
I0
g3
F3.0533275490316245
tp406
a(I161
I3
g5
F3.5470995753054164
tp407
a(I71
I27
g7
F2.5310840382548045
tp408
a(I0
I102
g1
F0.13912104980633214
tp409
a(I120
I0
g3
F4.491791513103775
tp410
a(I174
I27
g5
F0.3485077729133688
tp411
a(I91
I3
g7
F1.9350059475918744
tp412
a(I0
I103
g1
F0.0759579348293573
tp413
a(I122
I0
g3
F0.2915277560719176
tp414
a(I174
I75
g5
F0.35566384375103877
tp415
a(I92
I123
g7
F0.11171566195519757
tp416
a(I0
I104
g1
F0.10571631295267996
tp417
a(I123
I0
g3
F0.23857377703606955
tp418
a(I176
I78
g5
F0.2025636764638808
tp419
a(I92
I153
g7
F0.05803354757617093
tp420
a(I0
I105
g1
F-0.06452215892721662
tp421
a(I125
I0
g3
F0.2521469689049607
tp422
a(I177
I50
g5
F0.3099251634043694
tp423
a(I95
I6
g7
F2.051281366703844
tp424
a(I0
I106
g1
F0.09185483164685142
tp425
a(I126
I0
g3
F0.23686083904552635
tp426
a(I180
I26
g5
F2.6000320941542894
tp427
a(I113
I3
g7
F2.6261755858349902
tp428
a(I0
I107
g1
F0.08114979736162048
tp429
a(I127
I0
g3
F0.2604078582411229
tp430
a(I182
I48
g5
F0.0577700880649299
tp431
a(I113
I171
g7
F0.37304431191355275
tp432
a(I0
I108
g1
F0.025068948593581837
tp433
a(I134
I0
g3
F2.078809815238401
tp434
a(I185
I21
g5
F0.35403464776350296
tp435
a(I117
I177
g7
F-0.09276218625742946
tp436
a(I0
I109
g1
F-1.3230952365744115
tp437
a(I135
I0
g3
F2.288156955466576
tp438
a(I185
I24
g5
F0.17392606046526454
tp439
a(I120
I173
g7
F0.44353573473814345
tp440
a(I0
I110
g1
F-0.6375996356923228
tp441
a(I142
I0
g3
F3.525077094999107
tp442
a(I188
I21
g5
F0.09473943730401779
tp443
a(I141
I174
g7
F0.5585534044835766
tp444
a(I0
I111
g1
F-0.17861059891544506
tp445
a(I143
I0
g3
F3.721849217856125
tp446
a(I188
I27
g5
F2.256689439717431
tp447
a(I143
I156
g7
F1.0823869228025225
tp448
a(I0
I112
g1
F-0.08368321119177682
tp449
a(I144
I0
g3
F5.0381975598988955
tp450
a(I188
I48
g5
F-0.013570300198771298
tp451
a(I144
I176
g7
F0.7404013264111495
tp452
a(I0
I113
g1
F-0.011886911162295703
tp453
a(I146
I0
g3
F1.1925617638096648
tp454
a(I188
I51
g5
F2.153938609768979
tp455
a(I160
I3
g7
F1.7935554121941304
tp456
a(I0
I114
g1
F-0.006332996624219651
tp457
a(I147
I0
g3
F1.2070181751898583
tp458
a(I189
I15
g5
F1.328659075943095
tp459
a(I168
I174
g7
F0.7037693722535339
tp460
a(I0
I115
g1
F-0.15601846045192827
tp461
a(I153
I0
g3
F1.1343892922505157
tp462
a(I189
I72
g5
F1.0527490954670191
tp463
a(I168
I180
g7
F0.39572580579288896
tp464
a(I0
I116
g1
F0.0005531011274350889
tp465
a(I155
I0
g3
F1.154100752879363
tp466
a(I124
I21
g5
F-0.4226340645209616
tp467
a(I23
I27
g7
F1.835595022836215
tp468
a(I0
I117
g1
F-0.1105908378769535
tp469
a(I160
I0
g3
F3.730908626863176
tp470
a(I131
I21
g5
F-0.35987700899298625
tp471
a(I24
I174
g7
F0.4172214070539312
tp472
a(I0
I118
g1
F0.028985008292729167
tp473
a(I161
I0
g3
F3.7202624691575465
tp474
a(I139
I24
g5
F-0.0651512192008604
tp475
a(I40
I3
g7
F1.3782434515881894
tp476
a(I0
I119
g1
F-0.006609480624052746
tp477
a(I166
I0
g3
F3.7518200632237155
tp478
a(I153
I51
g5
F0.46697200681748213
tp479
a(I43
I6
g7
F1.188442262681128
tp480
a(I0
I120
g1
F-0.04066205888631578
tp481
a(I167
I0
g3
F3.666567643791088
tp482
a(I155
I3
g5
F1.5052189463206882
tp483
a(I45
I6
g7
F1.6167762752124157
tp484
a(I0
I121
g1
F0.9272694927865103
tp485
a(I168
I0
g3
F4.18144107192744
tp486
a(I155
I21
g5
F-0.04509930474881791
tp487
a(I45
I30
g7
F0.6160831857769563
tp488
a(I0
I122
g1
F0.38296940239901095
tp489
a(I1
I0
g3
F-0.40868422287519723
tp490
a(I156
I24
g5
F0.05573851237590611
tp491
a(I47
I153
g7
F0.060890197365035245
tp492
a(I0
I123
g1
F0.21966632205790787
tp493
a(I2
I0
g3
F-0.5186842934088635
tp494
a(I163
I48
g5
F0.3128565453056753
tp495
a(I47
I171
g7
F0.012068084294197803
tp496
a(I0
I124
g1
F0.18173704496467802
tp497
a(I7
I0
g3
F0.312838015751471
tp498
a(I165
I45
g5
F0.525846306370252
tp499
a(I48
I27
g7
F0.4981242948143936
tp500
a(I0
I125
g1
F0.12945185579811683
tp501
a(I8
I0
g3
F0.2763506076976251
tp502
a(I165
I48
g5
F0.5094290429414281
tp503
a(I48
I153
g7
F0.03258288288734847
tp504
a.