(lp0
(I0
I1
S'270'
p1
F0.5930027140966313
tp2
a(I59
I0
S'0'
p3
F1.532745428371872
tp4
a(I183
I3
S'180'
p5
F0.7964359568446209
tp6
a(I96
I171
S'90'
p7
F1.446662758241375
tp8
a(I0
I2
g1
F0.36918898039798037
tp9
a(I83
I0
g3
F1.5742428013208858
tp10
a(I183
I24
g5
F0.8651131011769759
tp11
a(I96
I3
g7
F1.145878856859668
tp12
a(I0
I3
g1
F0.3644715623933418
tp13
a(I65
I0
g3
F1.4787267539636946
tp14
a(I180
I24
g5
F0.6062201609076584
tp15
a(I120
I3
g7
F1.064739207503867
tp16
a(I0
I4
g1
F0.5364840886330676
tp17
a(I110
I0
g3
F1.2616040428692055
tp18
a(I180
I3
g5
F1.335516433370792
tp19
a(I120
I171
g7
F1.0035146926857839
tp20
a(I0
I5
g1
F0.47832795914453535
tp21
a(I86
I0
g3
F1.062538124933459
tp22
a(I183
I6
g5
F1.3003198967773844
tp23
a(I96
I147
g7
F1.0078576787150388
tp24
a(I0
I6
g1
F0.23209235586407853
tp25
a(I32
I0
g3
F0.9170870981170771
tp26
a(I177
I24
g5
F0.34229618727274863
tp27
a(I144
I3
g7
F1.5686189423496224
tp28
a(I0
I7
g1
F0.4161496203297044
tp29
a(I62
I0
g3
F0.9048481431706884
tp30
a(I179
I24
g5
F0.4349744367614297
tp31
a(I119
I3
g7
F1.2224454587810978
tp32
a(I0
I8
g1
F0.166029213264371
tp33
a(I38
I0
g3
F0.839752838157038
tp34
a(I186
I24
g5
F0.7390500268832301
tp35
a(I72
I3
g7
F1.3427323123601498
tp36
a(I0
I9
g1
F0.006185721380962409
tp37
a(I92
I0
g3
F1.352007526192142
tp38
a(I182
I24
g5
F0.4779872418860159
tp39
a(I95
I3
g7
F1.1717094041980856
tp40
a(I0
I10
g1
F0.3150588275602552
tp41
a(I35
I0
g3
F0.6947429856491407
tp42
a(I155
I48
g5
F0.46372255713735244
tp43
a(I116
I6
g7
F1.2769844092316598
tp44
a(I0
I11
g1
F0.19861447062067095
tp45
a(I77
I0
g3
F0.689052553393313
tp46
a(I183
I21
g5
F0.7882816325999079
tp47
a(I96
I27
g7
F1.2904340785946655
tp48
a(I0
I12
g1
F-0.029535120100419643
tp49
a(I89
I0
g3
F1.019880036808243
tp50
a(I183
I48
g5
F0.6427463794081019
tp51
a(I96
I6
g7
F1.310314717617217
tp52
a(I0
I13
g1
F0.20221859899101766
tp53
a(I85
I0
g3
F0.694037717263064
tp54
a(I158
I48
g5
F0.5405853059670271
tp55
a(I92
I6
g7
F1.1494903053025674
tp56
a(I0
I14
g1
F0.062018657374881186
tp57
a(I113
I0
g3
F1.098750367758855
tp58
a(I180
I48
g5
F0.552386468953484
tp59
a(I120
I6
g7
F1.4942422451106814
tp60
a(I0
I15
g1
F-0.11677691371518183
tp61
a(I60
I0
g3
F0.8385121008072705
tp62
a(I180
I6
g5
F1.6201227949886265
tp63
a(I120
I147
g7
F0.6542509146200267
tp64
a(I0
I16
g1
F0.1143725454665509
tp65
a(I63
I0
g3
F0.8619201538324089
tp66
a(I176
I24
g5
F0.4088868286678398
tp67
a(I120
I27
g7
F1.4037692802059525
tp68
a(I0
I17
g1
F-0.03774347517183201
tp69
a(I84
I0
g3
F0.864514891170571
tp70
a(I180
I21
g5
F0.6170101341782721
tp71
a(I143
I3
g7
F1.5006644555179267
tp72
a(I0
I18
g1
F-0.16374592286819858
tp73
a(I29
I0
g3
F0.3525568559052073
tp74
a(I155
I24
g5
F0.4283852146624903
tp75
a(I72
I171
g7
F0.43686225108431476
tp76
a(I0
I19
g1
F0.081050384626172
tp77
a(I56
I0
g3
F0.563533675787406
tp78
a(I186
I3
g5
F2.1493908650700164
tp79
a(I116
I3
g7
F1.3603295993790159
tp80
a(I0
I20
g1
F-0.09251082832262261
tp81
a(I61
I0
g3
F0.6116344762274669
tp82
a(I179
I48
g5
F0.3610569148307488
tp83
a(I96
I174
g7
F0.5445498176414194
tp84
a(I0
I21
g1
F-0.12970931865731575
tp85
a(I111
I0
g3
F1.053704038736827
tp86
a(I183
I27
g5
F1.7947009535098837
tp87
a(I119
I6
g7
F1.3731559329614644
tp88
a(I0
I22
g1
F0.04085362223065497
tp89
a(I80
I0
g3
F0.6689203199075358
tp90
a(I177
I3
g5
F1.3523885117497945
tp91
a(I95
I171
g7
F0.5157801526057473
tp92
a(I0
I23
g1
F-0.10612876085806108
tp93
a(I82
I0
g3
F0.7085760052471612
tp94
a(I182
I3
g5
F1.6109535585531563
tp95
a(I144
I171
g7
F0.7964217148039171
tp96
a(I0
I24
g1
F-0.07431081529501213
tp97
a(I104
I0
g3
F0.8302980357889093
tp98
a(I158
I24
g5
F0.2682512113814443
tp99
a(I92
I3
g7
F1.31569282547748
tp100
a(I0
I25
g1
F0.8248004031076398
tp101
a(I107
I0
g3
F0.6920694036839823
tp102
a(I185
I24
g5
F0.6584124079534253
tp103
a(I71
I3
g7
F1.18624749741036
tp104
a(I0
I26
g1
F0.48667703134831103
tp105
a(I33
I0
g3
F0.3116046202430722
tp106
a(I179
I3
g5
F1.6070186676330014
tp107
a(I119
I171
g7
F0.5635600220557706
tp108
a(I0
I27
g1
F0.362059656708773
tp109
a(I39
I0
g3
F0.515143499441208
tp110
a(I180
I27
g5
F1.7082680568123527
tp111
a(I120
I174
g7
F0.5711276427404871
tp112
a(I0
I28
g1
F0.41119630895138837
tp113
a(I68
I0
g3
F1.0178038617788434
tp114
a(I155
I27
g5
F1.65444876015393
tp115
a(I116
I174
g7
F0.5415063840180466
tp116
a(I0
I29
g1
F0.4159601687724217
tp117
a(I108
I0
g3
F0.5917416337324075
tp118
a(I177
I48
g5
F0.37256737601118034
tp119
a(I144
I6
g7
F2.176461105568588
tp120
a(I0
I30
g1
F0.26832895970097975
tp121
a(I53
I0
g3
F0.029333287721567142
tp122
a(I182
I48
g5
F0.5845292886479453
tp123
a(I95
I6
g7
F1.5194116869452108
tp124
a(I0
I31
g1
F0.27682137615452873
tp125
a(I67
I0
g3
F0.836643565792504
tp126
a(I161
I24
g5
F0.8209610650266831
tp127
a(I68
I3
g7
F1.271885804926236
tp128
a(I0
I32
g1
F0.11813670974837825
tp129
a(I76
I0
g3
F0.029485975365531176
tp130
a(I155
I3
g5
F1.7020630688329135
tp131
a(I116
I171
g7
F0.5787536844149802
tp132
a(I0
I33
g1
F0.035201638945224864
tp133
a(I101
I0
g3
F0.16096002146679675
tp134
a(I161
I48
g5
F0.7475033667707399
tp135
a(I68
I6
g7
F1.3184241551785645
tp136
a(I0
I34
g1
F0.16882216883713724
tp137
a(I109
I0
g3
F0.49384390156306857
tp138
a(I158
I3
g5
F1.9137569660330762
tp139
a(I92
I171
g7
F0.45388878779153613
tp140
a(I0
I35
g1
F-0.013993063199674324
tp141
a(I36
I0
g3
F0.24436286175206082
tp142
a(I183
I30
g5
F2.060492826289917
tp143
a(I96
I30
g7
F1.8297086326449608
tp144
a(I0
I36
g1
F-0.13914274833175128
tp145
a(I79
I0
g3
F0.10031471039616154
tp146
a(I183
I45
g5
F0.6613333659645358
tp147
a(I96
I150
g7
F0.5203785224415405
tp148
a(I0
I37
g1
F0.006063744153047557
tp149
a(I112
I0
g3
F0.8213777649367447
tp150
a(I152
I48
g5
F0.385083383976993
tp151
a(I72
I147
g7
F0.3506825126564991
tp152
a(I0
I38
g1
F-0.13942737515344675
tp153
a(I41
I0
g3
F0.4183783804267001
tp154
a(I186
I6
g5
F2.7213457443245708
tp155
a(I140
I6
g7
F2.3420950938843754
tp156
a(I0
I39
g1
F-0.30616477187459284
tp157
a(I44
I0
g3
F0.7111871391759645
tp158
a(I179
I21
g5
F0.6500910861199155
tp159
a(I119
I27
g7
F1.740217555756955
tp160
a(I0
I40
g1
F-0.12533674964416178
tp161
a(I64
I0
g3
F0.5702959845098341
tp162
a(I177
I27
g5
F1.4789339914526076
tp163
a(I95
I27
g7
F1.5845880783748747
tp164
a(I0
I41
g1
F-0.27523539363977884
tp165
a(I58
I0
g3
F0.16478598080942575
tp166
a(I179
I27
g5
F1.6646215049769668
tp167
a(I119
I174
g7
F0.6382964637185575
tp168
a(I0
I42
g1
F-0.38663945110192066
tp169
a(I78
I0
g3
F0.1807037322627573
tp170
a(I182
I21
g5
F0.6426647862321402
tp171
a(I144
I174
g7
F0.6898909063159053
tp172
a(I0
I43
g1
F-0.32263550714026795
tp173
a(I88
I0
g3
F0.8066427443355463
tp174
a(I180
I45
g5
F0.46776905894882187
tp175
a(I72
I27
g7
F1.438055696620784
tp176
a(I0
I44
g1
F-0.3802549129496142
tp177
a(I93
I0
g3
F1.3925815040846883
tp178
a(I186
I21
g5
F0.7900799496392712
tp179
a(I120
I30
g7
F1.825268944684886
tp180
a(I0
I45
g1
F-0.3306728942510368
tp181
a(I106
I0
g3
F0.6374555541413368
tp182
a(I176
I3
g5
F1.2959523819802172
tp183
a(I143
I171
g7
F0.6985048188191255
tp184
a(I0
I46
g1
F-0.1683486580111617
tp185
a(I26
I0
g3
F0.09106456505324603
tp186
a(I186
I48
g5
F0.6092138125744004
tp187
a(I72
I6
g7
F1.3603203755205262
tp188
a(I0
I47
g1
F-0.21501545694890722
tp189
a(I87
I0
g3
F0.894415454787782
tp190
a(I152
I24
g5
F0.14536677068449513
tp191
a(I119
I147
g7
F0.667493872428715
tp192
a(I0
I48
g1
F-0.12587994923900772
tp193
a(I90
I0
g3
F1.2326641706234345
tp194
a(I179
I6
g5
F1.4002797664132238
tp195
a(I140
I3
g7
F1.8622777805160244
tp196
a(I0
I49
g1
F0.684286823353071
tp197
a(I116
I0
g3
F1.4809140921649873
tp198
a(I177
I6
g5
F1.4382091374987565
tp199
a(I144
I147
g7
F0.7696272226419505
tp200
a(I0
I50
g1
F0.44657975877799694
tp201
a(I42
I0
g3
F0.6723487612840493
tp202
a(I176
I48
g5
F0.31774841813296933
tp203
a(I71
I6
g7
F1.3115148575963393
tp204
a(I0
I51
g1
F0.31024913557433015
tp205
a(I50
I0
g3
F-0.002894145800402495
tp206
a(I180
I9
g5
F1.438482388187345
tp207
a(I120
I123
g7
F0.830318322305048
tp208
a(I0
I52
g1
F0.31484391540530765
tp209
a(I54
I0
g3
F0.023352929524764098
tp210
a(I185
I48
g5
F0.778735765780264
tp211
a(I143
I6
g7
F2.222596084731343
tp212
a(I0
I53
g1
F0.2215183073159473
tp213
a(I66
I0
g3
F0.7408194033100027
tp214
a(I158
I27
g5
F1.979753080529996
tp215
a(I92
I174
g7
F0.34896761935825
tp216
a(I0
I54
g1
F0.19313882872755073
tp217
a(I55
I0
g3
F0.03935027999277541
tp218
a(I185
I3
g5
F2.461662780237133
tp219
a(I71
I171
g7
F0.3104060979750503
tp220
a(I0
I55
g1
F0.14701172451544364
tp221
a(I114
I0
g3
F1.057937643003747
tp222
a(I177
I21
g5
F0.4568926654095344
tp223
a(I144
I27
g7
F2.3002909143393415
tp224
a(I0
I56
g1
F0.11263325531997503
tp225
a(I134
I0
g3
F0.7174451112042932
tp226
a(I158
I6
g5
F1.9419290369517712
tp227
a(I92
I147
g7
F0.39897978592422295
tp228
a(I0
I57
g1
F-0.04583066624800117
tp229
a(I45
I0
g3
F0.7371957539757678
tp230
a(I182
I6
g5
F1.9281765422263277
tp231
a(I95
I147
g7
F0.43302762472206763
tp232
a(I0
I58
g1
F0.02364968300509741
tp233
a(I91
I0
g3
F1.1626695550113058
tp234
a(I183
I18
g5
F0.9249507378710049
tp235
a(I96
I51
g7
F1.3070275844505848
tp236
a(I0
I59
g1
F-0.08899281415914022
tp237
a(I30
I0
g3
F-0.22379712168331442
tp238
a(I182
I27
g5
F2.0352402408895154
tp239
a(I95
I174
g7
F0.45840291958123364
tp240
a(I0
I60
g1
F-0.18137093992557438
tp241
a(I52
I0
g3
F-0.08650055409826052
tp242
a(I158
I21
g5
F0.7072225784951331
tp243
a(I92
I27
g7
F1.6039569182009192
tp244
a(I0
I61
g1
F-0.03836377272764284
tp245
a(I69
I0
g3
F1.0375164078554873
tp246
a(I176
I27
g5
F1.398889468189523
tp247
a(I143
I174
g7
F0.6703096432682347
tp248
a(I0
I62
g1
F-0.1668978060480993
tp249
a(I103
I0
g3
F0.2448033651270936
tp250
a(I156
I48
g5
F0.4320322032153226
tp251
a(I117
I6
g7
F2.013272524423126
tp252
a(I0
I63
g1
F-0.2950163168456795
tp253
a(I140
I0
g3
F1.5448564609368078
tp254
a(I180
I30
g5
F1.830884081961177
tp255
a(I48
I3
g7
F1.304652110173616
tp256
a(I0
I64
g1
F-0.31697463543827953
tp257
a(I14
I0
g3
F0.21806900086945621
tp258
a(I186
I27
g5
F2.5912737174656133
tp259
a(I72
I174
g7
F0.30618099105755653
tp260
a(I0
I65
g1
F-0.28944920634018373
tp261
a(I74
I0
g3
F0.1772498721972165
tp262
a(I189
I24
g5
F0.910953385575845
tp263
a(I120
I150
g7
F0.6635197741231987
tp264
a(I0
I66
g1
F-0.3613435344849985
tp265
a(I98
I0
g3
F0.3431556730741295
tp266
a(I152
I27
g5
F1.2832516933958928
tp267
a(I71
I27
g7
F1.262609109053874
tp268
a(I0
I67
g1
F-0.2943685687518913
tp269
a(I131
I0
g3
F0.8830528856045484
tp270
a(I183
I9
g5
F1.5393629836841007
tp271
a(I96
I123
g7
F0.7649492535268697
tp272
a(I0
I68
g1
F-0.2572435328209018
tp273
a(I135
I0
g3
F1.1700843892227863
tp274
a(I185
I21
g5
F0.5661764054699012
tp275
a(I140
I174
g7
F0.7128940107323123
tp276
a(I0
I69
g1
F-0.16020722488286787
tp277
a(I57
I0
g3
F0.6948839286007765
tp278
a(I155
I45
g5
F0.13244854793837194
tp279
a(I92
I30
g7
F1.4533281600872099
tp280
a(I0
I70
g1
F-0.07708993239699549
tp281
a(I71
I0
g3
F1.666337525542011
tp282
a(I158
I45
g5
F0.2110926665635421
tp283
a(I116
I30
g7
F1.4844700777684203
tp284
a(I0
I71
g1
F-0.11483050933602727
tp285
a(I128
I0
g3
F0.9754742211100554
tp286
a(I155
I6
g5
F1.2779410517768726
tp287
a(I44
I3
g7
F1.0015043672391608
tp288
a(I0
I72
g1
F-0.02382224143320453
tp289
a(I137
I0
g3
F1.5227587017950952
tp290
a(I155
I30
g5
F1.298061794963195
tp291
a(I116
I147
g7
F0.6512043508079166
tp292
a(I0
I73
g1
F0.7289974677633428
tp293
a(I95
I0
g3
F1.763749797025307
tp294
a(I164
I24
g5
F0.7366371747411831
tp295
a(I116
I150
g7
F0.5731821363233599
tp296
a(I0
I74
g1
F0.4747080572980583
tp297
a(I102
I0
g3
F0.36738765339110846
tp298
a(I155
I21
g5
F0.3943424287199547
tp299
a(I116
I27
g7
F1.631563358750173
tp300
a(I0
I75
g1
F0.30390715597465
tp301
a(I100
I0
g3
F0.2629645211419394
tp302
a(I185
I27
g5
F2.428453051754611
tp303
a(I71
I174
g7
F0.3150666029432576
tp304
a(I0
I76
g1
F0.30012218670271673
tp305
a(I119
I0
g3
F1.6042336484012025
tp306
a(I156
I27
g5
F1.7217948227186612
tp307
a(I92
I150
g7
F0.37373983533355354
tp308
a(I0
I77
g1
F0.1783602688614538
tp309
a(I27
I0
g3
F-0.228089279661311
tp310
a(I158
I30
g5
F1.8744353215442113
tp311
a(I117
I174
g7
F0.5291359907785679
tp312
a(I0
I78
g1
F0.1414514606000651
tp313
a(I105
I0
g3
F0.3524489677549358
tp314
a(I180
I18
g5
F0.6853541259391638
tp315
a(I120
I51
g7
F1.6659833005553195
tp316
a(I0
I79
g1
F0.14951454759120736
tp317
a(I115
I0
g3
F1.4298696980048764
tp318
a(I174
I24
g5
F0.09496315523282468
tp319
a(I168
I3
g7
F3.3603655829017303
tp320
a(I0
I80
g1
F0.07773366914913275
tp321
a(I133
I0
g3
F0.7538490511309696
tp322
a(I188
I24
g5
F1.0617045346848593
tp323
a(I47
I3
g7
F1.1744074368849475
tp324
a(I0
I81
g1
F-0.08871059720825064
tp325
a(I138
I0
g3
F1.1599111404220162
tp326
a(I179
I45
g5
F0.474937940387465
tp327
a(I119
I30
g7
F1.9058965200452658
tp328
a(I0
I82
g1
F-0.008641909588659714
tp329
a(I49
I0
g3
F-0.12674697434645787
tp330
a(I159
I3
g5
F2.093336478766531
tp331
a(I93
I171
g7
F0.47770145678616754
tp332
a(I0
I83
g1
F-0.08793542858196159
tp333
a(I130
I0
g3
F0.5918486599476126
tp334
a(I186
I45
g5
F0.885543112553533
tp335
a(I48
I171
g7
F0.13531564194800427
tp336
a(I0
I84
g1
F-0.22142573846319535
tp337
a(I141
I0
g3
F1.7006422345589782
tp338
a(I189
I3
g5
F3.3968565078097734
tp339
a(I72
I30
g7
F1.6582821028164687
tp340
a(I0
I85
g1
F-0.07614063460079293
tp341
a(I51
I0
g3
F-0.00041207352375766836
tp342
a(I177
I45
g5
F0.26074910532506806
tp343
a(I144
I30
g7
F2.5770079439688516
tp344
a(I0
I86
g1
F-0.13528097284486879
tp345
a(I81
I0
g3
F0.36509951000136925
tp346
a(I156
I24
g5
F0.3538705539825837
tp347
a(I117
I3
g7
F1.9917266103108853
tp348
a(I0
I87
g1
F-0.3029973111360526
tp349
a(I117
I0
g3
F1.611304859710025
tp350
a(I156
I3
g5
F1.5795448833866337
tp351
a(I117
I171
g7
F0.609251896232961
tp352
a(I0
I88
g1
F-0.3372113046536787
tp353
a(I122
I0
g3
F0.3974441557268172
tp354
a(I176
I6
g5
F1.3017780812746365
tp355
a(I143
I27
g7
F2.1805792448874857
tp356
a(I0
I89
g1
F-0.23571332563037553
tp357
a(I125
I0
g3
F0.5598559002645663
tp358
a(I176
I21
g5
F0.17742794849057414
tp359
a(I143
I147
g7
F0.763477116270521
tp360
a(I0
I90
g1
F-0.3002456003160906
tp361
a(I129
I0
g3
F0.8069041847242258
tp362
a(I183
I72
g5
F0.30518262890897263
tp363
a(I96
I9
g7
F1.6618501257727714
tp364
a(I0
I91
g1
F-0.3136521487050052
tp365
a(I132
I0
g3
F1.1435898857704279
tp366
a(I152
I3
g5
F1.1248914040987432
tp367
a(I140
I171
g7
F0.7322283316009311
tp368
a(I0
I92
g1
F-0.14816057894903728
tp369
a(I34
I0
g3
F0.5381097294650556
tp370
a(I161
I27
g5
F1.9135084878170427
tp371
a(I68
I174
g7
F0.4020145203620941
tp372
a(I0
I93
g1
F-0.06595471106992574
tp373
a(I17
I0
g3
F0.9746972249392474
tp374
a(I177
I30
g5
F1.1682279168975627
tp375
a(I144
I150
g7
F0.8922589771136902
tp376
a(I0
I94
g1
F-0.020445127204840603
tp377
a(I139
I0
g3
F2.1952786599972742
tp378
a(I159
I24
g5
F0.13099651789606404
tp379
a(I93
I3
g7
F1.5845487826481415
tp380
a(I0
I95
g1
F-0.073379499361961
tp381
a(I15
I0
g3
F0.9760046898243508
tp382
a(I159
I48
g5
F0.09547309575450275
tp383
a(I68
I27
g7
F1.1403034066021893
tp384
a(I0
I96
g1
F-0.012740478033511131
tp385
a(I73
I0
g3
F0.8125513151214241
tp386
a(I161
I21
g5
F0.2930559214953619
tp387
a(I93
I6
g7
F1.540210627175418
tp388
a(I0
I97
g1
F0.8130940172487068
tp389
a(I127
I0
g3
F0.7533618276524072
tp390
a(I173
I24
g5
F-0.0604969508114961
tp391
a(I167
I3
g7
F2.4936568140913007
tp392
a(I0
I98
g1
F0.4417822545653925
tp393
a(I164
I0
g3
F1.8614307300399355
tp394
a(I164
I48
g5
F0.8087941634846277
tp395
a(I44
I6
g7
F0.9953285907736817
tp396
a(I0
I99
g1
F0.25016037055546564
tp397
a(I8
I0
g3
F-0.13620653326777604
tp398
a(I180
I12
g5
F1.07765954562932
tp399
a(I120
I99
g7
F1.1373512829788652
tp400
a(I0
I100
g1
F0.20639147126228616
tp401
a(I47
I0
g3
F1.0294247598316333
tp402
a(I180
I51
g5
F1.8031805316739071
tp403
a(I120
I177
g7
F0.5194811082971894
tp404
a(I0
I101
g1
F0.24582940736050338
tp405
a(I75
I0
g3
F0.1256707181111467
tp406
a(I180
I72
g5
F0.2796527095351434
tp407
a(I48
I6
g7
F1.3538307644440515
tp408
a(I0
I102
g1
F0.15215380658731745
tp409
a(I11
I0
g3
F0.004848171921914683
tp410
a(I189
I48
g5
F0.8701279312879595
tp411
a(I120
I9
g7
F2.1055008964015123
tp412
a(I0
I103
g1
F0.11580475076599454
tp413
a(I37
I0
g3
F0.1949035790050139
tp414
a(I186
I30
g5
F2.6422698282451
tp415
a(I72
I150
g7
F0.2445072047322449
tp416
a(I0
I104
g1
F0.041069407699037226
tp417
a(I72
I0
g3
F1.3880727844941276
tp418
a(I183
I12
g5
F1.3094458575565653
tp419
a(I96
I99
g7
F0.9493845849218142
tp420
a(I0
I105
g1
F-0.05724299503161337
tp421
a(I120
I0
g3
F1.7296013088807518
tp422
a(I161
I3
g5
F2.47811421731203
tp423
a(I68
I171
g7
F0.2639502904691256
tp424
a(I0
I106
g1
F-0.10533765219895377
tp425
a(I5
I0
g3
F-0.29025150609731326
tp426
a(I182
I45
g5
F0.4658529564476595
tp427
a(I71
I147
g7
F0.3314527039662376
tp428
a(I0
I107
g1
F-0.13516865746786133
tp429
a(I31
I0
g3
F-0.21173462804166235
tp430
a(I185
I6
g5
F2.4422387306984485
tp431
a(I95
I30
g7
F1.6603215580915325
tp432
a(I0
I108
g1
F-0.17959916545408156
tp433
a(I70
I0
g3
F1.3029628417412618
tp434
a(I179
I30
g5
F1.6381514504361492
tp435
a(I96
I177
g7
F0.35390006275822533
tp436
a(I0
I109
g1
F-0.21446344259785247
tp437
a(I94
I0
g3
F1.5648894730887903
tp438
a(I183
I51
g5
F1.9627782115921686
tp439
a(I119
I150
g7
F0.5802219063994539
tp440
a(I0
I110
g1
F-0.16915505946465642
tp441
a(I18
I0
g3
F0.7626380820615086
tp442
a(I177
I18
g5
F0.274846366420178
tp443
a(I144
I51
g7
F2.210275840961142
tp444
a(I0
I111
g1
F-0.1778975474058005
tp445
a(I6
I0
g3
F0.08869361599101455
tp446
a(I177
I9
g5
F1.020904266289195
tp447
a(I47
I6
g7
F1.0687835113947737
tp448
a(I0
I112
g1
F-0.3315770701641345
tp449
a(I20
I0
g3
F1.063672216600667
tp450
a(I186
I18
g5
F0.9029540483588946
tp451
a(I72
I51
g7
F1.2487420666884184
tp452
a(I0
I113
g1
F-0.21911579793978087
tp453
a(I9
I0
g3
F0.34670569382409905
tp454
a(I188
I48
g5
F0.5515477143024383
tp455
a(I144
I123
g7
F1.1748552571502995
tp456
a(I0
I114
g1
F-0.1554250632365294
tp457
a(I143
I0
g3
F2.410911843551969
tp458
a(I174
I3
g5
F0.8937349936071878
tp459
a(I120
I126
g7
F0.8985230297118643
tp460
a(I0
I115
g1
F-0.2193467249343997
tp461
a(I152
I0
g3
F1.0876741002988932
tp462
a(I180
I33
g5
F1.1784252917672202
tp463
a(I168
I171
g7
F1.0796715278454185
tp464
a(I0
I116
g1
F-0.08693118709048403
tp465
a(I118
I0
g3
F2.197911617730753
tp466
a(I152
I21
g5
F-0.18758722798719762
tp467
a(I140
I27
g7
F1.7828306692296902
tp468
a(I0
I117
g1
F-0.051718598581178
tp469
a(I12
I0
g3
F0.8459751470308607
tp470
a(I180
I15
g5
F0.37635360466784296
tp471
a(I120
I75
g7
F1.431732124842493
tp472
a(I0
I118
g1
F-0.022706245599408786
tp473
a(I96
I0
g3
F2.206977314622054
tp474
a(I155
I9
g5
F0.8262636617259397
tp475
a(I116
I123
g7
F0.8433939775200543
tp476
a(I0
I119
g1
F-0.04774925171944818
tp477
a(I124
I0
g3
F1.038569701274927
tp478
a(I161
I45
g5
F0.19941601833933859
tp479
a(I68
I30
g7
F1.11950269977874
tp480
a(I0
I120
g1
F0.023874692213814545
tp481
a(I158
I0
g3
F1.3594958516999718
tp482
a(I183
I15
g5
F0.6702964236113188
tp483
a(I96
I75
g7
F1.3023765844882471
tp484
a(I0
I121
g1
F0.7748423239664948
tp485
a(I97
I0
g3
F0.4434544677979779
tp486
a(I159
I27
g5
F1.7913630682534776
tp487
a(I93
I174
g7
F0.4895832096141283
tp488
a(I0
I122
g1
F0.39630731073904696
tp489
a(I121
I0
g3
F0.4706060447542486
tp490
a(I182
I30
g5
F1.7033934578837118
tp491
a(I95
I150
g7
F0.4056978816483372
tp492
a(I0
I123
g1
F0.24152180908524076
tp493
a(I136
I0
g3
F1.310197554460224
tp494
a(I183
I33
g5
F1.676292509417061
tp495
a(I96
I126
g7
F0.6911693423625911
tp496
a(I0
I124
g1
F0.08892212202327487
tp497
a(I48
I0
g3
F1.296851385992503
tp498
a(I189
I21
g5
F1.0984200200845655
tp499
a(I48
I27
g7
F1.3066930224054492
tp500
a(I0
I125
g1
F0.08197415110896344
tp501
a(I123
I0
g3
F0.376991846514159
tp502
a(I149
I24
g5
F-0.01567689949083931
tp503
a(I144
I177
g7
F0.6209153144150081
tp504
a.