(lp0
(I74
I23
S'270'
p1
F0.8910985532767388
tp2
a(I14
I191
S'0'
p3
F1.1405262367126412
tp4
a(I179
I2
S'180'
p5
F0.7332703160899277
tp6
a(I119
I170
S'90'
p7
F1.114272253035653
tp8
a(I74
I191
g1
F0.8572056009102706
tp9
a(I14
I170
g3
F0.783693457706905
tp10
a(I179
I23
g5
F0.9387798567501358
tp11
a(I119
I2
g7
F0.7731667447738596
tp12
a(I98
I191
g1
F0.6682569203543914
tp13
a(I11
I170
g3
F0.6316116371192788
tp14
a(I182
I23
g5
F0.687505044489812
tp15
a(I95
I2
g7
F0.6178560792113321
tp16
a(I98
I23
g1
F0.5446710763607718
tp17
a(I11
I191
g3
F0.5917847381178449
tp18
a(I182
I2
g5
F0.5189877592401801
tp19
a(I95
I170
g7
F0.5608137728678313
tp20
a.