(lp0
(dp1
S'lt'
p2
(dp3
g2
(dp4
g2
(dp5
g2
(dp6
g2
(dp7
g2
(dp8
g2
(dp9
g2
S'0'
p10
sS'gt'
p11
S'270'
p12
sS'idx'
p13
I74
ssg11
S'90'
p14
sg13
I90
ssg11
g10
sg13
I35
ssg11
S'180'
p15
sg13
I182
ssg11
g12
sg13
I51
ssg11
g15
sg13
I91
ssg11
g14
sg13
I72
ssg11
g10
sg13
I10
sa(dp16
g2
(dp17
g2
(dp18
g2
(dp19
g2
(dp20
g2
(dp21
g2
(dp22
g2
(dp23
g2
g12
sg11
g14
sg13
I119
ssg11
g10
sg13
I103
ssg11
g15
sg13
I176
ssg11
g12
sg13
I9
ssg11
g15
sg13
I139
ssg11
g10
sg13
I166
ssg11
g10
sg13
I67
ssg11
g14
sg13
I187
sa(dp24
g2
(dp25
g2
(dp26
g2
(dp27
g2
(dp28
g2
(dp29
g2
(dp30
g2
(dp31
g2
g12
sg11
g15
sg13
I49
ssg11
g15
sg13
I154
ssg11
g10
sg13
I67
ssg11
g14
sg13
I163
ssg11
g12
sg13
I2
ssg11
g10
sg13
I135
ssg11
g10
sg13
I17
ssg11
g15
sg13
I175
sa(dp32
g2
(dp33
g2
(dp34
g2
(dp35
g2
(dp36
g2
(dp37
g2
(dp38
g2
(dp39
g2
g12
sg11
g10
sg13
I32
ssg11
g10
sg13
I138
ssg11
g15
sg13
I139
ssg11
g14
sg13
I187
ssg11
g15
sg13
I182
ssg11
g10
sg13
I37
ssg11
g14
sg13
I184
ssg11
g15
sg13
I176
sa(dp40
g2
(dp41
g2
(dp42
g2
(dp43
g2
(dp44
g2
(dp45
g2
(dp46
g2
(dp47
g2
g12
sg11
g12
sg13
I46
ssg11
g15
sg13
I55
ssg11
g14
sg13
I110
ssg11
g14
sg13
I150
ssg11
g10
sg13
I163
ssg11
g10
sg13
I32
ssg11
g14
sg13
I140
ssg11
g10
sg13
I184
sa(dp48
g2
(dp49
g2
(dp50
g2
(dp51
g2
(dp52
g2
(dp53
g2
(dp54
g2
(dp55
g2
g10
sg11
g14
sg13
I112
ssg11
g10
sg13
I101
ssg11
g12
sg13
I53
ssg11
g14
sg13
I95
ssg11
g12
sg13
I46
ssg11
g15
sg13
I132
ssg11
g15
sg13
I111
ssg11
g10
sg13
I86
sa(dp56
g2
(dp57
g2
(dp58
g2
(dp59
g2
(dp60
g2
(dp61
g2
g10
sg11
g14
sg13
I189
ssg11
g12
sg13
I84
ssg11
(dp62
g2
g14
sg11
g10
sg13
I14
ssg13
I42
ssg11
(dp63
g2
g14
sg11
g12
sg13
I27
ssg13
I181
ssg11
g12
sg13
I124
ssg11
g15
sg13
I169
sa(dp64
g2
(dp65
g2
(dp66
g2
(dp67
g2
(dp68
g2
(dp69
g2
g15
sg11
g12
sg13
I26
ssg11
g14
sg13
I136
ssg11
g10
sg13
I7
ssg11
(dp70
g2
(dp71
g2
g12
sg11
g10
sg13
I41
ssg11
g10
sg13
I15
ssg13
I80
ssg11
g10
sg13
I64
ssg11
g14
sg13
I142
sa(dp72
g2
(dp73
g2
(dp74
g2
(dp75
g2
(dp76
g2
(dp77
g2
(dp78
g2
(dp79
g2
g12
sg11
g14
sg13
I71
ssg11
g12
sg13
I105
ssg11
g15
sg13
I146
ssg11
g14
sg13
I14
ssg11
g10
sg13
I13
ssg11
g12
sg13
I129
ssg11
g10
sg13
I186
ssg11
g14
sg13
I64
sa(dp80
g2
(dp81
g2
(dp82
g2
(dp83
g2
(dp84
g2
(dp85
g2
(dp86
g2
(dp87
g2
g14
sg11
g10
sg13
I62
ssg11
g15
sg13
I0
ssg11
g12
sg13
I80
ssg11
g14
sg13
I41
ssg11
g12
sg13
I146
ssg11
g12
sg13
I58
ssg11
g15
sg13
I172
ssg11
g10
sg13
I17
sa(dp88
g2
(dp89
g2
(dp90
g2
(dp91
g2
(dp92
g2
(dp93
g2
(dp94
g2
(dp95
g2
g14
sg11
g15
sg13
I156
ssg11
g12
sg13
I142
ssg11
g15
sg13
I74
ssg11
g10
sg13
I47
ssg11
g12
sg13
I53
ssg11
g10
sg13
I190
ssg11
g15
sg13
I170
ssg11
g10
sg13
I157
sa(dp96
g2
(dp97
g2
(dp98
g2
(dp99
g2
(dp100
g2
(dp101
g2
(dp102
g2
(dp103
g2
g10
sg11
g12
sg13
I76
ssg11
g12
sg13
I78
ssg11
g14
sg13
I69
ssg11
g15
sg13
I182
ssg11
g10
sg13
I71
ssg11
g14
sg13
I23
ssg11
g15
sg13
I131
ssg11
g14
sg13
I61
sa(dp104
g2
(dp105
g2
(dp106
g2
(dp107
g2
(dp108
g2
(dp109
g2
(dp110
g2
(dp111
g2
g12
sg11
g15
sg13
I192
ssg11
g14
sg13
I120
ssg11
g15
sg13
I151
ssg11
g14
sg13
I43
ssg11
g12
sg13
I131
ssg11
g12
sg13
I61
ssg11
g10
sg13
I41
ssg11
g10
sg13
I65
sa(dp112
g2
(dp113
g2
(dp114
g2
(dp115
g2
(dp116
g2
(dp117
g2
(dp118
g2
(dp119
g2
g10
sg11
g14
sg13
I92
ssg11
g15
sg13
I174
ssg11
g12
sg13
I100
ssg11
g10
sg13
I76
ssg11
g12
sg13
I124
ssg11
g12
sg13
I122
ssg11
g12
sg13
I19
ssg11
g12
sg13
I169
sa(dp120
g2
(dp121
g2
(dp122
g2
(dp123
g2
(dp124
g2
(dp125
g2
(dp126
g2
(dp127
g2
g12
sg11
g14
sg13
I117
ssg11
g15
sg13
I67
ssg11
g10
sg13
I76
ssg11
g12
sg13
I43
ssg11
g10
sg13
I11
ssg11
g10
sg13
I31
ssg11
g12
sg13
I1
ssg11
g15
sg13
I187
sa(dp128
g2
(dp129
g2
(dp130
g2
(dp131
g2
(dp132
g2
(dp133
g2
(dp134
g2
(dp135
g2
g12
sg11
g15
sg13
I100
ssg11
g12
sg13
I5
ssg11
g14
sg13
I75
ssg11
g10
sg13
I91
ssg11
g14
sg13
I22
ssg11
g12
sg13
I80
ssg11
g15
sg13
I188
ssg11
g14
sg13
I118
sa(dp136
g2
(dp137
g2
(dp138
g2
(dp139
g2
(dp140
g2
(dp141
g2
(dp142
g2
(dp143
g2
g15
sg11
g14
sg13
I104
ssg11
g10
sg13
I55
ssg11
g12
sg13
I108
ssg11
g12
sg13
I175
ssg11
g15
sg13
I109
ssg11
g14
sg13
I120
ssg11
g12
sg13
I2
ssg11
g10
sg13
I86
sa(dp144
g2
(dp145
g2
(dp146
g2
(dp147
g2
(dp148
g2
(dp149
g2
(dp150
g2
(dp151
g2
g12
sg11
g15
sg13
I160
ssg11
g14
sg13
I62
ssg11
g12
sg13
I73
ssg11
g15
sg13
I192
ssg11
g10
sg13
I72
ssg11
g12
sg13
I63
ssg11
g14
sg13
I166
ssg11
g12
sg13
I58
sa(dp152
g2
(dp153
g2
(dp154
g2
(dp155
g2
(dp156
g2
(dp157
g2
(dp158
g2
(dp159
g2
g10
sg11
g15
sg13
I129
ssg11
g14
sg13
I47
ssg11
g12
sg13
I106
ssg11
g14
sg13
I95
ssg11
g12
sg13
I5
ssg11
g14
sg13
I87
ssg11
g10
sg13
I41
ssg11
g14
sg13
I92
sa(dp160
g2
(dp161
g2
(dp162
g2
(dp163
g2
(dp164
g2
(dp165
g2
(dp166
g2
(dp167
g2
g12
sg11
g10
sg13
I64
ssg11
g15
sg13
I125
ssg11
g12
sg13
I87
ssg11
g10
sg13
I27
ssg11
g14
sg13
I112
ssg11
g10
sg13
I98
ssg11
g12
sg13
I121
ssg11
g12
sg13
I97
sa.