(lp0
(dp1
S'data_3'
p2
S'0'
p3
sS'data_2'
p4
S'270'
p5
sS'data_1'
p6
(dp7
g2
S'90'
p8
sg4
(dp9
g2
g8
sg4
(dp10
g2
g5
sg4
(dp11
g2
g3
sg4
S'180'
p12
sg6
g3
sS'idx'
p13
I175
ssg6
(dp14
g2
g5
sg4
g8
sg6
g3
sg13
I158
ssg13
I160
ssg6
(dp15
g2
g5
sg4
(dp16
g2
g5
sg4
(dp17
g2
g3
sg4
(dp18
g2
g5
sg4
g3
sg6
g5
sg13
I177
ssg6
g12
sg13
I26
ssg6
g12
sg13
I25
ssg6
g5
sg13
I131
ssg13
I115
ssg6
(dp19
g2
(dp20
g2
g5
sg4
g12
sg6
g5
sg13
I66
ssg4
(dp21
g2
g5
sg4
(dp22
g2
g5
sg4
g3
sg6
g12
sg13
I89
ssg6
g8
sg13
I122
ssg6
(dp23
g2
g5
sg4
g3
sg6
(dp24
g2
g3
sg4
g8
sg6
(dp25
g2
(dp26
g2
g5
sg4
g12
sg6
g5
sg13
I191
ssg4
g8
sg6
(dp27
g2
g3
sg4
g5
sg6
(dp28
g2
g8
sg4
g12
sg6
(dp29
g2
g5
sg4
g3
sg6
(dp30
g2
g5
sg4
g12
sg6
g5
sg13
I73
ssg13
I153
ssg13
I21
ssg13
I14
ssg13
I179
ssg13
I24
ssg13
I92
ssg13
I120
ssg13
I113
ssg13
I57
sa(dp31
g2
g12
sg4
g3
sg6
(dp32
g2
g3
sg4
(dp33
g2
g8
sg4
g3
sg6
(dp34
g2
g12
sg4
g3
sg6
(dp35
g2
g12
sg4
g3
sg6
g8
sg13
I126
ssg13
I176
ssg13
I22
ssg6
(dp36
g2
(dp37
g2
(dp38
g2
(dp39
g2
g5
sg4
g12
sg6
g5
sg13
I85
ssg4
g8
sg6
g12
sg13
I72
ssg4
(dp40
g2
g5
sg4
g12
sg6
g5
sg13
I154
ssg6
(dp41
g2
g5
sg4
(dp42
g2
g5
sg4
(dp43
g2
g5
sg4
(dp44
g2
g5
sg4
g12
sg6
g5
sg13
I51
ssg6
g5
sg13
I127
ssg6
g5
sg13
I169
ssg6
g5
sg13
I10
ssg13
I147
ssg4
(dp45
g2
g5
sg4
(dp46
g2
g5
sg4
(dp47
g2
g12
sg4
g5
sg6
g12
sg13
I138
ssg6
g3
sg13
I146
ssg6
g5
sg13
I163
ssg6
(dp48
g2
g3
sg4
g8
sg6
(dp49
g2
g5
sg4
g8
sg6
(dp50
g2
g5
sg4
g3
sg6
(dp51
g2
g5
sg4
g8
sg6
(dp52
g2
g5
sg4
g12
sg6
g5
sg13
I36
ssg13
I76
ssg13
I160
ssg13
I87
ssg13
I26
ssg13
I149
ssg13
I43
ssg13
I105
sa(dp53
g2
g12
sg4
g3
sg6
(dp54
g2
g3
sg4
g8
sg6
(dp55
g2
(dp56
g2
g5
sg4
g12
sg6
g5
sg13
I120
ssg4
(dp57
g2
g5
sg4
(dp58
g2
g12
sg4
(dp59
g2
g8
sg4
(dp60
g2
g5
sg4
(dp61
g2
g5
sg4
(dp62
g2
g5
sg4
(dp63
g2
g5
sg4
(dp64
g2
g5
sg4
(dp65
g2
g5
sg4
(dp66
g2
g5
sg4
g12
sg6
(dp67
g2
g5
sg4
g8
sg6
g5
sg13
I15
ssg13
I183
ssg6
g5
sg13
I145
ssg6
g5
sg13
I154
ssg6
g3
sg13
I129
ssg6
g5
sg13
I147
ssg6
g5
sg13
I168
ssg6
g5
sg13
I144
ssg6
(dp68
g2
g5
sg4
(dp69
g2
g5
sg4
g8
sg6
g5
sg13
I122
ssg6
g5
sg13
I56
ssg13
I153
ssg6
(dp70
g2
g5
sg4
g8
sg6
g12
sg13
I13
ssg13
I171
ssg6
g5
sg13
I151
ssg6
(dp71
g2
g5
sg4
(dp72
g2
g5
sg4
(dp73
g2
g5
sg4
(dp74
g2
g5
sg4
g3
sg6
g12
sg13
I40
ssg6
g5
sg13
I49
ssg6
g12
sg13
I85
ssg6
g5
sg13
I81
ssg13
I148
ssg13
I43
ssg13
I107
sa(dp75
g2
g8
sg4
g3
sg6
(dp76
g2
g5
sg4
g12
sg6
(dp77
g2
g5
sg4
(dp78
g2
g3
sg4
g5
sg6
(dp79
g2
g3
sg4
(dp80
g2
g5
sg4
g12
sg6
g5
sg13
I77
ssg6
g5
sg13
I98
ssg13
I35
ssg6
(dp81
g2
(dp82
g2
(dp83
g2
(dp84
g2
(dp85
g2
g3
sg4
g12
sg6
g5
sg13
I29
ssg4
g8
sg6
g5
sg13
I15
ssg4
g8
sg6
g5
sg13
I45
ssg4
g12
sg6
g5
sg13
I20
ssg4
g5
sg6
(dp86
g2
g12
sg4
g8
sg6
(dp87
g2
(dp88
g2
g5
sg4
g8
sg6
g5
sg13
I70
ssg4
g12
sg6
(dp89
g2
g5
sg4
g3
sg6
(dp90
g2
g5
sg4
g12
sg6
(dp91
g2
g5
sg4
g8
sg6
(dp92
g2
g5
sg4
g8
sg6
(dp93
g2
g5
sg4
g3
sg6
(dp94
g2
g5
sg4
g3
sg6
(dp95
g2
g5
sg4
g5
sg6
(dp96
g2
g5
sg4
g12
sg6
g5
sg13
I56
ssg13
I49
ssg13
I137
ssg13
I6
ssg13
I128
ssg13
I153
ssg13
I162
ssg13
I27
ssg13
I142
ssg13
I134
ssg13
I18
ssg13
I53
ssg13
I127
ssg13
I85
sa(dp97
g2
g5
sg4
g3
sg6
(dp98
g2
g8
sg4
g12
sg6
(dp99
g2
g5
sg4
(dp100
g2
g5
sg4
g8
sg6
(dp101
g2
g3
sg4
(dp102
g2
g5
sg4
(dp103
g2
g5
sg4
(dp104
g2
g5
sg4
(dp105
g2
g5
sg4
(dp106
g2
g12
sg4
g3
sg6
g5
sg13
I9
ssg6
g5
sg13
I12
ssg6
g5
sg13
I36
ssg6
g5
sg13
I46
ssg6
g5
sg13
I18
ssg6
g5
sg13
I16
ssg13
I93
ssg6
(dp107
g2
g5
sg4
g3
sg6
(dp108
g2
(dp109
g2
g5
sg4
(dp110
g2
g5
sg4
(dp111
g2
g5
sg4
(dp112
g2
g5
sg4
g3
sg6
g12
sg13
I34
ssg6
g5
sg13
I137
ssg6
g5
sg13
I142
ssg6
g5
sg13
I125
ssg4
(dp113
g2
g3
sg4
g5
sg6
g12
sg13
I7
ssg6
(dp114
g2
g5
sg4
g8
sg6
(dp115
g2
g5
sg4
g8
sg6
(dp116
g2
g5
sg4
g8
sg6
(dp117
g2
g5
sg4
(dp118
g2
g5
sg4
g12
sg6
g3
sg13
I25
ssg6
g5
sg13
I184
ssg13
I88
ssg13
I48
ssg13
I100
ssg13
I148
ssg13
I63
ssg13
I45
ssg13
I112
ssg13
I81
sa(dp119
g2
g3
sg4
g8
sg6
(dp120
g2
g5
sg4
g3
sg6
(dp121
g2
g8
sg4
g12
sg6
(dp122
g2
g5
sg4
g12
sg6
(dp123
g2
g12
sg4
g8
sg6
(dp124
g2
g5
sg4
g12
sg6
(dp125
g2
g5
sg4
g3
sg6
(dp126
g2
g5
sg4
g8
sg6
(dp127
g2
g5
sg4
g3
sg6
(dp128
g2
g5
sg4
g3
sg6
(dp129
g2
g5
sg4
g12
sg6
(dp130
g2
g5
sg4
g5
sg6
(dp131
g2
g5
sg4
g5
sg6
(dp132
g2
g5
sg4
g3
sg6
(dp133
g2
g5
sg4
g8
sg6
(dp134
g2
g5
sg4
g5
sg6
(dp135
g2
g5
sg4
g5
sg6
(dp136
g2
g5
sg4
g5
sg6
(dp137
g2
g5
sg4
g5
sg6
(dp138
g2
g5
sg4
g5
sg6
(dp139
g2
g5
sg4
g5
sg6
(dp140
g2
g5
sg4
g5
sg6
g5
sg13
I183
ssg13
I190
ssg13
I9
ssg13
I135
ssg13
I157
ssg13
I112
ssg13
I55
ssg13
I79
ssg13
I133
ssg13
I26
ssg13
I104
ssg13
I96
ssg13
I67
ssg13
I94
ssg13
I160
ssg13
I36
ssg13
I182
ssg13
I185
ssg13
I58
ssg13
I166
ssg13
I57
ssg13
I84
sa(dp141
g2
g5
sg4
g3
sg6
(dp142
g2
g8
sg4
(dp143
g2
g5
sg4
g3
sg6
g12
sg13
I189
ssg6
(dp144
g2
(dp145
g2
g5
sg4
(dp146
g2
g5
sg4
(dp147
g2
g3
sg4
g5
sg6
g3
sg13
I29
ssg6
g5
sg13
I88
ssg6
g5
sg13
I82
ssg4
(dp148
g2
g3
sg4
g12
sg6
(dp149
g2
g5
sg4
g12
sg6
(dp150
g2
g5
sg4
g8
sg6
(dp151
g2
g5
sg4
g3
sg6
g5
sg13
I106
ssg13
I160
ssg13
I6
ssg13
I11
ssg6
(dp152
g2
g12
sg4
g5
sg6
(dp153
g2
g5
sg4
g12
sg6
(dp154
g2
g5
sg4
g8
sg6
(dp155
g2
g5
sg4
g3
sg6
(dp156
g2
g5
sg4
g3
sg6
(dp157
g2
g5
sg4
g8
sg6
(dp158
g2
g5
sg4
g12
sg6
(dp159
g2
g5
sg4
g12
sg6
(dp160
g2
g5
sg4
g5
sg6
(dp161
g2
g5
sg4
g5
sg6
(dp162
g2
g5
sg4
g3
sg6
g5
sg13
I135
ssg13
I157
ssg13
I25
ssg13
I54
ssg13
I116
ssg13
I126
ssg13
I14
ssg13
I109
ssg13
I36
ssg13
I19
ssg13
I178
ssg13
I60
ssg13
I190
ssg13
I75
sa(dp163
g2
g3
sg4
g12
sg6
(dp164
g2
g5
sg4
(dp165
g2
g5
sg4
(dp166
g2
(dp167
g2
g12
sg4
g3
sg6
g5
sg13
I188
ssg4
(dp168
g2
g5
sg4
(dp169
g2
g5
sg4
(dp170
g2
g12
sg4
(dp171
g2
g12
sg4
(dp172
g2
g5
sg4
(dp173
g2
(dp174
g2
(dp175
g2
g8
sg4
g5
sg6
g3
sg13
I142
ssg4
g8
sg6
g5
sg13
I67
ssg4
g5
sg6
g12
sg13
I20
ssg6
g5
sg13
I124
ssg6
g5
sg13
I150
ssg6
g12
sg13
I127
ssg6
g3
sg13
I120
ssg6
g5
sg13
I148
ssg6
g8
sg13
I144
ssg6
g8
sg13
I145
ssg6
(dp176
g2
g5
sg4
g3
sg6
(dp177
g2
g3
sg4
g8
sg6
(dp178
g2
(dp179
g2
(dp180
g2
g8
sg4
g12
sg6
g5
sg13
I94
ssg4
(dp181
g2
g8
sg4
g3
sg6
g5
sg13
I115
ssg6
g5
sg13
I43
ssg4
g12
sg6
(dp182
g2
g12
sg4
g3
sg6
(dp183
g2
g5
sg4
g3
sg6
(dp184
g2
g12
sg4
g8
sg6
g5
sg13
I180
ssg13
I39
ssg13
I93
ssg13
I116
ssg13
I7
ssg13
I151
ssg13
I149
ssg13
I84
sa(dp185
g2
g3
sg4
g5
sg6
(dp186
g2
g5
sg4
g12
sg6
(dp187
g2
g5
sg4
g3
sg6
(dp188
g2
g5
sg4
g12
sg6
(dp189
g2
g12
sg4
g5
sg6
(dp190
g2
g5
sg4
g8
sg6
(dp191
g2
g5
sg4
g12
sg6
(dp192
g2
g5
sg4
g8
sg6
(dp193
g2
g5
sg4
g3
sg6
(dp194
g2
g5
sg4
g3
sg6
(dp195
g2
g5
sg4
g5
sg6
(dp196
g2
g5
sg4
g5
sg6
(dp197
g2
g5
sg4
g5
sg6
(dp198
g2
g5
sg4
g5
sg6
(dp199
g2
g5
sg4
g5
sg6
(dp200
g2
g5
sg4
g5
sg6
(dp201
g2
g5
sg4
g5
sg6
(dp202
g2
g5
sg4
g5
sg6
(dp203
g2
g5
sg4
g5
sg6
(dp204
g2
g5
sg4
g5
sg6
(dp205
g2
g5
sg4
g5
sg6
(dp206
g2
g5
sg4
g5
sg6
g5
sg13
I9
ssg13
I31
ssg13
I188
ssg13
I33
ssg13
I12
ssg13
I116
ssg13
I163
ssg13
I16
ssg13
I80
ssg13
I7
ssg13
I106
ssg13
I28
ssg13
I126
ssg13
I8
ssg13
I86
ssg13
I156
ssg13
I135
ssg13
I77
ssg13
I146
ssg13
I34
ssg13
I123
ssg13
I85
sa(dp207
g2
g5
sg4
g3
sg6
(dp208
g2
g8
sg4
(dp209
g2
g8
sg4
g12
sg6
(dp210
g2
g5
sg4
g8
sg6
(dp211
g2
g5
sg4
g12
sg6
(dp212
g2
g5
sg4
g12
sg6
g5
sg13
I131
ssg13
I2
ssg13
I61
ssg13
I139
ssg6
(dp213
g2
(dp214
g2
(dp215
g2
g8
sg4
(dp216
g2
(dp217
g2
g5
sg4
g12
sg6
g8
sg13
I127
ssg4
g8
sg6
g5
sg13
I185
ssg6
g5
sg13
I183
ssg4
(dp218
g2
g3
sg4
g5
sg6
g8
sg13
I176
ssg6
g5
sg13
I164
ssg4
(dp219
g2
g12
sg4
(dp220
g2
g5
sg4
(dp221
g2
(dp222
g2
g5
sg4
g8
sg6
g3
sg13
I133
ssg4
g5
sg6
g12
sg13
I20
ssg6
g5
sg13
I4
ssg6
g5
sg13
I181
ssg6
(dp223
g2
g3
sg4
g8
sg6
(dp224
g2
g5
sg4
g12
sg6
(dp225
g2
g5
sg4
g3
sg6
(dp226
g2
g5
sg4
g8
sg6
(dp227
g2
g5
sg4
(dp228
g2
g5
sg4
g12
sg6
g3
sg13
I105
ssg6
g5
sg13
I92
ssg13
I151
ssg13
I26
ssg13
I182
ssg13
I23
ssg13
I191
ssg13
I108
ssg13
I82
sa(dp229
g2
g8
sg4
g5
sg6
(dp230
g2
g8
sg4
(dp231
g2
g12
sg4
(dp232
g2
g8
sg4
(dp233
g2
g5
sg4
g3
sg6
(dp234
g2
g5
sg4
g12
sg6
g8
sg13
I55
ssg13
I27
ssg6
(dp235
g2
g5
sg4
g3
sg6
g5
sg13
I60
ssg13
I118
ssg6
(dp236
g2
(dp237
g2
g3
sg4
g12
sg6
g3
sg13
I37
ssg4
g12
sg6
g5
sg13
I30
ssg13
I162
ssg6
(dp238
g2
g5
sg4
(dp239
g2
g5
sg4
(dp240
g2
g5
sg4
(dp241
g2
(dp242
g2
g5
sg4
g8
sg6
g12
sg13
I5
ssg4
(dp243
g2
g5
sg4
(dp244
g2
g5
sg4
(dp245
g2
g5
sg4
(dp246
g2
g5
sg4
g3
sg6
g12
sg13
I78
ssg6
g5
sg13
I168
ssg6
g8
sg13
I155
ssg6
g3
sg13
I172
ssg6
g5
sg13
I174
ssg6
g5
sg13
I145
ssg6
g5
sg13
I148
ssg6
(dp247
g2
g3
sg4
(dp248
g2
g12
sg4
(dp249
g2
g12
sg4
g8
sg6
g3
sg13
I158
ssg6
g5
sg13
I68
ssg6
(dp250
g2
g5
sg4
g3
sg6
g5
sg13
I42
ssg13
I65
ssg13
I149
ssg13
I141
ssg13
I81
sa(dp251
g2
g8
sg4
g3
sg6
(dp252
g2
g5
sg4
(dp253
g2
g12
sg4
g5
sg6
(dp254
g2
g5
sg4
g12
sg6
(dp255
g2
g5
sg4
(dp256
g2
g12
sg4
g5
sg6
g8
sg13
I153
ssg6
g5
sg13
I145
ssg13
I109
ssg13
I102
ssg6
(dp257
g2
(dp258
g2
g5
sg4
g12
sg6
g3
sg13
I173
ssg4
(dp259
g2
(dp260
g2
g5
sg4
g8
sg6
g3
sg13
I154
ssg4
(dp261
g2
g5
sg4
(dp262
g2
g5
sg4
(dp263
g2
g5
sg4
(dp264
g2
g5
sg4
(dp265
g2
g5
sg4
(dp266
g2
g8
sg4
g5
sg6
g8
sg13
I174
ssg6
(dp267
g2
g5
sg4
(dp268
g2
g5
sg4
g12
sg6
g3
sg13
I63
ssg6
g5
sg13
I1
ssg13
I91
ssg6
g5
sg13
I190
ssg6
g3
sg13
I112
ssg6
g5
sg13
I136
ssg6
(dp269
g2
g5
sg4
g12
sg6
g3
sg13
I57
ssg13
I139
ssg6
g5
sg13
I67
ssg6
(dp270
g2
g12
sg4
g5
sg6
(dp271
g2
g8
sg4
g5
sg6
(dp272
g2
g5
sg4
g8
sg6
g3
sg13
I96
ssg13
I116
ssg13
I128
ssg13
I163
ssg13
I124
ssg13
I84
sa(dp273
g2
g8
sg4
g12
sg6
(dp274
g2
g5
sg4
g12
sg6
(dp275
g2
g5
sg4
g8
sg6
(dp276
g2
g5
sg4
g3
sg6
(dp277
g2
g8
sg4
g5
sg6
(dp278
g2
g5
sg4
g8
sg6
(dp279
g2
g5
sg4
g3
sg6
(dp280
g2
g12
sg4
g5
sg6
(dp281
g2
g5
sg4
g3
sg6
(dp282
g2
g5
sg4
g5
sg6
(dp283
g2
g5
sg4
g5
sg6
(dp284
g2
g5
sg4
g5
sg6
(dp285
g2
g5
sg4
g5
sg6
(dp286
g2
g5
sg4
g5
sg6
(dp287
g2
g5
sg4
g5
sg6
(dp288
g2
g5
sg4
g5
sg6
(dp289
g2
g5
sg4
g5
sg6
(dp290
g2
g5
sg4
g5
sg6
(dp291
g2
g5
sg4
g5
sg6
(dp292
g2
g5
sg4
g5
sg6
(dp293
g2
g5
sg4
g5
sg6
(dp294
g2
g5
sg4
g5
sg6
g5
sg13
I52
ssg13
I144
ssg13
I106
ssg13
I191
ssg13
I140
ssg13
I67
ssg13
I134
ssg13
I8
ssg13
I17
ssg13
I126
ssg13
I6
ssg13
I86
ssg13
I64
ssg13
I94
ssg13
I165
ssg13
I66
ssg13
I33
ssg13
I183
ssg13
I150
ssg13
I92
ssg13
I151
ssg13
I91
sa(dp295
g2
g5
sg4
g8
sg6
(dp296
g2
g12
sg4
(dp297
g2
g12
sg4
(dp298
g2
g8
sg4
(dp299
g2
g5
sg4
(dp300
g2
g8
sg4
(dp301
g2
g5
sg4
(dp302
g2
g8
sg4
(dp303
g2
g5
sg4
(dp304
g2
g5
sg4
(dp305
g2
g3
sg4
g12
sg6
g5
sg13
I150
ssg6
g5
sg13
I166
ssg6
g5
sg13
I169
ssg6
g5
sg13
I172
ssg6
g5
sg13
I178
ssg6
(dp306
g2
g5
sg4
g8
sg6
g5
sg13
I3
ssg13
I162
ssg6
(dp307
g2
g5
sg4
g8
sg6
g5
sg13
I69
ssg13
I157
ssg6
(dp308
g2
g5
sg4
g8
sg6
g12
sg13
I46
ssg13
I159
ssg6
(dp309
g2
g5
sg4
g3
sg6
g12
sg13
I180
ssg13
I160
ssg6
(dp310
g2
(dp311
g2
g5
sg4
g3
sg6
g5
sg13
I135
ssg4
g8
sg6
(dp312
g2
g5
sg4
g12
sg6
(dp313
g2
g5
sg4
g8
sg6
(dp314
g2
g5
sg4
g3
sg6
(dp315
g2
g8
sg4
g5
sg6
(dp316
g2
g5
sg4
g3
sg6
g5
sg13
I133
ssg13
I95
ssg13
I63
ssg13
I57
ssg13
I18
ssg13
I9
ssg13
I184
ssg13
I55
sa(dp317
g2
g12
sg4
g8
sg6
(dp318
g2
g5
sg4
(dp319
g2
g3
sg4
(dp320
g2
g5
sg4
(dp321
g2
g5
sg4
(dp322
g2
g5
sg4
g3
sg6
g5
sg13
I30
ssg6
(dp323
g2
g5
sg4
g3
sg6
g5
sg13
I46
ssg13
I52
ssg6
(dp324
g2
g5
sg4
(dp325
g2
g5
sg4
(dp326
g2
g8
sg4
g12
sg6
g5
sg13
I95
ssg6
g5
sg13
I159
ssg6
g5
sg13
I156
ssg13
I28
ssg6
(dp327
g2
g3
sg4
g8
sg6
g12
sg13
I165
ssg13
I27
ssg6
(dp328
g2
(dp329
g2
g8
sg4
(dp330
g2
g3
sg4
(dp331
g2
g8
sg4
g3
sg6
g5
sg13
I65
ssg6
g3
sg13
I6
ssg6
g8
sg13
I34
ssg4
(dp332
g2
g5
sg4
(dp333
g2
g5
sg4
(dp334
g2
g5
sg4
(dp335
g2
g8
sg4
(dp336
g2
g8
sg4
g3
sg6
g5
sg13
I140
ssg6
g5
sg13
I143
ssg6
g5
sg13
I139
ssg6
g12
sg13
I162
ssg6
g5
sg13
I66
ssg6
(dp337
g2
g5
sg4
g8
sg6
(dp338
g2
g12
sg4
g5
sg6
g3
sg13
I172
ssg13
I38
ssg13
I47
ssg13
I51
ssg13
I130
sa(dp339
g2
g12
sg4
g8
sg6
(dp340
g2
g3
sg4
(dp341
g2
g5
sg4
(dp342
g2
g5
sg4
(dp343
g2
g5
sg4
(dp344
g2
g5
sg4
(dp345
g2
g5
sg4
(dp346
g2
g5
sg4
(dp347
g2
g5
sg4
(dp348
g2
g5
sg4
g3
sg6
g5
sg13
I33
ssg6
g5
sg13
I3
ssg6
g5
sg13
I27
ssg6
g8
sg13
I147
ssg6
g5
sg13
I48
ssg6
g5
sg13
I0
ssg6
g5
sg13
I30
ssg6
(dp349
g2
g5
sg4
g8
sg6
g5
sg13
I189
ssg13
I24
ssg6
(dp350
g2
g5
sg4
g8
sg6
(dp351
g2
(dp352
g2
g12
sg4
g5
sg6
g12
sg13
I169
ssg4
g5
sg6
(dp353
g2
g5
sg4
g3
sg6
(dp354
g2
(dp355
g2
g8
sg4
g5
sg6
g12
sg13
I95
ssg4
g3
sg6
(dp356
g2
g5
sg4
g8
sg6
(dp357
g2
(dp358
g2
g5
sg4
g8
sg6
g3
sg13
I105
ssg4
g12
sg6
(dp359
g2
g5
sg4
g3
sg6
(dp360
g2
g5
sg4
g12
sg6
g5
sg13
I42
ssg13
I59
ssg13
I126
ssg13
I55
ssg13
I167
ssg13
I29
ssg13
I97
ssg13
I110
ssg13
I4
ssg13
I109
sa(dp361
g2
g3
sg4
g5
sg6
(dp362
g2
g3
sg4
g12
sg6
(dp363
g2
g5
sg4
(dp364
g2
g12
sg4
(dp365
g2
g5
sg4
(dp366
g2
g5
sg4
(dp367
g2
g8
sg4
(dp368
g2
g3
sg4
(dp369
g2
g5
sg4
(dp370
g2
g5
sg4
(dp371
g2
g5
sg4
(dp372
g2
g8
sg4
(dp373
g2
g5
sg4
(dp374
g2
g5
sg4
(dp375
g2
g5
sg4
(dp376
g2
g5
sg4
(dp377
g2
g5
sg4
g12
sg6
g5
sg13
I10
ssg6
g5
sg13
I168
ssg6
g5
sg13
I188
ssg6
g5
sg13
I151
ssg6
g5
sg13
I172
ssg6
g5
sg13
I68
ssg6
g5
sg13
I23
ssg6
g5
sg13
I101
ssg6
g5
sg13
I158
ssg6
g5
sg13
I32
ssg6
g5
sg13
I143
ssg6
g12
sg13
I137
ssg6
g5
sg13
I131
ssg6
(dp378
g2
g5
sg4
g3
sg6
g5
sg13
I39
ssg13
I161
ssg6
(dp379
g2
g5
sg4
(dp380
g2
g8
sg4
(dp381
g2
g5
sg4
g12
sg6
g3
sg13
I135
ssg6
g3
sg13
I86
ssg6
(dp382
g2
g5
sg4
g12
sg6
g5
sg13
I11
ssg13
I85
ssg13
I134
ssg13
I102
ssg13
I57
sa(dp383
g2
g5
sg4
g3
sg6
(dp384
g2
g8
sg4
g12
sg6
(dp385
g2
g5
sg4
g3
sg6
(dp386
g2
g3
sg4
g12
sg6
(dp387
g2
g8
sg4
g3
sg6
(dp388
g2
g5
sg4
g12
sg6
(dp389
g2
g5
sg4
g3
sg6
(dp390
g2
g5
sg4
g8
sg6
(dp391
g2
g5
sg4
g5
sg6
(dp392
g2
g5
sg4
g5
sg6
(dp393
g2
g5
sg4
g5
sg6
(dp394
g2
g5
sg4
g5
sg6
(dp395
g2
g5
sg4
g5
sg6
(dp396
g2
g5
sg4
g5
sg6
(dp397
g2
g5
sg4
g5
sg6
(dp398
g2
g5
sg4
g5
sg6
(dp399
g2
g5
sg4
g5
sg6
(dp400
g2
g5
sg4
g5
sg6
(dp401
g2
g5
sg4
g5
sg6
(dp402
g2
g5
sg4
g5
sg6
(dp403
g2
g5
sg4
g5
sg6
(dp404
g2
g5
sg4
g5
sg6
g5
sg13
I152
ssg13
I120
ssg13
I4
ssg13
I46
ssg13
I159
ssg13
I27
ssg13
I126
ssg13
I180
ssg13
I183
ssg13
I155
ssg13
I97
ssg13
I61
ssg13
I137
ssg13
I132
ssg13
I56
ssg13
I161
ssg13
I47
ssg13
I117
ssg13
I187
ssg13
I37
ssg13
I114
ssg13
I76
sa(dp405
g2
g5
sg4
g8
sg6
(dp406
g2
g12
sg4
(dp407
g2
g12
sg4
(dp408
g2
g5
sg4
(dp409
g2
g3
sg4
(dp410
g2
g8
sg4
g12
sg6
g5
sg13
I156
ssg6
g3
sg13
I159
ssg6
(dp411
g2
g5
sg4
(dp412
g2
g5
sg4
(dp413
g2
g5
sg4
g3
sg6
g8
sg13
I120
ssg6
g5
sg13
I166
ssg6
g5
sg13
I191
ssg13
I181
ssg6
(dp414
g2
g5
sg4
g8
sg6
g12
sg13
I76
ssg13
I183
ssg6
(dp415
g2
g5
sg4
(dp416
g2
g5
sg4
(dp417
g2
g5
sg4
(dp418
g2
g12
sg4
(dp419
g2
g5
sg4
(dp420
g2
g5
sg4
g3
sg6
g5
sg13
I113
ssg6
g5
sg13
I106
ssg6
g5
sg13
I108
ssg6
g8
sg13
I112
ssg6
(dp421
g2
g5
sg4
g8
sg6
g12
sg13
I167
ssg13
I102
ssg6
(dp422
g2
(dp423
g2
g5
sg4
(dp424
g2
(dp425
g2
g5
sg4
g8
sg6
g5
sg13
I57
ssg4
g3
sg6
g5
sg13
I1
ssg6
g5
sg13
I63
ssg4
g5
sg6
(dp426
g2
g8
sg4
g12
sg6
g8
sg13
I54
ssg13
I5
ssg13
I115
ssg13
I184
ssg13
I81
sa(dp427
g2
g12
sg4
g5
sg6
(dp428
g2
g5
sg4
(dp429
g2
g5
sg4
(dp430
g2
g12
sg4
(dp431
g2
g5
sg4
g3
sg6
g5
sg13
I55
ssg6
(dp432
g2
g5
sg4
g8
sg6
g5
sg13
I113
ssg13
I54
ssg6
(dp433
g2
(dp434
g2
g5
sg4
(dp435
g2
g3
sg4
g8
sg6
g5
sg13
I44
ssg6
g5
sg13
I60
ssg4
(dp436
g2
g12
sg4
g3
sg6
g12
sg13
I171
ssg6
g5
sg13
I13
ssg13
I76
ssg6
(dp437
g2
(dp438
g2
(dp439
g2
g12
sg4
(dp440
g2
g12
sg4
g3
sg6
g5
sg13
I177
ssg6
g5
sg13
I155
ssg4
(dp441
g2
g5
sg4
g12
sg6
g5
sg13
I88
ssg6
g12
sg13
I23
ssg4
(dp442
g2
(dp443
g2
g5
sg4
g3
sg6
g5
sg13
I100
ssg4
(dp444
g2
g5
sg4
g8
sg6
g5
sg13
I126
ssg6
g12
sg13
I186
ssg6
(dp445
g2
g5
sg4
(dp446
g2
g5
sg4
(dp447
g2
g3
sg4
g12
sg6
g3
sg13
I8
ssg6
g8
sg13
I32
ssg6
(dp448
g2
g5
sg4
g12
sg6
g8
sg13
I150
ssg13
I63
ssg13
I181
ssg13
I52
ssg13
I108
sa(dp449
g2
g5
sg4
g3
sg6
(dp450
g2
g12
sg4
g3
sg6
(dp451
g2
g5
sg4
g12
sg6
(dp452
g2
g8
sg4
(dp453
g2
g8
sg4
(dp454
g2
g5
sg4
(dp455
g2
g5
sg4
(dp456
g2
g5
sg4
(dp457
g2
g5
sg4
(dp458
g2
g5
sg4
(dp459
g2
g3
sg4
(dp460
g2
g5
sg4
(dp461
g2
g5
sg4
(dp462
g2
g5
sg4
(dp463
g2
g5
sg4
(dp464
g2
g5
sg4
(dp465
g2
g5
sg4
g12
sg6
g5
sg13
I5
ssg6
g5
sg13
I27
ssg6
g5
sg13
I30
ssg6
g5
sg13
I39
ssg6
g5
sg13
I3
ssg6
g5
sg13
I38
ssg6
g3
sg13
I44
ssg6
g5
sg13
I59
ssg6
g5
sg13
I25
ssg6
g5
sg13
I24
ssg6
g5
sg13
I6
ssg6
g8
sg13
I58
ssg6
(dp466
g2
g5
sg4
g8
sg6
g12
sg13
I178
ssg13
I21
ssg6
(dp467
g2
g5
sg4
g3
sg6
(dp468
g2
g5
sg4
g8
sg6
(dp469
g2
g5
sg4
g8
sg6
(dp470
g2
g5
sg4
g3
sg6
g5
sg13
I100
ssg13
I10
ssg13
I106
ssg13
I104
ssg13
I15
ssg13
I76
ssg13
I135
ssg13
I81
sa(dp471
g2
g5
sg4
g3
sg6
(dp472
g2
g8
sg4
(dp473
g2
g12
sg4
(dp474
g2
g12
sg4
g8
sg6
g12
sg13
I139
ssg6
(dp475
g2
(dp476
g2
g5
sg4
g12
sg6
g5
sg13
I162
ssg4
(dp477
g2
(dp478
g2
g3
sg4
g12
sg6
g3
sg13
I31
ssg4
g5
sg6
g12
sg13
I14
ssg6
g5
sg13
I132
ssg13
I163
ssg6
(dp479
g2
(dp480
g2
g8
sg4
g5
sg6
g12
sg13
I117
ssg4
g5
sg6
(dp481
g2
(dp482
g2
(dp483
g2
g5
sg4
(dp484
g2
(dp485
g2
g5
sg4
g3
sg6
g5
sg13
I186
ssg4
g3
sg6
g5
sg13
I7
ssg6
g5
sg13
I75
ssg4
(dp486
g2
g5
sg4
(dp487
g2
g3
sg4
g5
sg6
g3
sg13
I118
ssg6
g5
sg13
I38
ssg6
g5
sg13
I25
ssg4
(dp488
g2
g12
sg4
g5
sg6
g3
sg13
I125
ssg6
(dp489
g2
g5
sg4
g8
sg6
(dp490
g2
g12
sg4
g5
sg6
(dp491
g2
g5
sg4
(dp492
g2
g5
sg4
g3
sg6
g8
sg13
I127
ssg6
g12
sg13
I92
ssg13
I72
ssg13
I111
ssg13
I2
ssg13
I160
ssg13
I136
ssg13
I82
sa(dp493
g2
g8
sg4
g12
sg6
(dp494
g2
g5
sg4
(dp495
g2
g5
sg4
g3
sg6
(dp496
g2
g5
sg4
(dp497
g2
g5
sg4
(dp498
g2
g5
sg4
(dp499
g2
g5
sg4
(dp500
g2
g5
sg4
(dp501
g2
g5
sg4
g12
sg6
g5
sg13
I122
ssg6
g5
sg13
I132
ssg6
g5
sg13
I108
ssg6
g5
sg13
I123
ssg6
g5
sg13
I106
ssg6
g3
sg13
I78
ssg13
I55
ssg6
(dp502
g2
(dp503
g2
g12
sg4
(dp504
g2
g5
sg4
(dp505
g2
g5
sg4
(dp506
g2
g5
sg4
(dp507
g2
g5
sg4
(dp508
g2
g5
sg4
g12
sg6
g5
sg13
I121
ssg6
g5
sg13
I124
ssg6
g5
sg13
I127
ssg6
g5
sg13
I125
ssg6
g5
sg13
I130
ssg6
g12
sg13
I129
ssg4
(dp509
g2
g5
sg4
(dp510
g2
g5
sg4
(dp511
g2
g12
sg4
(dp512
g2
g5
sg4
(dp513
g2
g3
sg4
g5
sg6
g8
sg13
I81
ssg6
g5
sg13
I180
ssg6
g5
sg13
I179
ssg6
g5
sg13
I181
ssg6
g3
sg13
I175
ssg6
(dp514
g2
g5
sg4
g12
sg6
g8
sg13
I83
ssg13
I152
ssg13
I54
ssg13
I111
sa(dp515
g2
g5
sg4
g12
sg6
(dp516
g2
g8
sg4
(dp517
g2
g3
sg4
g5
sg6
(dp518
g2
g3
sg4
(dp519
g2
g5
sg4
(dp520
g2
g5
sg4
g12
sg6
g5
sg13
I42
ssg6
g5
sg13
I33
ssg6
g5
sg13
I39
ssg13
I70
ssg6
(dp521
g2
(dp522
g2
g5
sg4
g3
sg6
g5
sg13
I18
ssg4
(dp523
g2
g3
sg4
(dp524
g2
(dp525
g2
g5
sg4
g3
sg6
g5
sg13
I16
ssg4
(dp526
g2
g5
sg4
(dp527
g2
(dp528
g2
g5
sg4
g12
sg6
g5
sg13
I36
ssg4
g8
sg6
g12
sg13
I158
ssg6
g3
sg13
I137
ssg6
(dp529
g2
g5
sg4
g12
sg6
g3
sg13
I150
ssg13
I5
ssg6
(dp530
g2
g5
sg4
g8
sg6
g12
sg13
I99
ssg13
I7
ssg6
(dp531
g2
(dp532
g2
g8
sg4
g5
sg6
g12
sg13
I68
ssg4
g3
sg6
(dp533
g2
g8
sg4
g3
sg6
(dp534
g2
g5
sg4
(dp535
g2
g8
sg4
(dp536
g2
g5
sg4
g8
sg6
g5
sg13
I48
ssg6
g8
sg13
I100
ssg6
g3
sg13
I72
ssg13
I159
ssg13
I182
ssg13
I31
ssg13
I45
ssg13
I105
sa(dp537
g2
g3
sg4
g5
sg6
(dp538
g2
g8
sg4
(dp539
g2
g12
sg4
g3
sg6
(dp540
g2
g5
sg4
(dp541
g2
g5
sg4
(dp542
g2
g5
sg4
g8
sg6
g5
sg13
I90
ssg6
g5
sg13
I138
ssg6
(dp543
g2
g5
sg4
g3
sg6
g12
sg13
I151
ssg13
I50
ssg13
I163
ssg6
(dp544
g2
g12
sg4
g3
sg6
(dp545
g2
(dp546
g2
(dp547
g2
(dp548
g2
g5
sg4
g3
sg6
g5
sg13
I76
ssg4
(dp549
g2
g5
sg4
(dp550
g2
(dp551
g2
g5
sg4
g3
sg6
g5
sg13
I57
ssg4
g3
sg6
g5
sg13
I25
ssg6
g5
sg13
I51
ssg6
g5
sg13
I52
ssg4
g3
sg6
g5
sg13
I24
ssg4
(dp552
g2
g5
sg4
g12
sg6
(dp553
g2
g5
sg4
(dp554
g2
g5
sg4
g12
sg6
g8
sg13
I154
ssg6
g5
sg13
I6
ssg13
I169
ssg6
(dp555
g2
g5
sg4
g12
sg6
(dp556
g2
g5
sg4
(dp557
g2
g5
sg4
(dp558
g2
g8
sg4
g12
sg6
g3
sg13
I15
ssg6
g12
sg13
I36
ssg6
g3
sg13
I17
ssg13
I145
ssg13
I1
ssg13
I190
ssg13
I139
ssg13
I81
sa(dp559
g2
g3
sg4
g8
sg6
(dp560
g2
g5
sg4
(dp561
g2
g5
sg4
(dp562
g2
g8
sg4
(dp563
g2
g8
sg4
(dp564
g2
g5
sg4
(dp565
g2
g5
sg4
(dp566
g2
g5
sg4
(dp567
g2
g5
sg4
g12
sg6
g5
sg13
I163
ssg6
g5
sg13
I99
ssg6
(dp568
g2
g12
sg4
g8
sg6
g5
sg13
I182
ssg13
I108
ssg6
(dp569
g2
g5
sg4
g3
sg6
g12
sg13
I1
ssg13
I187
ssg6
(dp570
g2
g5
sg4
(dp571
g2
g5
sg4
(dp572
g2
g3
sg4
g5
sg6
g3
sg13
I115
ssg6
g5
sg13
I124
ssg6
g5
sg13
I90
ssg13
I160
ssg6
g5
sg13
I154
ssg6
(dp573
g2
g5
sg4
g3
sg6
g5
sg13
I144
ssg13
I151
ssg6
(dp574
g2
g5
sg4
(dp575
g2
(dp576
g2
g3
sg4
g5
sg6
g12
sg13
I5
ssg4
(dp577
g2
g3
sg4
g8
sg6
(dp578
g2
g8
sg4
g5
sg6
g12
sg13
I94
ssg13
I76
ssg6
g5
sg13
I117
ssg6
(dp579
g2
g5
sg4
g12
sg6
(dp580
g2
g5
sg4
g3
sg6
g5
sg13
I9
ssg13
I167
ssg13
I93
ssg13
I175
ssg13
I60
sa(dp581
g2
g12
sg4
g5
sg6
(dp582
g2
g5
sg4
g3
sg6
(dp583
g2
g8
sg4
(dp584
g2
g5
sg4
g12
sg6
(dp585
g2
g3
sg4
(dp586
g2
g5
sg4
(dp587
g2
g5
sg4
(dp588
g2
g5
sg4
(dp589
g2
g5
sg4
(dp590
g2
g5
sg4
(dp591
g2
g5
sg4
(dp592
g2
g5
sg4
g3
sg6
g5
sg13
I165
ssg6
g5
sg13
I163
ssg6
g8
sg13
I66
ssg6
g5
sg13
I70
ssg6
g12
sg13
I68
ssg6
g5
sg13
I164
ssg6
g5
sg13
I187
ssg6
(dp593
g2
g8
sg4
g12
sg6
(dp594
g2
g5
sg4
g3
sg6
g5
sg13
I132
ssg13
I170
ssg13
I166
ssg13
I78
ssg6
(dp595
g2
g5
sg4
g8
sg6
(dp596
g2
g12
sg4
g8
sg6
(dp597
g2
g5
sg4
g8
sg6
(dp598
g2
g5
sg4
g12
sg6
(dp599
g2
g5
sg4
g3
sg6
(dp600
g2
g3
sg4
g8
sg6
(dp601
g2
g5
sg4
g3
sg6
(dp602
g2
g5
sg4
g12
sg6
g5
sg13
I137
ssg13
I1
ssg13
I105
ssg13
I90
ssg13
I53
ssg13
I119
ssg13
I167
ssg13
I83
ssg13
I162
ssg13
I54
ssg13
I109
sa(dp603
g2
g5
sg4
g8
sg6
(dp604
g2
g3
sg4
g5
sg6
(dp605
g2
g12
sg4
(dp606
g2
g5
sg4
(dp607
g2
g8
sg4
(dp608
g2
g5
sg4
(dp609
g2
g5
sg4
(dp610
g2
g3
sg4
(dp611
g2
g5
sg4
(dp612
g2
g5
sg4
(dp613
g2
g5
sg4
(dp614
g2
g5
sg4
(dp615
g2
g5
sg4
(dp616
g2
g8
sg4
g12
sg6
g5
sg13
I191
ssg6
g5
sg13
I112
ssg6
g5
sg13
I118
ssg6
g5
sg13
I154
ssg6
g5
sg13
I190
ssg6
g5
sg13
I182
ssg6
g5
sg13
I179
ssg6
g5
sg13
I130
ssg6
g5
sg13
I115
ssg6
g5
sg13
I119
ssg6
g5
sg13
I157
ssg6
(dp617
g2
g5
sg4
g3
sg6
(dp618
g2
g3
sg4
g12
sg6
(dp619
g2
g5
sg4
g12
sg6
(dp620
g2
g5
sg4
g8
sg6
(dp621
g2
g8
sg4
g3
sg6
(dp622
g2
g5
sg4
g8
sg6
(dp623
g2
g5
sg4
g5
sg6
(dp624
g2
g5
sg4
g12
sg6
g5
sg13
I78
ssg13
I100
ssg13
I166
ssg13
I139
ssg13
I65
ssg13
I132
ssg13
I82
ssg13
I12
ssg13
I158
ssg13
I33
ssg13
I105
sa(dp625
g2
g12
sg4
g8
sg6
(dp626
g2
g5
sg4
(dp627
g2
g8
sg4
(dp628
g2
g5
sg4
(dp629
g2
g5
sg4
g12
sg6
g5
sg13
I120
ssg6
(dp630
g2
(dp631
g2
g5
sg4
(dp632
g2
g3
sg4
g12
sg6
g5
sg13
I84
ssg6
g5
sg13
I36
ssg4
g5
sg6
g8
sg13
I10
ssg13
I138
ssg6
(dp633
g2
g5
sg4
(dp634
g2
g3
sg4
g5
sg6
g12
sg13
I86
ssg6
g5
sg13
I181
ssg13
I166
ssg6
(dp635
g2
g3
sg4
(dp636
g2
g3
sg4
(dp637
g2
g3
sg4
(dp638
g2
g5
sg4
g3
sg6
(dp639
g2
g5
sg4
g12
sg6
g5
sg13
I147
ssg13
I2
ssg6
g8
sg13
I7
ssg6
(dp640
g2
g5
sg4
g8
sg6
g3
sg13
I118
ssg13
I6
ssg6
(dp641
g2
g5
sg4
(dp642
g2
g5
sg4
(dp643
g2
(dp644
g2
g5
sg4
g8
sg6
g5
sg13
I49
ssg4
g3
sg6
g8
sg13
I74
ssg6
(dp645
g2
g5
sg4
g3
sg6
g5
sg13
I64
ssg13
I41
ssg6
(dp646
g2
g5
sg4
g8
sg6
g5
sg13
I22
ssg13
I57
ssg13
I34
ssg13
I150
ssg13
I109
sa(dp647
g2
g8
sg4
g3
sg6
(dp648
g2
g3
sg4
(dp649
g2
g5
sg4
g3
sg6
(dp650
g2
g5
sg4
g12
sg6
g5
sg13
I58
ssg13
I29
ssg6
(dp651
g2
(dp652
g2
(dp653
g2
(dp654
g2
(dp655
g2
(dp656
g2
(dp657
g2
(dp658
g2
g5
sg4
g12
sg6
g5
sg13
I95
ssg4
g5
sg6
g5
sg13
I176
ssg4
g5
sg6
g5
sg13
I172
ssg4
g12
sg6
g5
sg13
I97
ssg4
g12
sg6
g5
sg13
I124
ssg4
g12
sg6
g5
sg13
I171
ssg4
(dp659
g2
g5
sg4
g3
sg6
g5
sg13
I40
ssg6
g5
sg13
I173
ssg4
(dp660
g2
g5
sg4
(dp661
g2
(dp662
g2
(dp663
g2
g5
sg4
g8
sg6
g12
sg13
I121
ssg4
g12
sg6
g5
sg13
I147
ssg4
(dp664
g2
g5
sg4
g3
sg6
g8
sg13
I170
ssg6
g5
sg13
I144
ssg6
(dp665
g2
g5
sg4
g8
sg6
g5
sg13
I179
ssg13
I148
ssg6
(dp666
g2
g8
sg4
(dp667
g2
g5
sg4
(dp668
g2
g3
sg4
g8
sg6
g12
sg13
I162
ssg6
g5
sg13
I69
ssg6
g12
sg13
I190
ssg13
I149
ssg13
I57
ssg13
I87
sa(dp669
g2
g12
sg4
g8
sg6
(dp670
g2
g3
sg4
(dp671
g2
g12
sg4
g5
sg6
(dp672
g2
g5
sg4
g8
sg6
g3
sg13
I58
ssg13
I139
ssg6
(dp673
g2
(dp674
g2
g5
sg4
g12
sg6
g8
sg13
I102
ssg4
(dp675
g2
(dp676
g2
g12
sg4
g5
sg6
g8
sg13
I110
ssg4
(dp677
g2
g12
sg4
(dp678
g2
g5
sg4
(dp679
g2
g3
sg4
(dp680
g2
g5
sg4
(dp681
g2
g5
sg4
(dp682
g2
g3
sg4
g12
sg6
g8
sg13
I13
ssg6
g12
sg13
I154
ssg6
g5
sg13
I161
ssg6
g5
sg13
I185
ssg6
g5
sg13
I163
ssg6
g5
sg13
I164
ssg6
g5
sg13
I191
ssg6
(dp683
g2
g5
sg4
g12
sg6
(dp684
g2
(dp685
g2
g5
sg4
g3
sg6
g5
sg13
I49
ssg4
g12
sg6
(dp686
g2
g5
sg4
g3
sg6
(dp687
g2
g5
sg4
g8
sg6
(dp688
g2
g5
sg4
g3
sg6
(dp689
g2
g5
sg4
(dp690
g2
g5
sg4
g8
sg6
g3
sg13
I145
ssg6
g5
sg13
I72
ssg13
I179
ssg13
I3
ssg13
I136
ssg13
I6
ssg13
I76
ssg13
I160
ssg13
I57
ssg13
I108
sa(dp691
g2
g3
sg4
g12
sg6
(dp692
g2
g3
sg4
g5
sg6
(dp693
g2
g5
sg4
(dp694
g2
g5
sg4
(dp695
g2
g5
sg4
(dp696
g2
g5
sg4
(dp697
g2
g5
sg4
(dp698
g2
g5
sg4
(dp699
g2
g5
sg4
(dp700
g2
g5
sg4
(dp701
g2
g5
sg4
(dp702
g2
g5
sg4
(dp703
g2
g5
sg4
(dp704
g2
g5
sg4
(dp705
g2
g5
sg4
(dp706
g2
g5
sg4
g12
sg6
g5
sg13
I120
ssg6
g5
sg13
I48
ssg6
g3
sg13
I55
ssg6
g5
sg13
I51
ssg6
g5
sg13
I75
ssg6
g5
sg13
I49
ssg6
g5
sg13
I27
ssg6
g5
sg13
I96
ssg6
g8
sg13
I97
ssg6
g5
sg13
I99
ssg6
g5
sg13
I54
ssg6
g12
sg13
I78
ssg6
(dp707
g2
g5
sg4
g8
sg6
g12
sg13
I129
ssg13
I72
ssg6
(dp708
g2
(dp709
g2
g12
sg4
g8
sg6
g5
sg13
I176
ssg4
g8
sg6
(dp710
g2
(dp711
g2
g5
sg4
g3
sg6
g5
sg13
I87
ssg4
g8
sg6
(dp712
g2
g5
sg4
g3
sg6
g5
sg13
I162
ssg13
I4
ssg13
I185
ssg13
I121
ssg13
I112
ssg13
I60
sa(dp713
g2
g12
sg4
g5
sg6
(dp714
g2
g8
sg4
(dp715
g2
g5
sg4
g12
sg6
(dp716
g2
g3
sg4
g12
sg6
g3
sg13
I20
ssg13
I109
ssg6
(dp717
g2
(dp718
g2
(dp719
g2
g5
sg4
g12
sg6
g5
sg13
I22
ssg4
(dp720
g2
g5
sg4
(dp721
g2
g5
sg4
g3
sg6
g8
sg13
I76
ssg6
g5
sg13
I60
ssg6
g5
sg13
I32
ssg4
(dp722
g2
(dp723
g2
g12
sg4
g5
sg6
g8
sg13
I36
ssg4
(dp724
g2
(dp725
g2
g3
sg4
g5
sg6
g8
sg13
I186
ssg4
g3
sg6
(dp726
g2
g5
sg4
g12
sg6
g5
sg13
I180
ssg13
I23
ssg6
(dp727
g2
g5
sg4
g8
sg6
g3
sg13
I183
ssg13
I42
ssg6
(dp728
g2
g8
sg4
g5
sg6
(dp729
g2
g5
sg4
g12
sg6
(dp730
g2
g12
sg4
g3
sg6
(dp731
g2
g12
sg4
g8
sg6
(dp732
g2
g5
sg4
g8
sg6
(dp733
g2
g5
sg4
g5
sg6
(dp734
g2
g5
sg4
g3
sg6
g5
sg13
I150
ssg13
I92
ssg13
I34
ssg13
I181
ssg13
I6
ssg13
I89
ssg13
I62
ssg13
I44
ssg13
I84
ssg13
I129
sa(dp735
g2
g8
sg4
g3
sg6
(dp736
g2
g12
sg4
g5
sg6
(dp737
g2
g12
sg4
g5
sg6
(dp738
g2
g8
sg4
g5
sg6
(dp739
g2
g3
sg4
g12
sg6
(dp740
g2
g3
sg4
g8
sg6
(dp741
g2
g5
sg4
g8
sg6
(dp742
g2
g5
sg4
g12
sg6
(dp743
g2
g5
sg4
g8
sg6
(dp744
g2
g5
sg4
g3
sg6
(dp745
g2
g5
sg4
g5
sg6
(dp746
g2
g5
sg4
g5
sg6
(dp747
g2
g5
sg4
g5
sg6
(dp748
g2
g5
sg4
g5
sg6
(dp749
g2
g5
sg4
g5
sg6
(dp750
g2
g5
sg4
g5
sg6
(dp751
g2
g5
sg4
g5
sg6
(dp752
g2
g5
sg4
g5
sg6
(dp753
g2
g5
sg4
g5
sg6
(dp754
g2
g5
sg4
g5
sg6
(dp755
g2
g5
sg4
g5
sg6
(dp756
g2
g5
sg4
g5
sg6
g5
sg13
I55
ssg13
I159
ssg13
I50
ssg13
I74
ssg13
I87
ssg13
I2
ssg13
I116
ssg13
I102
ssg13
I72
ssg13
I147
ssg13
I89
ssg13
I80
ssg13
I21
ssg13
I138
ssg13
I186
ssg13
I24
ssg13
I41
ssg13
I107
ssg13
I139
ssg13
I151
ssg13
I135
ssg13
I84
sa(dp757
g2
g8
sg4
g12
sg6
(dp758
g2
g5
sg4
(dp759
g2
g5
sg4
g3
sg6
(dp760
g2
g5
sg4
(dp761
g2
g5
sg4
(dp762
g2
g8
sg4
g12
sg6
g5
sg13
I184
ssg6
g5
sg13
I160
ssg6
g12
sg13
I159
ssg13
I25
ssg6
(dp763
g2
(dp764
g2
g3
sg4
g5
sg6
g8
sg13
I24
ssg4
(dp765
g2
g5
sg4
(dp766
g2
g5
sg4
(dp767
g2
g3
sg4
(dp768
g2
g12
sg4
(dp769
g2
g5
sg4
(dp770
g2
g5
sg4
(dp771
g2
g8
sg4
g5
sg6
g8
sg13
I141
ssg6
g3
sg13
I66
ssg6
g5
sg13
I69
ssg6
g3
sg13
I181
ssg6
g3
sg13
I32
ssg6
(dp772
g2
g5
sg4
g12
sg6
g5
sg13
I150
ssg13
I31
ssg6
g8
sg13
I27
ssg6
(dp773
g2
(dp774
g2
g8
sg4
g5
sg6
g3
sg13
I95
ssg4
g8
sg6
(dp775
g2
g8
sg4
(dp776
g2
g5
sg4
(dp777
g2
g5
sg4
(dp778
g2
g3
sg4
g5
sg6
g3
sg13
I60
ssg6
g5
sg13
I86
ssg6
g5
sg13
I190
ssg6
g12
sg13
I91
ssg13
I20
ssg13
I45
ssg13
I145
ssg13
I105
sa(dp779
g2
g8
sg4
g3
sg6
(dp780
g2
g5
sg4
g8
sg6
(dp781
g2
g8
sg4
g12
sg6
(dp782
g2
g3
sg4
g12
sg6
(dp783
g2
g5
sg4
g3
sg6
(dp784
g2
g5
sg4
g3
sg6
(dp785
g2
g5
sg4
g3
sg6
(dp786
g2
g5
sg4
g5
sg6
(dp787
g2
g5
sg4
g12
sg6
(dp788
g2
g5
sg4
g8
sg6
(dp789
g2
g5
sg4
g5
sg6
(dp790
g2
g5
sg4
g5
sg6
(dp791
g2
g5
sg4
g5
sg6
(dp792
g2
g5
sg4
g5
sg6
(dp793
g2
g5
sg4
g5
sg6
(dp794
g2
g5
sg4
g5
sg6
(dp795
g2
g5
sg4
g5
sg6
(dp796
g2
g5
sg4
g5
sg6
(dp797
g2
g5
sg4
g5
sg6
(dp798
g2
g5
sg4
g5
sg6
(dp799
g2
g5
sg4
g5
sg6
(dp800
g2
g5
sg4
g5
sg6
g5
sg13
I62
ssg13
I112
ssg13
I49
ssg13
I31
ssg13
I149
ssg13
I56
ssg13
I89
ssg13
I20
ssg13
I94
ssg13
I103
ssg13
I40
ssg13
I86
ssg13
I102
ssg13
I57
ssg13
I78
ssg13
I133
ssg13
I131
ssg13
I59
ssg13
I182
ssg13
I135
ssg13
I84
ssg13
I105
sa(dp801
g2
g5
sg4
g8
sg6
(dp802
g2
g8
sg4
(dp803
g2
g5
sg4
(dp804
g2
g5
sg4
(dp805
g2
g12
sg4
(dp806
g2
g12
sg4
(dp807
g2
g3
sg4
g12
sg6
g5
sg13
I8
ssg6
g8
sg13
I180
ssg6
g8
sg13
I136
ssg6
g5
sg13
I135
ssg6
(dp808
g2
g12
sg4
g5
sg6
(dp809
g2
g5
sg4
(dp810
g2
g5
sg4
g3
sg6
g12
sg13
I16
ssg6
g8
sg13
I150
ssg13
I173
ssg13
I142
ssg6
(dp811
g2
(dp812
g2
(dp813
g2
g5
sg4
(dp814
g2
(dp815
g2
g3
sg4
g5
sg6
g3
sg13
I22
ssg4
g5
sg6
g3
sg13
I24
ssg6
g5
sg13
I56
ssg4
g12
sg6
g5
sg13
I30
ssg4
(dp816
g2
g5
sg4
g12
sg6
(dp817
g2
g5
sg4
g3
sg6
g5
sg13
I60
ssg13
I116
ssg6
(dp818
g2
g5
sg4
g3
sg6
(dp819
g2
g5
sg4
g12
sg6
(dp820
g2
g3
sg4
g8
sg6
(dp821
g2
g5
sg4
g12
sg6
(dp822
g2
g5
sg4
g3
sg6
g5
sg13
I93
ssg13
I184
ssg13
I168
ssg13
I61
ssg13
I31
ssg13
I6
ssg13
I138
ssg13
I82
sa(dp823
g2
g5
sg4
g8
sg6
(dp824
g2
g8
sg4
g12
sg6
(dp825
g2
g12
sg4
(dp826
g2
g5
sg4
(dp827
g2
g12
sg4
(dp828
g2
g5
sg4
g8
sg6
(dp829
g2
g5
sg4
(dp830
g2
g3
sg4
g5
sg6
g3
sg13
I50
ssg6
g5
sg13
I64
ssg13
I111
ssg6
g8
sg13
I60
ssg6
(dp831
g2
(dp832
g2
g3
sg4
g5
sg6
g8
sg13
I99
ssg4
(dp833
g2
g5
sg4
g3
sg6
g8
sg13
I168
ssg6
g5
sg13
I135
ssg13
I61
ssg6
(dp834
g2
g5
sg4
g12
sg6
(dp835
g2
g5
sg4
g8
sg6
(dp836
g2
(dp837
g2
g12
sg4
g5
sg6
g8
sg13
I173
ssg4
g3
sg6
(dp838
g2
g5
sg4
g12
sg6
(dp839
g2
g5
sg4
g8
sg6
(dp840
g2
g5
sg4
g3
sg6
(dp841
g2
g5
sg4
g8
sg6
(dp842
g2
g5
sg4
g5
sg6
(dp843
g2
g5
sg4
g5
sg6
(dp844
g2
g5
sg4
g12
sg6
g5
sg13
I177
ssg13
I162
ssg13
I79
ssg13
I90
ssg13
I15
ssg13
I127
ssg13
I122
ssg13
I188
ssg13
I0
ssg13
I40
ssg13
I63
ssg13
I109
ssg13
I82
sa(dp845
g2
g5
sg4
g3
sg6
(dp846
g2
g12
sg4
(dp847
g2
g5
sg4
(dp848
g2
g8
sg4
g12
sg6
(dp849
g2
g5
sg4
g12
sg6
g5
sg13
I148
ssg13
I126
ssg6
(dp850
g2
(dp851
g2
g5
sg4
(dp852
g2
g5
sg4
g8
sg6
g12
sg13
I1
ssg6
g5
sg13
I175
ssg4
(dp853
g2
g5
sg4
(dp854
g2
g5
sg4
(dp855
g2
g5
sg4
(dp856
g2
g8
sg4
g12
sg6
g5
sg13
I167
ssg6
g5
sg13
I150
ssg6
g5
sg13
I184
ssg6
g5
sg13
I187
ssg6
g5
sg13
I15
ssg13
I124
ssg6
(dp857
g2
g8
sg4
(dp858
g2
g5
sg4
(dp859
g2
(dp860
g2
g5
sg4
g8
sg6
g5
sg13
I11
ssg4
(dp861
g2
g5
sg4
(dp862
g2
g8
sg4
(dp863
g2
g5
sg4
g3
sg6
g8
sg13
I75
ssg6
g12
sg13
I40
ssg6
g5
sg13
I42
ssg6
g5
sg13
I43
ssg6
g5
sg13
I46
ssg6
(dp864
g2
g5
sg4
g3
sg6
(dp865
g2
g5
sg4
(dp866
g2
g5
sg4
g8
sg6
g12
sg13
I95
ssg6
g5
sg13
I118
ssg13
I14
ssg13
I22
ssg13
I151
ssg13
I60
sa(dp867
g2
g8
sg4
g12
sg6
(dp868
g2
g5
sg4
g3
sg6
(dp869
g2
(dp870
g2
(dp871
g2
g5
sg4
g3
sg6
g5
sg13
I10
ssg4
(dp872
g2
g12
sg4
g5
sg6
g8
sg13
I151
ssg6
g5
sg13
I90
ssg4
(dp873
g2
(dp874
g2
g5
sg4
g12
sg6
g5
sg13
I166
ssg4
(dp875
g2
g8
sg4
(dp876
g2
g12
sg4
(dp877
g2
(dp878
g2
g5
sg4
g3
sg6
g8
sg13
I59
ssg4
(dp879
g2
g5
sg4
(dp880
g2
g12
sg4
(dp881
g2
g5
sg4
(dp882
g2
g5
sg4
(dp883
g2
g8
sg4
g3
sg6
g12
sg13
I114
ssg6
g5
sg13
I182
ssg6
g5
sg13
I189
ssg6
g5
sg13
I179
ssg6
g5
sg13
I42
ssg6
g3
sg13
I45
ssg6
g12
sg13
I186
ssg6
g5
sg13
I180
ssg6
g8
sg13
I181
ssg6
(dp884
g2
g5
sg4
g8
sg6
(dp885
g2
g5
sg4
g3
sg6
(dp886
g2
g5
sg4
g3
sg6
(dp887
g2
g5
sg4
g12
sg6
(dp888
g2
g5
sg4
g8
sg6
g5
sg13
I86
ssg13
I13
ssg13
I96
ssg13
I178
ssg13
I97
ssg13
I187
ssg13
I25
ssg13
I108
sa(dp889
g2
g12
sg4
g8
sg6
(dp890
g2
g5
sg4
(dp891
g2
g3
sg4
(dp892
g2
g12
sg4
(dp893
g2
g5
sg4
g12
sg6
g3
sg13
I148
ssg6
(dp894
g2
(dp895
g2
g5
sg4
g12
sg6
g8
sg13
I76
ssg4
g5
sg6
g3
sg13
I191
ssg13
I152
ssg6
(dp896
g2
(dp897
g2
(dp898
g2
g5
sg4
g8
sg6
g5
sg13
I130
ssg4
(dp899
g2
(dp900
g2
g3
sg4
g12
sg6
g5
sg13
I137
ssg4
g8
sg6
g5
sg13
I164
ssg6
g5
sg13
I116
ssg4
g3
sg6
g5
sg13
I119
ssg13
I120
ssg6
(dp901
g2
g8
sg4
(dp902
g2
(dp903
g2
g8
sg4
(dp904
g2
g5
sg4
(dp905
g2
(dp906
g2
g3
sg4
(dp907
g2
g5
sg4
g3
sg6
g5
sg13
I139
ssg6
g3
sg13
I38
ssg4
g5
sg6
g8
sg13
I5
ssg6
g5
sg13
I66
ssg6
g5
sg13
I67
ssg4
(dp908
g2
(dp909
g2
g3
sg4
g5
sg6
g8
sg13
I74
ssg4
g12
sg6
g8
sg13
I12
ssg6
g12
sg13
I23
ssg6
(dp910
g2
g5
sg4
g12
sg6
g8
sg13
I112
ssg13
I18
ssg13
I121
ssg13
I84
sa(dp911
g2
g12
sg4
g5
sg6
(dp912
g2
g8
sg4
(dp913
g2
g5
sg4
(dp914
g2
g12
sg4
g3
sg6
g5
sg13
I163
ssg6
(dp915
g2
(dp916
g2
g5
sg4
g12
sg6
g5
sg13
I166
ssg4
(dp917
g2
g5
sg4
(dp918
g2
g5
sg4
(dp919
g2
g12
sg4
(dp920
g2
(dp921
g2
g5
sg4
g3
sg6
g5
sg13
I49
ssg4
(dp922
g2
g5
sg4
(dp923
g2
g3
sg4
g5
sg6
g8
sg13
I8
ssg6
g5
sg13
I4
ssg6
g5
sg13
I147
ssg6
g5
sg13
I69
ssg6
g5
sg13
I183
ssg6
g5
sg13
I159
ssg6
g5
sg13
I189
ssg13
I136
ssg6
(dp924
g2
(dp925
g2
g5
sg4
(dp926
g2
g3
sg4
g8
sg6
g5
sg13
I43
ssg6
(dp927
g2
g5
sg4
g12
sg6
g8
sg13
I115
ssg13
I88
ssg4
(dp928
g2
g8
sg4
g5
sg6
g3
sg13
I161
ssg6
(dp929
g2
g5
sg4
g3
sg6
(dp930
g2
g12
sg4
g5
sg6
(dp931
g2
g5
sg4
g3
sg6
(dp932
g2
g8
sg4
g12
sg6
g5
sg13
I141
ssg13
I28
ssg13
I182
ssg13
I96
ssg13
I68
ssg13
I135
ssg13
I105
sa(dp933
g2
g3
sg4
g8
sg6
(dp934
g2
g5
sg4
(dp935
g2
g12
sg4
(dp936
g2
g12
sg4
(dp937
g2
g5
sg4
(dp938
g2
g5
sg4
(dp939
g2
g5
sg4
(dp940
g2
g5
sg4
(dp941
g2
g5
sg4
g8
sg6
g3
sg13
I78
ssg6
g5
sg13
I144
ssg6
g5
sg13
I169
ssg6
g5
sg13
I146
ssg6
(dp942
g2
g5
sg4
g12
sg6
g3
sg13
I136
ssg13
I170
ssg6
(dp943
g2
g5
sg4
(dp944
g2
g5
sg4
(dp945
g2
g5
sg4
(dp946
g2
g3
sg4
g8
sg6
g12
sg13
I62
ssg6
g5
sg13
I82
ssg6
g5
sg13
I182
ssg6
g5
sg13
I178
ssg13
I127
ssg6
(dp947
g2
g5
sg4
g12
sg6
g8
sg13
I123
ssg13
I172
ssg6
(dp948
g2
(dp949
g2
(dp950
g2
g5
sg4
g3
sg6
g5
sg13
I98
ssg4
g12
sg6
g5
sg13
I1
ssg4
g5
sg6
(dp951
g2
g8
sg4
(dp952
g2
g5
sg4
(dp953
g2
g5
sg4
(dp954
g2
g5
sg4
g12
sg6
g3
sg13
I148
ssg6
g5
sg13
I87
ssg6
g5
sg13
I84
ssg6
g12
sg13
I85
ssg13
I0
ssg13
I102
ssg13
I63
sa(dp955
g2
g3
sg4
g8
sg6
(dp956
g2
g5
sg4
(dp957
g2
g3
sg4
g5
sg6
(dp958
g2
g5
sg4
(dp959
g2
g5
sg4
(dp960
g2
g5
sg4
g12
sg6
g5
sg13
I115
ssg6
g8
sg13
I103
ssg6
g12
sg13
I99
ssg13
I147
ssg6
(dp961
g2
(dp962
g2
g8
sg4
g5
sg6
g12
sg13
I119
ssg4
(dp963
g2
g5
sg4
(dp964
g2
g5
sg4
(dp965
g2
g5
sg4
(dp966
g2
g5
sg4
(dp967
g2
g8
sg4
(dp968
g2
g5
sg4
g3
sg6
g8
sg13
I80
ssg6
g8
sg13
I142
ssg6
g5
sg13
I112
ssg6
g5
sg13
I136
ssg6
g3
sg13
I111
ssg6
(dp969
g2
(dp970
g2
g5
sg4
g3
sg6
g5
sg13
I61
ssg4
(dp971
g2
g5
sg4
g12
sg6
g8
sg13
I32
ssg6
g3
sg13
I42
ssg13
I135
ssg6
(dp972
g2
g5
sg4
g8
sg6
(dp973
g2
g5
sg4
g12
sg6
(dp974
g2
g5
sg4
g12
sg6
(dp975
g2
g5
sg4
g3
sg6
(dp976
g2
g5
sg4
g3
sg6
g5
sg13
I45
ssg13
I88
ssg13
I102
ssg13
I108
ssg13
I49
ssg13
I66
ssg13
I123
ssg13
I84
sa(dp977
g2
g8
sg4
g12
sg6
(dp978
g2
g12
sg4
g5
sg6
(dp979
g2
g8
sg4
g3
sg6
(dp980
g2
g5
sg4
g3
sg6
(dp981
g2
g5
sg4
g12
sg6
(dp982
g2
g5
sg4
g8
sg6
(dp983
g2
g5
sg4
g3
sg6
(dp984
g2
g5
sg4
g12
sg6
(dp985
g2
g5
sg4
g5
sg6
(dp986
g2
g5
sg4
g5
sg6
(dp987
g2
g5
sg4
g5
sg6
(dp988
g2
g5
sg4
g5
sg6
(dp989
g2
g5
sg4
g5
sg6
(dp990
g2
g5
sg4
g5
sg6
(dp991
g2
g5
sg4
g5
sg6
(dp992
g2
g5
sg4
g5
sg6
(dp993
g2
g5
sg4
g5
sg6
(dp994
g2
g5
sg4
g5
sg6
(dp995
g2
g5
sg4
g5
sg6
(dp996
g2
g5
sg4
g5
sg6
(dp997
g2
g5
sg4
g5
sg6
(dp998
g2
g5
sg4
g5
sg6
g5
sg13
I31
ssg13
I96
ssg13
I26
ssg13
I147
ssg13
I156
ssg13
I190
ssg13
I70
ssg13
I47
ssg13
I110
ssg13
I6
ssg13
I65
ssg13
I140
ssg13
I183
ssg13
I59
ssg13
I179
ssg13
I14
ssg13
I162
ssg13
I102
ssg13
I143
ssg13
I68
ssg13
I152
ssg13
I84
sa(dp999
g2
g12
sg4
g5
sg6
(dp1000
g2
g3
sg4
(dp1001
g2
g3
sg4
(dp1002
g2
g8
sg4
g3
sg6
(dp1003
g2
g5
sg4
g12
sg6
g5
sg13
I157
ssg13
I43
ssg6
(dp1004
g2
g5
sg4
(dp1005
g2
g5
sg4
g3
sg6
g8
sg13
I59
ssg6
g5
sg13
I33
ssg13
I54
ssg6
(dp1006
g2
g5
sg4
(dp1007
g2
g5
sg4
(dp1008
g2
g5
sg4
(dp1009
g2
g5
sg4
(dp1010
g2
g3
sg4
(dp1011
g2
g5
sg4
(dp1012
g2
g8
sg4
(dp1013
g2
g5
sg4
(dp1014
g2
g5
sg4
g8
sg6
g12
sg13
I149
ssg6
g5
sg13
I40
ssg6
g5
sg13
I21
ssg6
g5
sg13
I37
ssg6
g5
sg13
I85
ssg6
g12
sg13
I87
ssg6
g12
sg13
I109
ssg6
(dp1015
g2
g5
sg4
g3
sg6
g5
sg13
I77
ssg13
I108
ssg6
(dp1016
g2
g5
sg4
g8
sg6
(dp1017
g2
g12
sg4
g5
sg6
(dp1018
g2
g5
sg4
g3
sg6
(dp1019
g2
g5
sg4
g8
sg6
(dp1020
g2
g5
sg4
g8
sg6
g12
sg13
I38
ssg13
I92
ssg13
I78
ssg13
I144
ssg13
I112
ssg13
I110
ssg13
I31
ssg13
I132
sa(dp1021
g2
g5
sg4
g3
sg6
(dp1022
g2
g12
sg4
(dp1023
g2
g12
sg4
(dp1024
g2
g12
sg4
(dp1025
g2
g5
sg4
(dp1026
g2
g8
sg4
g3
sg6
(dp1027
g2
g5
sg4
g3
sg6
g5
sg13
I121
ssg13
I140
ssg6
(dp1028
g2
g8
sg4
g5
sg6
g3
sg13
I143
ssg13
I132
ssg6
(dp1029
g2
g3
sg4
g5
sg6
g12
sg13
I19
ssg13
I139
ssg6
(dp1030
g2
g5
sg4
(dp1031
g2
g5
sg4
(dp1032
g2
g5
sg4
(dp1033
g2
g5
sg4
g12
sg6
g5
sg13
I177
ssg6
g5
sg13
I78
ssg6
g8
sg13
I52
ssg6
g5
sg13
I183
ssg13
I135
ssg6
(dp1034
g2
g8
sg4
(dp1035
g2
g3
sg4
(dp1036
g2
g5
sg4
g3
sg6
g5
sg13
I13
ssg6
(dp1037
g2
g12
sg4
g8
sg6
g5
sg13
I71
ssg13
I30
ssg6
(dp1038
g2
g3
sg4
g8
sg6
(dp1039
g2
g5
sg4
g12
sg6
(dp1040
g2
g5
sg4
(dp1041
g2
g12
sg4
g3
sg6
(dp1042
g2
g5
sg4
g3
sg6
g5
sg13
I31
ssg13
I69
ssg6
g5
sg13
I84
ssg13
I182
ssg13
I95
ssg13
I54
ssg13
I163
ssg13
I81
sa(dp1043
g2
g12
sg4
g5
sg6
(dp1044
g2
g8
sg4
(dp1045
g2
g5
sg4
g3
sg6
(dp1046
g2
g5
sg4
g3
sg6
(dp1047
g2
g5
sg4
g12
sg6
g5
sg13
I146
ssg13
I20
ssg13
I48
ssg6
(dp1048
g2
g5
sg4
g3
sg6
(dp1049
g2
(dp1050
g2
g5
sg4
g3
sg6
g12
sg13
I52
ssg4
(dp1051
g2
g5
sg4
(dp1052
g2
(dp1053
g2
(dp1054
g2
g5
sg4
g8
sg6
g5
sg13
I30
ssg4
g8
sg6
g5
sg13
I161
ssg4
(dp1055
g2
g5
sg4
(dp1056
g2
g5
sg4
(dp1057
g2
g3
sg4
(dp1058
g2
g5
sg4
(dp1059
g2
(dp1060
g2
g5
sg4
g12
sg6
g5
sg13
I141
ssg4
g12
sg6
g8
sg13
I175
ssg6
g5
sg13
I188
ssg6
g5
sg13
I185
ssg6
g5
sg13
I183
ssg6
g8
sg13
I184
ssg6
g8
sg13
I158
ssg6
g5
sg13
I157
ssg6
(dp1061
g2
g5
sg4
g3
sg6
(dp1062
g2
g5
sg4
g8
sg6
(dp1063
g2
g5
sg4
g8
sg6
(dp1064
g2
g5
sg4
g3
sg6
g5
sg13
I18
ssg13
I105
ssg13
I177
ssg13
I47
ssg13
I156
ssg13
I108
ssg13
I69
ssg13
I109
sa(dp1065
g2
g5
sg4
g3
sg6
(dp1066
g2
g12
sg4
g8
sg6
(dp1067
g2
(dp1068
g2
g8
sg4
(dp1069
g2
g3
sg4
g12
sg6
g5
sg13
I65
ssg6
g5
sg13
I90
ssg4
(dp1070
g2
(dp1071
g2
g8
sg4
g3
sg6
g8
sg13
I33
ssg4
(dp1072
g2
g12
sg4
(dp1073
g2
g5
sg4
(dp1074
g2
g5
sg4
(dp1075
g2
g5
sg4
(dp1076
g2
g5
sg4
(dp1077
g2
(dp1078
g2
g5
sg4
g8
sg6
g3
sg13
I74
ssg4
g5
sg6
g12
sg13
I2
ssg6
g5
sg13
I171
ssg6
g5
sg13
I150
ssg6
g5
sg13
I12
ssg6
g5
sg13
I9
ssg6
g12
sg13
I42
ssg6
g8
sg13
I15
ssg6
(dp1079
g2
(dp1080
g2
g5
sg4
g8
sg6
g5
sg13
I148
ssg4
g8
sg6
(dp1081
g2
g5
sg4
g3
sg6
(dp1082
g2
g5
sg4
g12
sg6
(dp1083
g2
(dp1084
g2
g5
sg4
g12
sg6
g5
sg13
I159
ssg4
g8
sg6
(dp1085
g2
g5
sg4
(dp1086
g2
g5
sg4
g8
sg6
g12
sg13
I29
ssg6
g3
sg13
I123
ssg13
I72
ssg13
I137
ssg13
I40
ssg13
I86
ssg13
I39
ssg13
I136
ssg13
I57
sa(dp1087
g2
g5
sg4
g3
sg6
(dp1088
g2
g5
sg4
(dp1089
g2
g3
sg4
(dp1090
g2
g5
sg4
g12
sg6
(dp1091
g2
g5
sg4
g8
sg6
g5
sg13
I117
ssg13
I135
ssg6
(dp1092
g2
(dp1093
g2
g5
sg4
g8
sg6
g5
sg13
I22
ssg4
g8
sg6
g5
sg13
I38
ssg13
I141
ssg6
(dp1094
g2
g5
sg4
(dp1095
g2
(dp1096
g2
g3
sg4
g5
sg6
g12
sg13
I74
ssg4
(dp1097
g2
g3
sg4
(dp1098
g2
g12
sg4
g3
sg6
g5
sg13
I95
ssg6
g12
sg13
I34
ssg6
g8
sg13
I33
ssg6
(dp1099
g2
g12
sg4
g8
sg6
(dp1100
g2
g5
sg4
g3
sg6
(dp1101
g2
g5
sg4
g8
sg6
(dp1102
g2
(dp1103
g2
g5
sg4
g12
sg6
g5
sg13
I168
ssg4
g3
sg6
(dp1104
g2
g5
sg4
g8
sg6
(dp1105
g2
g5
sg4
g8
sg6
(dp1106
g2
g3
sg4
g5
sg6
(dp1107
g2
g12
sg4
g8
sg6
(dp1108
g2
g5
sg4
g12
sg6
g5
sg13
I163
ssg13
I189
ssg13
I24
ssg13
I109
ssg13
I10
ssg13
I132
ssg13
I35
ssg13
I29
ssg13
I188
ssg13
I39
ssg13
I138
ssg13
I81
sa(dp1109
g2
g5
sg4
g3
sg6
(dp1110
g2
g8
sg4
(dp1111
g2
g8
sg4
(dp1112
g2
g3
sg4
(dp1113
g2
g5
sg4
g12
sg6
(dp1114
g2
g5
sg4
(dp1115
g2
g5
sg4
g12
sg6
g3
sg13
I151
ssg6
g5
sg13
I182
ssg13
I114
ssg6
(dp1116
g2
g3
sg4
g8
sg6
g5
sg13
I144
ssg13
I137
ssg6
(dp1117
g2
g5
sg4
g8
sg6
g5
sg13
I116
ssg13
I140
ssg6
(dp1118
g2
g8
sg4
(dp1119
g2
g5
sg4
(dp1120
g2
(dp1121
g2
g5
sg4
g3
sg6
g8
sg13
I99
ssg4
g5
sg6
(dp1122
g2
g5
sg4
g12
sg6
g5
sg13
I136
ssg13
I4
ssg6
g5
sg13
I104
ssg6
(dp1123
g2
(dp1124
g2
g5
sg4
g3
sg6
g5
sg13
I71
ssg4
(dp1125
g2
(dp1126
g2
(dp1127
g2
g5
sg4
g3
sg6
g5
sg13
I20
ssg4
g3
sg6
g5
sg13
I31
ssg4
(dp1128
g2
g5
sg4
(dp1129
g2
g5
sg4
g12
sg6
g5
sg13
I184
ssg6
g3
sg13
I26
ssg6
g8
sg13
I32
ssg6
(dp1130
g2
g3
sg4
g8
sg6
g12
sg13
I10
ssg13
I29
ssg13
I103
ssg13
I139
ssg13
I81
sa(dp1131
g2
g3
sg4
g8
sg6
(dp1132
g2
g12
sg4
(dp1133
g2
g5
sg4
g12
sg6
(dp1134
g2
g5
sg4
(dp1135
g2
g5
sg4
g3
sg6
g5
sg13
I139
ssg6
(dp1136
g2
g5
sg4
g8
sg6
g5
sg13
I93
ssg13
I138
ssg13
I157
ssg6
(dp1137
g2
(dp1138
g2
(dp1139
g2
g5
sg4
g3
sg6
g5
sg13
I34
ssg4
g3
sg6
g8
sg13
I49
ssg4
g5
sg6
(dp1140
g2
(dp1141
g2
g3
sg4
g5
sg6
g8
sg13
I10
ssg4
g12
sg6
(dp1142
g2
g3
sg4
g12
sg6
(dp1143
g2
g5
sg4
(dp1144
g2
g5
sg4
g8
sg6
(dp1145
g2
g5
sg4
(dp1146
g2
g5
sg4
(dp1147
g2
g5
sg4
(dp1148
g2
g5
sg4
g12
sg6
g3
sg13
I87
ssg6
g5
sg13
I88
ssg6
g5
sg13
I106
ssg6
(dp1149
g2
g3
sg4
g5
sg6
g12
sg13
I60
ssg13
I109
ssg13
I70
ssg6
(dp1150
g2
g5
sg4
(dp1151
g2
(dp1152
g2
g5
sg4
g12
sg6
g5
sg13
I170
ssg4
g3
sg6
g12
sg13
I175
ssg6
g8
sg13
I124
ssg13
I85
ssg13
I162
ssg13
I20
ssg13
I5
ssg13
I160
ssg13
I81
sa(dp1153
g2
g8
sg4
g12
sg6
(dp1154
g2
g3
sg4
g8
sg6
(dp1155
g2
(dp1156
g2
g5
sg4
(dp1157
g2
g5
sg4
(dp1158
g2
g5
sg4
g3
sg6
g12
sg13
I37
ssg6
g5
sg13
I49
ssg6
g5
sg13
I50
ssg4
(dp1159
g2
(dp1160
g2
g5
sg4
g12
sg6
g5
sg13
I117
ssg4
(dp1161
g2
(dp1162
g2
g5
sg4
(dp1163
g2
g5
sg4
g8
sg6
g3
sg13
I92
ssg6
g5
sg13
I185
ssg4
g8
sg6
(dp1164
g2
g8
sg4
(dp1165
g2
g12
sg4
(dp1166
g2
g3
sg4
g5
sg6
g12
sg13
I4
ssg6
g3
sg13
I169
ssg6
(dp1167
g2
g5
sg4
g12
sg6
g3
sg13
I182
ssg13
I121
ssg13
I190
ssg6
(dp1168
g2
g5
sg4
g12
sg6
g5
sg13
I134
ssg13
I174
ssg6
(dp1169
g2
g5
sg4
g3
sg6
(dp1170
g2
g5
sg4
g12
sg6
(dp1171
g2
g5
sg4
g12
sg6
(dp1172
g2
g5
sg4
g12
sg6
(dp1173
g2
g5
sg4
g12
sg6
(dp1174
g2
g5
sg4
g8
sg6
g5
sg13
I113
ssg13
I41
ssg13
I186
ssg13
I153
ssg13
I178
ssg13
I58
ssg13
I175
ssg13
I42
ssg13
I109
sa(dp1175
g2
g5
sg4
g3
sg6
(dp1176
g2
g3
sg4
g5
sg6
(dp1177
g2
g12
sg4
(dp1178
g2
g8
sg4
(dp1179
g2
g5
sg4
(dp1180
g2
g5
sg4
(dp1181
g2
g5
sg4
(dp1182
g2
g5
sg4
(dp1183
g2
g5
sg4
(dp1184
g2
g5
sg4
(dp1185
g2
g5
sg4
(dp1186
g2
g5
sg4
(dp1187
g2
g5
sg4
g12
sg6
g5
sg13
I99
ssg6
g5
sg13
I139
ssg6
g5
sg13
I166
ssg6
g5
sg13
I75
ssg6
g5
sg13
I163
ssg6
g8
sg13
I142
ssg6
g8
sg13
I72
ssg6
g5
sg13
I144
ssg6
g5
sg13
I177
ssg6
(dp1188
g2
g8
sg4
g3
sg6
g12
sg13
I141
ssg13
I174
ssg6
(dp1189
g2
(dp1190
g2
g5
sg4
(dp1191
g2
g5
sg4
g8
sg6
g12
sg13
I73
ssg6
g5
sg13
I132
ssg4
g5
sg6
(dp1192
g2
g5
sg4
g12
sg6
(dp1193
g2
g5
sg4
g8
sg6
(dp1194
g2
g5
sg4
g3
sg6
(dp1195
g2
g5
sg4
g12
sg6
(dp1196
g2
g5
sg4
g3
sg6
g5
sg13
I87
ssg13
I150
ssg13
I136
ssg13
I135
ssg13
I145
ssg13
I164
ssg13
I147
ssg13
I16
ssg13
I85
sa(dp1197
g2
g8
sg4
g5
sg6
(dp1198
g2
g5
sg4
g3
sg6
(dp1199
g2
g12
sg4
(dp1200
g2
g5
sg4
(dp1201
g2
g5
sg4
(dp1202
g2
g5
sg4
(dp1203
g2
g3
sg4
(dp1204
g2
g5
sg4
(dp1205
g2
g5
sg4
(dp1206
g2
g5
sg4
(dp1207
g2
g5
sg4
(dp1208
g2
g5
sg4
(dp1209
g2
g8
sg4
(dp1210
g2
g5
sg4
g12
sg6
g5
sg13
I177
ssg6
g5
sg13
I92
ssg6
g5
sg13
I174
ssg6
g5
sg13
I172
ssg6
g5
sg13
I176
ssg6
g5
sg13
I151
ssg6
g5
sg13
I162
ssg6
g5
sg13
I165
ssg6
g5
sg13
I175
ssg6
g8
sg13
I168
ssg6
g5
sg13
I148
ssg6
(dp1211
g2
g5
sg4
(dp1212
g2
g5
sg4
(dp1213
g2
g12
sg4
(dp1214
g2
g5
sg4
g8
sg6
(dp1215
g2
g5
sg4
g12
sg6
g5
sg13
I106
ssg13
I164
ssg6
g5
sg13
I133
ssg6
(dp1216
g2
g5
sg4
g3
sg6
g12
sg13
I71
ssg13
I132
ssg6
(dp1217
g2
g8
sg4
g5
sg6
(dp1218
g2
g5
sg4
g12
sg6
g3
sg13
I183
ssg13
I112
ssg13
I85
ssg13
I173
ssg13
I81
ssg13
I42
sa(dp1219
g2
g3
sg4
g12
sg6
(dp1220
g2
g12
sg4
g5
sg6
(dp1221
g2
g3
sg4
(dp1222
g2
g8
sg4
g5
sg6
(dp1223
g2
g3
sg4
(dp1224
g2
g5
sg4
(dp1225
g2
g5
sg4
(dp1226
g2
g5
sg4
(dp1227
g2
g5
sg4
(dp1228
g2
g5
sg4
(dp1229
g2
g5
sg4
(dp1230
g2
g5
sg4
(dp1231
g2
g5
sg4
g8
sg6
g3
sg13
I157
ssg6
g12
sg13
I36
ssg6
g5
sg13
I60
ssg6
g5
sg13
I43
ssg6
g5
sg13
I15
ssg6
g5
sg13
I44
ssg6
g12
sg13
I42
ssg6
g5
sg13
I41
ssg6
g5
sg13
I39
ssg13
I95
ssg6
(dp1232
g2
g3
sg4
g5
sg6
(dp1233
g2
g5
sg4
g8
sg6
(dp1234
g2
g5
sg4
g3
sg6
(dp1235
g2
g5
sg4
g8
sg6
(dp1236
g2
g5
sg4
g3
sg6
(dp1237
g2
g12
sg4
g5
sg6
(dp1238
g2
g5
sg4
g3
sg6
(dp1239
g2
g5
sg4
g3
sg6
(dp1240
g2
g5
sg4
g12
sg6
g5
sg13
I76
ssg13
I82
ssg13
I111
ssg13
I182
ssg13
I124
ssg13
I66
ssg13
I11
ssg13
I9
ssg13
I61
ssg13
I18
ssg13
I148
ssg13
I85
sa(dp1241
g2
g3
sg4
g12
sg6
(dp1242
g2
g12
sg4
g5
sg6
(dp1243
g2
(dp1244
g2
(dp1245
g2
(dp1246
g2
(dp1247
g2
g5
sg4
g3
sg6
g8
sg13
I123
ssg4
g5
sg6
g3
sg13
I90
ssg4
(dp1248
g2
g5
sg4
g3
sg6
g8
sg13
I146
ssg6
g8
sg13
I18
ssg4
(dp1249
g2
(dp1250
g2
g5
sg4
(dp1251
g2
g8
sg4
g3
sg6
g5
sg13
I188
ssg6
g5
sg13
I75
ssg4
g5
sg6
g3
sg13
I159
ssg6
g5
sg13
I45
ssg4
(dp1252
g2
g8
sg4
(dp1253
g2
g5
sg4
g8
sg6
(dp1254
g2
g5
sg4
g8
sg6
g3
sg13
I179
ssg13
I133
ssg6
g8
sg13
I40
ssg6
(dp1255
g2
g5
sg4
g12
sg6
(dp1256
g2
g5
sg4
(dp1257
g2
g5
sg4
(dp1258
g2
g5
sg4
(dp1259
g2
g8
sg4
(dp1260
g2
g5
sg4
(dp1261
g2
g5
sg4
g8
sg6
g3
sg13
I136
ssg6
g5
sg13
I27
ssg6
g5
sg13
I142
ssg6
g12
sg13
I141
ssg6
g5
sg13
I163
ssg6
(dp1262
g2
g5
sg4
g3
sg6
g5
sg13
I86
ssg13
I139
ssg13
I150
ssg13
I22
ssg13
I151
ssg13
I108
sa(dp1263
g2
g5
sg4
g12
sg6
(dp1264
g2
g5
sg4
g3
sg6
(dp1265
g2
g5
sg4
(dp1266
g2
g5
sg4
(dp1267
g2
g5
sg4
(dp1268
g2
g12
sg4
(dp1269
g2
g12
sg4
(dp1270
g2
g5
sg4
(dp1271
g2
g5
sg4
(dp1272
g2
g5
sg4
(dp1273
g2
g5
sg4
g8
sg6
g12
sg13
I174
ssg6
g5
sg13
I169
ssg6
g5
sg13
I126
ssg6
g5
sg13
I145
ssg6
g5
sg13
I146
ssg6
g12
sg13
I127
ssg6
g5
sg13
I152
ssg6
(dp1274
g2
g5
sg4
(dp1275
g2
g8
sg4
g3
sg6
g12
sg13
I41
ssg6
g8
sg13
I21
ssg13
I155
ssg6
(dp1276
g2
g5
sg4
g3
sg6
(dp1277
g2
g5
sg4
g8
sg6
(dp1278
g2
g5
sg4
g3
sg6
(dp1279
g2
g5
sg4
(dp1280
g2
g8
sg4
(dp1281
g2
g5
sg4
(dp1282
g2
g5
sg4
(dp1283
g2
g5
sg4
(dp1284
g2
g8
sg4
g3
sg6
g12
sg13
I188
ssg6
g5
sg13
I164
ssg6
g5
sg13
I167
ssg6
g5
sg13
I140
ssg6
g5
sg13
I143
ssg6
g5
sg13
I116
ssg13
I24
ssg13
I17
ssg13
I4
ssg13
I153
ssg13
I28
ssg13
I108
sa(dp1285
g2
g8
sg4
g12
sg6
(dp1286
g2
g5
sg4
(dp1287
g2
(dp1288
g2
g8
sg4
g3
sg6
g5
sg13
I44
ssg4
(dp1289
g2
g12
sg4
g5
sg6
g3
sg13
I188
ssg6
(dp1290
g2
g5
sg4
g12
sg6
g5
sg13
I42
ssg13
I20
ssg6
(dp1291
g2
(dp1292
g2
(dp1293
g2
g5
sg4
(dp1294
g2
g12
sg4
g8
sg6
g5
sg13
I176
ssg6
g5
sg13
I99
ssg4
g5
sg6
g8
sg13
I179
ssg4
(dp1295
g2
(dp1296
g2
g5
sg4
g12
sg6
g8
sg13
I54
ssg4
(dp1297
g2
g12
sg4
(dp1298
g2
g5
sg4
(dp1299
g2
g5
sg4
g8
sg6
g3
sg13
I139
ssg6
g5
sg13
I46
ssg6
g5
sg13
I19
ssg6
g12
sg13
I141
ssg6
(dp1300
g2
(dp1301
g2
(dp1302
g2
g5
sg4
g12
sg6
g3
sg13
I58
ssg4
g5
sg6
g3
sg13
I159
ssg4
(dp1303
g2
g5
sg4
(dp1304
g2
(dp1305
g2
g5
sg4
g8
sg6
g5
sg13
I49
ssg4
g12
sg6
g8
sg13
I165
ssg6
g5
sg13
I147
ssg6
(dp1306
g2
g5
sg4
g12
sg6
g3
sg13
I180
ssg13
I15
ssg13
I191
ssg13
I26
ssg13
I108
sa(dp1307
g2
g12
sg4
g5
sg6
(dp1308
g2
g8
sg4
g12
sg6
(dp1309
g2
g5
sg4
g8
sg6
(dp1310
g2
g5
sg4
g8
sg6
(dp1311
g2
g5
sg4
g3
sg6
(dp1312
g2
g12
sg4
g3
sg6
(dp1313
g2
g5
sg4
g12
sg6
(dp1314
g2
g3
sg4
g8
sg6
(dp1315
g2
g5
sg4
g12
sg6
(dp1316
g2
g5
sg4
g5
sg6
(dp1317
g2
g5
sg4
g5
sg6
(dp1318
g2
g5
sg4
g5
sg6
(dp1319
g2
g5
sg4
g5
sg6
(dp1320
g2
g5
sg4
g5
sg6
(dp1321
g2
g5
sg4
g5
sg6
(dp1322
g2
g5
sg4
g5
sg6
(dp1323
g2
g5
sg4
g5
sg6
(dp1324
g2
g5
sg4
g5
sg6
(dp1325
g2
g5
sg4
g5
sg6
(dp1326
g2
g5
sg4
g5
sg6
(dp1327
g2
g5
sg4
g5
sg6
(dp1328
g2
g5
sg4
g5
sg6
g5
sg13
I126
ssg13
I33
ssg13
I123
ssg13
I170
ssg13
I179
ssg13
I127
ssg13
I190
ssg13
I188
ssg13
I35
ssg13
I150
ssg13
I86
ssg13
I113
ssg13
I55
ssg13
I159
ssg13
I2
ssg13
I144
ssg13
I69
ssg13
I75
ssg13
I109
ssg13
I110
ssg13
I138
ssg13
I82
sa(dp1329
g2
g8
sg4
g3
sg6
(dp1330
g2
g3
sg4
g5
sg6
(dp1331
g2
g8
sg4
g3
sg6
(dp1332
g2
g12
sg4
(dp1333
g2
g5
sg4
(dp1334
g2
g5
sg4
(dp1335
g2
g5
sg4
(dp1336
g2
g12
sg4
(dp1337
g2
g5
sg4
(dp1338
g2
g5
sg4
(dp1339
g2
g5
sg4
(dp1340
g2
g5
sg4
(dp1341
g2
g5
sg4
g12
sg6
g3
sg13
I149
ssg6
g5
sg13
I124
ssg6
g5
sg13
I144
ssg6
g5
sg13
I125
ssg6
g5
sg13
I146
ssg6
g12
sg13
I121
ssg6
g5
sg13
I120
ssg6
(dp1342
g2
g5
sg4
g12
sg6
(dp1343
g2
g5
sg4
g8
sg6
g5
sg13
I79
ssg13
I103
ssg13
I123
ssg6
g5
sg13
I147
ssg6
(dp1344
g2
g5
sg4
g8
sg6
(dp1345
g2
g5
sg4
g12
sg6
(dp1346
g2
g5
sg4
g8
sg6
(dp1347
g2
g5
sg4
g3
sg6
(dp1348
g2
g5
sg4
g8
sg6
(dp1349
g2
g5
sg4
g12
sg6
(dp1350
g2
g5
sg4
g3
sg6
g5
sg13
I68
ssg13
I167
ssg13
I161
ssg13
I151
ssg13
I45
ssg13
I162
ssg13
I118
ssg13
I148
ssg13
I21
ssg13
I33
ssg13
I111
sa(dp1351
g2
g3
sg4
g5
sg6
(dp1352
g2
g12
sg4
g8
sg6
(dp1353
g2
(dp1354
g2
g5
sg4
(dp1355
g2
g5
sg4
g12
sg6
g5
sg13
I49
ssg6
g5
sg13
I73
ssg4
(dp1356
g2
g5
sg4
(dp1357
g2
g5
sg4
(dp1358
g2
g5
sg4
(dp1359
g2
g5
sg4
(dp1360
g2
(dp1361
g2
g5
sg4
g8
sg6
g3
sg13
I148
ssg4
(dp1362
g2
g5
sg4
g8
sg6
g5
sg13
I110
ssg6
g12
sg13
I47
ssg6
g5
sg13
I55
ssg6
g5
sg13
I66
ssg6
g8
sg13
I67
ssg6
g12
sg13
I54
ssg6
(dp1363
g2
g3
sg4
g5
sg6
(dp1364
g2
g8
sg4
g5
sg6
(dp1365
g2
g3
sg4
g5
sg6
(dp1366
g2
g5
sg4
g3
sg6
(dp1367
g2
(dp1368
g2
g5
sg4
g12
sg6
g5
sg13
I156
ssg4
g5
sg6
(dp1369
g2
g5
sg4
g8
sg6
(dp1370
g2
g5
sg4
g3
sg6
(dp1371
g2
g5
sg4
(dp1372
g2
g5
sg4
g8
sg6
g12
sg13
I94
ssg6
g5
sg13
I79
ssg13
I64
ssg13
I130
ssg13
I149
ssg13
I28
ssg13
I21
ssg13
I115
ssg13
I35
ssg13
I51
ssg13
I160
ssg13
I81
sa(dp1373
g2
g8
sg4
g3
sg6
(dp1374
g2
g5
sg4
g12
sg6
(dp1375
g2
(dp1376
g2
g5
sg4
(dp1377
g2
g12
sg4
g5
sg6
g8
sg13
I168
ssg6
g5
sg13
I70
ssg4
(dp1378
g2
(dp1379
g2
g5
sg4
g12
sg6
g5
sg13
I109
ssg4
(dp1380
g2
g5
sg4
(dp1381
g2
g12
sg4
(dp1382
g2
g5
sg4
(dp1383
g2
g5
sg4
g8
sg6
g5
sg13
I178
ssg6
g5
sg13
I183
ssg6
g5
sg13
I157
ssg6
g5
sg13
I181
ssg6
(dp1384
g2
g5
sg4
g12
sg6
g5
sg13
I72
ssg13
I159
ssg6
(dp1385
g2
g5
sg4
(dp1386
g2
g8
sg4
(dp1387
g2
g5
sg4
(dp1388
g2
g5
sg4
(dp1389
g2
g5
sg4
(dp1390
g2
g5
sg4
(dp1391
g2
g5
sg4
(dp1392
g2
g5
sg4
(dp1393
g2
g5
sg4
g8
sg6
g3
sg13
I88
ssg6
g5
sg13
I42
ssg6
g5
sg13
I143
ssg6
g5
sg13
I115
ssg6
g5
sg13
I46
ssg6
g5
sg13
I95
ssg6
g5
sg13
I93
ssg6
g5
sg13
I23
ssg6
(dp1394
g2
g5
sg4
g3
sg6
g5
sg13
I47
ssg13
I90
ssg13
I184
ssg13
I30
ssg13
I108
sa(dp1395
g2
g12
sg4
g8
sg6
(dp1396
g2
g5
sg4
g3
sg6
(dp1397
g2
g5
sg4
g3
sg6
(dp1398
g2
(dp1399
g2
g3
sg4
g5
sg6
g8
sg13
I24
ssg4
(dp1400
g2
g5
sg4
(dp1401
g2
g5
sg4
g3
sg6
(dp1402
g2
g5
sg4
g12
sg6
g5
sg13
I18
ssg13
I40
ssg6
g5
sg13
I17
ssg6
(dp1403
g2
g5
sg4
g8
sg6
(dp1404
g2
g12
sg4
g8
sg6
(dp1405
g2
g5
sg4
g3
sg6
(dp1406
g2
g5
sg4
g12
sg6
(dp1407
g2
g5
sg4
g8
sg6
(dp1408
g2
g3
sg4
g8
sg6
(dp1409
g2
g5
sg4
g12
sg6
(dp1410
g2
g5
sg4
g12
sg6
(dp1411
g2
g5
sg4
g5
sg6
(dp1412
g2
g5
sg4
g5
sg6
(dp1413
g2
g5
sg4
g5
sg6
(dp1414
g2
g5
sg4
g5
sg6
(dp1415
g2
g5
sg4
g5
sg6
(dp1416
g2
g5
sg4
g3
sg6
g5
sg13
I187
ssg13
I125
ssg13
I167
ssg13
I138
ssg13
I122
ssg13
I51
ssg13
I4
ssg13
I52
ssg13
I77
ssg13
I120
ssg13
I12
ssg13
I177
ssg13
I110
ssg13
I191
ssg13
I16
ssg13
I151
ssg13
I174
ssg13
I108
sa(dp1417
g2
g8
sg4
g3
sg6
(dp1418
g2
g5
sg4
(dp1419
g2
g12
sg4
(dp1420
g2
g8
sg4
(dp1421
g2
g5
sg4
(dp1422
g2
g3
sg4
(dp1423
g2
g8
sg4
(dp1424
g2
g3
sg4
g12
sg6
g5
sg13
I7
ssg6
g5
sg13
I103
ssg6
(dp1425
g2
g5
sg4
(dp1426
g2
g12
sg4
g5
sg6
g3
sg13
I188
ssg6
g5
sg13
I33
ssg13
I100
ssg6
g5
sg13
I82
ssg6
(dp1427
g2
g5
sg4
g8
sg6
g3
sg13
I143
ssg13
I73
ssg6
(dp1428
g2
g8
sg4
(dp1429
g2
(dp1430
g2
g5
sg4
g3
sg6
g5
sg13
I83
ssg4
g12
sg6
g8
sg13
I2
ssg6
g12
sg13
I13
ssg13
I78
ssg6
(dp1431
g2
(dp1432
g2
g8
sg4
g3
sg6
g5
sg13
I40
ssg4
(dp1433
g2
(dp1434
g2
g5
sg4
g12
sg6
g3
sg13
I124
ssg4
(dp1435
g2
g5
sg4
g12
sg6
(dp1436
g2
g8
sg4
(dp1437
g2
g5
sg4
g8
sg6
g5
sg13
I112
ssg6
g12
sg13
I39
ssg13
I134
ssg6
g3
sg13
I57
ssg6
(dp1438
g2
g8
sg4
g12
sg6
g3
sg13
I95
ssg13
I9
ssg13
I76
ssg13
I162
sa(dp1439
g2
g8
sg4
g12
sg6
(dp1440
g2
g5
sg4
(dp1441
g2
g12
sg4
(dp1442
g2
g5
sg4
(dp1443
g2
g5
sg4
g3
sg6
(dp1444
g2
g5
sg4
g12
sg6
g3
sg13
I144
ssg13
I31
ssg6
g8
sg13
I174
ssg6
(dp1445
g2
g3
sg4
g5
sg6
g8
sg13
I120
ssg13
I172
ssg6
(dp1446
g2
g5
sg4
(dp1447
g2
g5
sg4
(dp1448
g2
g8
sg4
(dp1449
g2
g5
sg4
(dp1450
g2
g3
sg4
(dp1451
g2
g5
sg4
(dp1452
g2
g5
sg4
(dp1453
g2
g5
sg4
(dp1454
g2
g5
sg4
(dp1455
g2
g5
sg4
(dp1456
g2
g5
sg4
(dp1457
g2
g8
sg4
(dp1458
g2
g5
sg4
g12
sg6
g5
sg13
I110
ssg6
g5
sg13
I92
ssg6
g5
sg13
I76
ssg6
g3
sg13
I103
ssg6
g5
sg13
I159
ssg6
g5
sg13
I128
ssg6
g5
sg13
I162
ssg6
g5
sg13
I32
ssg6
g5
sg13
I41
ssg6
g3
sg13
I125
ssg6
g5
sg13
I104
ssg6
(dp1459
g2
g5
sg4
g8
sg6
g12
sg13
I54
ssg13
I127
ssg6
(dp1460
g2
g8
sg4
g5
sg6
g3
sg13
I189
ssg13
I100
ssg13
I171
ssg13
I84
sa(dp1461
g2
g3
sg4
g12
sg6
(dp1462
g2
g12
sg4
g8
sg6
(dp1463
g2
g5
sg4
g12
sg6
(dp1464
g2
g8
sg4
g3
sg6
(dp1465
g2
g5
sg4
g3
sg6
(dp1466
g2
g12
sg4
g8
sg6
(dp1467
g2
g5
sg4
g5
sg6
(dp1468
g2
g5
sg4
g5
sg6
(dp1469
g2
g5
sg4
g5
sg6
(dp1470
g2
g5
sg4
g5
sg6
(dp1471
g2
g5
sg4
g5
sg6
(dp1472
g2
g5
sg4
g5
sg6
(dp1473
g2
g5
sg4
g5
sg6
(dp1474
g2
g5
sg4
g5
sg6
(dp1475
g2
g5
sg4
g5
sg6
(dp1476
g2
g5
sg4
g5
sg6
(dp1477
g2
g5
sg4
g5
sg6
(dp1478
g2
g5
sg4
g5
sg6
(dp1479
g2
g5
sg4
g5
sg6
(dp1480
g2
g5
sg4
g5
sg6
(dp1481
g2
g5
sg4
g5
sg6
(dp1482
g2
g5
sg4
g5
sg6
g5
sg13
I77
ssg13
I79
ssg13
I142
ssg13
I17
ssg13
I138
ssg13
I64
ssg13
I98
ssg13
I102
ssg13
I152
ssg13
I36
ssg13
I57
ssg13
I61
ssg13
I55
ssg13
I143
ssg13
I180
ssg13
I190
ssg13
I171
ssg13
I108
ssg13
I191
ssg13
I50
ssg13
I157
ssg13
I81
sa(dp1483
g2
g5
sg4
g8
sg6
(dp1484
g2
g12
sg4
g5
sg6
(dp1485
g2
g8
sg4
g12
sg6
(dp1486
g2
g3
sg4
g5
sg6
(dp1487
g2
g5
sg4
g3
sg6
(dp1488
g2
g5
sg4
g5
sg6
(dp1489
g2
g5
sg4
g5
sg6
(dp1490
g2
g5
sg4
g5
sg6
(dp1491
g2
g5
sg4
g5
sg6
(dp1492
g2
g5
sg4
g5
sg6
(dp1493
g2
g5
sg4
g5
sg6
(dp1494
g2
g5
sg4
g5
sg6
(dp1495
g2
g5
sg4
g5
sg6
(dp1496
g2
g5
sg4
g5
sg6
(dp1497
g2
g5
sg4
g5
sg6
(dp1498
g2
g5
sg4
g5
sg6
(dp1499
g2
g5
sg4
g5
sg6
(dp1500
g2
g5
sg4
g5
sg6
(dp1501
g2
g5
sg4
g5
sg6
(dp1502
g2
g5
sg4
g5
sg6
(dp1503
g2
g5
sg4
g5
sg6
(dp1504
g2
g5
sg4
g5
sg6
g5
sg13
I145
ssg13
I45
ssg13
I26
ssg13
I102
ssg13
I128
ssg13
I95
ssg13
I55
ssg13
I16
ssg13
I156
ssg13
I11
ssg13
I130
ssg13
I92
ssg13
I120
ssg13
I24
ssg13
I147
ssg13
I119
ssg13
I96
ssg13
I189
ssg13
I12
ssg13
I39
ssg13
I105
ssg13
I72
sa(dp1505
g2
g8
sg4
g5
sg6
(dp1506
g2
g5
sg4
g12
sg6
(dp1507
g2
g5
sg4
g3
sg6
(dp1508
g2
g5
sg4
g12
sg6
(dp1509
g2
g5
sg4
g12
sg6
(dp1510
g2
g5
sg4
g3
sg6
(dp1511
g2
g5
sg4
g8
sg6
(dp1512
g2
g5
sg4
g3
sg6
(dp1513
g2
g5
sg4
g12
sg6
(dp1514
g2
g5
sg4
g12
sg6
(dp1515
g2
g5
sg4
g8
sg6
(dp1516
g2
g5
sg4
g8
sg6
(dp1517
g2
g5
sg4
g8
sg6
(dp1518
g2
g5
sg4
g3
sg6
(dp1519
g2
g5
sg4
g3
sg6
(dp1520
g2
g5
sg4
g5
sg6
(dp1521
g2
g5
sg4
g5
sg6
(dp1522
g2
g5
sg4
g5
sg6
(dp1523
g2
g5
sg4
g5
sg6
(dp1524
g2
g5
sg4
g5
sg6
(dp1525
g2
g5
sg4
g5
sg6
(dp1526
g2
g5
sg4
g5
sg6
g5
sg13
I43
ssg13
I99
ssg13
I51
ssg13
I13
ssg13
I169
ssg13
I151
ssg13
I103
ssg13
I14
ssg13
I12
ssg13
I95
ssg13
I143
ssg13
I70
ssg13
I178
ssg13
I133
ssg13
I80
ssg13
I110
ssg13
I109
ssg13
I161
ssg13
I137
ssg13
I56
ssg13
I154
ssg13
I84
sa(dp1527
g2
g5
sg4
g8
sg6
(dp1528
g2
g12
sg4
g5
sg6
(dp1529
g2
g12
sg4
g3
sg6
(dp1530
g2
g8
sg4
g12
sg6
(dp1531
g2
g5
sg4
g3
sg6
(dp1532
g2
g5
sg4
g8
sg6
(dp1533
g2
g5
sg4
g12
sg6
(dp1534
g2
g5
sg4
g12
sg6
(dp1535
g2
g5
sg4
g8
sg6
(dp1536
g2
g5
sg4
g12
sg6
(dp1537
g2
g5
sg4
g5
sg6
(dp1538
g2
g5
sg4
g5
sg6
(dp1539
g2
g5
sg4
g5
sg6
(dp1540
g2
g5
sg4
g5
sg6
(dp1541
g2
g5
sg4
g8
sg6
(dp1542
g2
g5
sg4
g5
sg6
(dp1543
g2
g5
sg4
g5
sg6
(dp1544
g2
g5
sg4
g5
sg6
(dp1545
g2
g5
sg4
g5
sg6
(dp1546
g2
g5
sg4
g5
sg6
(dp1547
g2
g5
sg4
g5
sg6
(dp1548
g2
g5
sg4
g5
sg6
g5
sg13
I154
ssg13
I179
ssg13
I124
ssg13
I56
ssg13
I172
ssg13
I33
ssg13
I17
ssg13
I118
ssg13
I108
ssg13
I88
ssg13
I52
ssg13
I166
ssg13
I177
ssg13
I91
ssg13
I12
ssg13
I62
ssg13
I23
ssg13
I14
ssg13
I188
ssg13
I129
ssg13
I112
ssg13
I81
sa(dp1549
g2
g5
sg4
g12
sg6
(dp1550
g2
g3
sg4
(dp1551
g2
g5
sg4
(dp1552
g2
g3
sg4
g12
sg6
(dp1553
g2
g5
sg4
(dp1554
g2
g5
sg4
(dp1555
g2
(dp1556
g2
g5
sg4
g12
sg6
g5
sg13
I156
ssg4
g8
sg6
g5
sg13
I169
ssg6
g5
sg13
I24
ssg6
g5
sg13
I162
ssg13
I60
ssg6
(dp1557
g2
g5
sg4
(dp1558
g2
g3
sg4
g5
sg6
g12
sg13
I32
ssg6
g5
sg13
I136
ssg13
I42
ssg6
(dp1559
g2
g5
sg4
(dp1560
g2
(dp1561
g2
g5
sg4
g12
sg6
g5
sg13
I115
ssg4
(dp1562
g2
g5
sg4
g8
sg6
(dp1563
g2
g5
sg4
(dp1564
g2
g5
sg4
g3
sg6
g8
sg13
I27
ssg6
g5
sg13
I79
ssg13
I97
ssg6
(dp1565
g2
g5
sg4
g8
sg6
g5
sg13
I184
ssg13
I103
ssg6
(dp1566
g2
g5
sg4
g3
sg6
(dp1567
g2
g5
sg4
g12
sg6
(dp1568
g2
g5
sg4
g3
sg6
(dp1569
g2
g5
sg4
(dp1570
g2
g5
sg4
g12
sg6
g8
sg13
I28
ssg6
g5
sg13
I58
ssg13
I4
ssg13
I139
ssg13
I134
ssg13
I99
ssg13
I18
ssg13
I129
sa(dp1571
g2
g3
sg4
g8
sg6
(dp1572
g2
g12
sg4
(dp1573
g2
g5
sg4
(dp1574
g2
g5
sg4
(dp1575
g2
g5
sg4
(dp1576
g2
g5
sg4
g12
sg6
g8
sg13
I127
ssg6
g5
sg13
I148
ssg6
(dp1577
g2
g5
sg4
g3
sg6
(dp1578
g2
g8
sg4
g5
sg6
g12
sg13
I191
ssg13
I112
ssg13
I146
ssg6
(dp1579
g2
g5
sg4
g3
sg6
(dp1580
g2
g12
sg4
(dp1581
g2
g12
sg4
g5
sg6
g12
sg13
I18
ssg6
g8
sg13
I174
ssg13
I29
ssg13
I145
ssg6
(dp1582
g2
g8
sg4
g5
sg6
(dp1583
g2
g5
sg4
(dp1584
g2
g5
sg4
g8
sg6
(dp1585
g2
g5
sg4
(dp1586
g2
g12
sg4
g3
sg6
(dp1587
g2
g5
sg4
(dp1588
g2
g5
sg4
g3
sg6
g8
sg13
I25
ssg6
g5
sg13
I46
ssg13
I78
ssg6
g12
sg13
I54
ssg13
I47
ssg6
(dp1589
g2
g5
sg4
g12
sg6
(dp1590
g2
g5
sg4
g3
sg6
(dp1591
g2
g5
sg4
g8
sg6
(dp1592
g2
g5
sg4
g3
sg6
g5
sg13
I37
ssg13
I42
ssg13
I26
ssg13
I167
ssg13
I55
ssg13
I71
ssg13
I151
ssg13
I61
sa(dp1593
g2
g12
sg4
g3
sg6
(dp1594
g2
g5
sg4
(dp1595
g2
g3
sg4
g12
sg6
(dp1596
g2
g5
sg4
(dp1597
g2
g5
sg4
g3
sg6
g8
sg13
I160
ssg6
g12
sg13
I68
ssg13
I25
ssg6
(dp1598
g2
(dp1599
g2
g5
sg4
g3
sg6
g5
sg13
I78
ssg4
(dp1600
g2
(dp1601
g2
(dp1602
g2
g5
sg4
g8
sg6
g5
sg13
I16
ssg4
g8
sg6
g5
sg13
I69
ssg4
(dp1603
g2
g5
sg4
(dp1604
g2
g5
sg4
(dp1605
g2
g5
sg4
(dp1606
g2
g8
sg4
(dp1607
g2
g3
sg4
g5
sg6
g3
sg13
I99
ssg6
g5
sg13
I66
ssg6
g5
sg13
I36
ssg6
g12
sg13
I30
ssg6
g12
sg13
I33
ssg6
g12
sg13
I42
ssg6
(dp1608
g2
g5
sg4
g12
sg6
(dp1609
g2
g3
sg4
g8
sg6
(dp1610
g2
g5
sg4
g3
sg6
(dp1611
g2
g5
sg4
g3
sg6
(dp1612
g2
g5
sg4
g8
sg6
(dp1613
g2
g3
sg4
g8
sg6
(dp1614
g2
g5
sg4
g3
sg6
g5
sg13
I162
ssg13
I141
ssg13
I113
ssg13
I18
ssg13
I121
ssg13
I28
ssg13
I61
ssg13
I39
ssg13
I52
ssg13
I132
sa(dp1615
g2
g3
sg4
g5
sg6
(dp1616
g2
g12
sg4
(dp1617
g2
g8
sg4
(dp1618
g2
g8
sg4
(dp1619
g2
g3
sg4
(dp1620
g2
g12
sg4
(dp1621
g2
g8
sg4
g12
sg6
g8
sg13
I181
ssg6
(dp1622
g2
(dp1623
g2
g5
sg4
g12
sg6
g5
sg13
I180
ssg4
g8
sg6
g5
sg13
I172
ssg13
I135
ssg6
g5
sg13
I190
ssg6
(dp1624
g2
g12
sg4
g8
sg6
g5
sg13
I166
ssg13
I184
ssg6
(dp1625
g2
g5
sg4
(dp1626
g2
g5
sg4
(dp1627
g2
g3
sg4
(dp1628
g2
g5
sg4
g8
sg6
g12
sg13
I15
ssg6
g5
sg13
I40
ssg6
g5
sg13
I136
ssg6
g5
sg13
I64
ssg13
I187
ssg6
(dp1629
g2
(dp1630
g2
g5
sg4
(dp1631
g2
(dp1632
g2
g5
sg4
g8
sg6
g5
sg13
I173
ssg4
g3
sg6
g5
sg13
I50
ssg6
g5
sg13
I132
ssg4
g8
sg6
(dp1633
g2
g5
sg4
g12
sg6
(dp1634
g2
g5
sg4
g8
sg6
(dp1635
g2
g5
sg4
g3
sg6
(dp1636
g2
g5
sg4
g12
sg6
g5
sg13
I76
ssg13
I114
ssg13
I86
ssg13
I26
ssg13
I29
ssg13
I163
ssg13
I81
sa(dp1637
g2
g5
sg4
g8
sg6
(dp1638
g2
g3
sg4
g12
sg6
(dp1639
g2
g5
sg4
g3
sg6
(dp1640
g2
g5
sg4
g3
sg6
(dp1641
g2
g3
sg4
g5
sg6
(dp1642
g2
g5
sg4
g8
sg6
(dp1643
g2
g5
sg4
g5
sg6
(dp1644
g2
g5
sg4
g5
sg6
(dp1645
g2
g5
sg4
g5
sg6
(dp1646
g2
g5
sg4
g5
sg6
(dp1647
g2
g5
sg4
g5
sg6
(dp1648
g2
g5
sg4
g5
sg6
(dp1649
g2
g5
sg4
g5
sg6
(dp1650
g2
g5
sg4
g5
sg6
(dp1651
g2
g5
sg4
g5
sg6
(dp1652
g2
g5
sg4
g5
sg6
(dp1653
g2
g5
sg4
g5
sg6
(dp1654
g2
g5
sg4
g5
sg6
(dp1655
g2
g5
sg4
g5
sg6
(dp1656
g2
g5
sg4
g5
sg6
(dp1657
g2
g5
sg4
g5
sg6
(dp1658
g2
g5
sg4
g5
sg6
g5
sg13
I13
ssg13
I1
ssg13
I76
ssg13
I89
ssg13
I21
ssg13
I34
ssg13
I57
ssg13
I141
ssg13
I28
ssg13
I119
ssg13
I151
ssg13
I15
ssg13
I27
ssg13
I81
ssg13
I117
ssg13
I50
ssg13
I52
ssg13
I20
ssg13
I90
ssg13
I153
ssg13
I156
ssg13
I103
sa(dp1659
g2
g3
sg4
g8
sg6
(dp1660
g2
g5
sg4
(dp1661
g2
g5
sg4
(dp1662
g2
g5
sg4
g12
sg6
(dp1663
g2
g5
sg4
(dp1664
g2
g5
sg4
(dp1665
g2
g5
sg4
(dp1666
g2
g5
sg4
g3
sg6
g5
sg13
I125
ssg6
g5
sg13
I102
ssg6
g5
sg13
I163
ssg6
g5
sg13
I103
ssg13
I120
ssg6
(dp1667
g2
g8
sg4
g3
sg6
g5
sg13
I162
ssg13
I124
ssg6
(dp1668
g2
g12
sg4
(dp1669
g2
g5
sg4
(dp1670
g2
g5
sg4
(dp1671
g2
g5
sg4
(dp1672
g2
g5
sg4
(dp1673
g2
g3
sg4
(dp1674
g2
(dp1675
g2
g5
sg4
g3
sg6
g8
sg13
I49
ssg4
g5
sg6
g12
sg13
I95
ssg6
g5
sg13
I15
ssg6
g5
sg13
I18
ssg6
g8
sg13
I7
ssg6
g8
sg13
I16
ssg6
g8
sg13
I6
ssg6
(dp1676
g2
g5
sg4
g3
sg6
(dp1677
g2
(dp1678
g2
g5
sg4
g8
sg6
g5
sg13
I152
ssg4
g8
sg6
(dp1679
g2
g5
sg4
(dp1680
g2
g5
sg4
g3
sg6
g12
sg13
I136
ssg6
g5
sg13
I3
ssg13
I119
ssg13
I35
ssg13
I9
ssg13
I123
ssg13
I61
sa(dp1681
g2
g8
sg4
g3
sg6
(dp1682
g2
g12
sg4
(dp1683
g2
g3
sg4
(dp1684
g2
g12
sg4
(dp1685
g2
g5
sg4
(dp1686
g2
g5
sg4
g12
sg6
g5
sg13
I148
ssg6
g5
sg13
I182
ssg6
g12
sg13
I180
ssg6
g5
sg13
I189
ssg6
(dp1687
g2
(dp1688
g2
g3
sg4
g3
sg6
g5
sg13
I12
ssg4
(dp1689
g2
(dp1690
g2
g5
sg4
g3
sg6
g5
sg13
I98
ssg4
(dp1691
g2
(dp1692
g2
g5
sg4
(dp1693
g2
g5
sg4
(dp1694
g2
(dp1695
g2
g8
sg4
g3
sg6
g5
sg13
I94
ssg4
g8
sg6
g5
sg13
I20
ssg6
g5
sg13
I91
ssg6
g5
sg13
I27
ssg4
(dp1696
g2
g5
sg4
(dp1697
g2
g3
sg4
(dp1698
g2
g8
sg4
(dp1699
g2
g5
sg4
(dp1700
g2
g5
sg4
g8
sg6
g3
sg13
I93
ssg6
g5
sg13
I31
ssg6
g5
sg13
I33
ssg6
g5
sg13
I47
ssg6
g5
sg13
I21
ssg6
g8
sg13
I22
ssg6
g3
sg13
I49
ssg6
(dp1701
g2
(dp1702
g2
g8
sg4
g3
sg6
g12
sg13
I23
ssg4
g5
sg6
g8
sg13
I159
ssg13
I25
ssg13
I173
ssg13
I87
sa(dp1703
g2
g5
sg4
g3
sg6
(dp1704
g2
g8
sg4
g3
sg6
(dp1705
g2
g12
sg4
(dp1706
g2
g3
sg4
(dp1707
g2
g5
sg4
(dp1708
g2
g5
sg4
(dp1709
g2
g5
sg4
(dp1710
g2
g5
sg4
(dp1711
g2
g12
sg4
(dp1712
g2
g5
sg4
(dp1713
g2
g5
sg4
(dp1714
g2
g5
sg4
(dp1715
g2
g5
sg4
(dp1716
g2
g5
sg4
g12
sg6
g5
sg13
I98
ssg6
g5
sg13
I22
ssg6
g5
sg13
I167
ssg6
g5
sg13
I71
ssg6
g5
sg13
I47
ssg6
g8
sg13
I190
ssg6
g5
sg13
I95
ssg6
g5
sg13
I14
ssg6
g5
sg13
I182
ssg6
g5
sg13
I179
ssg6
(dp1717
g2
g12
sg4
g3
sg6
g12
sg13
I101
ssg13
I23
ssg6
(dp1718
g2
g5
sg4
g3
sg6
(dp1719
g2
(dp1720
g2
g12
sg4
g5
sg6
g12
sg13
I146
ssg4
g5
sg6
(dp1721
g2
g5
sg4
g3
sg6
(dp1722
g2
g5
sg4
g3
sg6
(dp1723
g2
g5
sg4
g8
sg6
(dp1724
g2
g3
sg4
g5
sg6
g12
sg13
I119
ssg13
I50
ssg13
I27
ssg13
I60
ssg13
I173
ssg13
I110
ssg13
I191
ssg13
I88
ssg13
I102
sa(dp1725
g2
g3
sg4
g5
sg6
(dp1726
g2
g12
sg4
(dp1727
g2
g8
sg4
g12
sg6
(dp1728
g2
g5
sg4
(dp1729
g2
g5
sg4
(dp1730
g2
g3
sg4
g5
sg6
g8
sg13
I11
ssg6
(dp1731
g2
g5
sg4
g12
sg6
g8
sg13
I78
ssg13
I40
ssg6
g5
sg13
I153
ssg13
I187
ssg6
(dp1732
g2
(dp1733
g2
(dp1734
g2
g5
sg4
g3
sg6
g12
sg13
I131
ssg4
g8
sg6
g5
sg13
I81
ssg4
(dp1735
g2
g5
sg4
(dp1736
g2
g5
sg4
(dp1737
g2
g5
sg4
(dp1738
g2
g5
sg4
(dp1739
g2
g5
sg4
(dp1740
g2
g5
sg4
(dp1741
g2
g12
sg4
(dp1742
g2
g5
sg4
g3
sg6
g5
sg13
I166
ssg6
g5
sg13
I117
ssg6
g12
sg13
I150
ssg6
g5
sg13
I126
ssg6
g8
sg13
I151
ssg6
g5
sg13
I120
ssg6
g12
sg13
I147
ssg6
(dp1743
g2
(dp1744
g2
g5
sg4
g3
sg6
g5
sg13
I54
ssg4
g12
sg6
g5
sg13
I84
ssg13
I148
ssg6
(dp1745
g2
g3
sg4
(dp1746
g2
g3
sg4
g12
sg6
g5
sg13
I72
ssg6
g8
sg13
I95
ssg13
I102
ssg13
I183
ssg13
I28
sa(dp1747
g2
g12
sg4
g5
sg6
(dp1748
g2
g5
sg4
g8
sg6
(dp1749
g2
g8
sg4
(dp1750
g2
g3
sg4
(dp1751
g2
g5
sg4
g3
sg6
g5
sg13
I90
ssg6
(dp1752
g2
g5
sg4
(dp1753
g2
g5
sg4
(dp1754
g2
g5
sg4
(dp1755
g2
g5
sg4
(dp1756
g2
g3
sg4
g12
sg6
g3
sg13
I48
ssg6
g5
sg13
I128
ssg6
g5
sg13
I26
ssg6
g8
sg13
I146
ssg6
g5
sg13
I0
ssg13
I27
ssg6
(dp1757
g2
g5
sg4
(dp1758
g2
g5
sg4
(dp1759
g2
g12
sg4
(dp1760
g2
g5
sg4
(dp1761
g2
(dp1762
g2
g5
sg4
g3
sg6
g5
sg13
I119
ssg4
g3
sg6
g12
sg13
I10
ssg6
g8
sg13
I33
ssg6
g12
sg13
I77
ssg6
(dp1763
g2
g12
sg4
g3
sg6
g5
sg13
I176
ssg13
I54
ssg6
(dp1764
g2
g8
sg4
g12
sg6
(dp1765
g2
g5
sg4
g3
sg6
(dp1766
g2
g8
sg4
g12
sg6
(dp1767
g2
g5
sg4
g8
sg6
(dp1768
g2
g5
sg4
g3
sg6
g12
sg13
I40
ssg13
I117
ssg13
I23
ssg13
I5
ssg13
I161
ssg13
I51
ssg13
I24
ssg13
I186
ssg13
I108
sa(dp1769
g2
g5
sg4
g8
sg6
(dp1770
g2
g8
sg4
(dp1771
g2
g12
sg4
(dp1772
g2
g12
sg4
(dp1773
g2
g12
sg4
(dp1774
g2
(dp1775
g2
g8
sg4
g3
sg6
g5
sg13
I58
ssg4
(dp1776
g2
g5
sg4
g3
sg6
g5
sg13
I2
ssg6
(dp1777
g2
g5
sg4
g12
sg6
g5
sg13
I54
ssg13
I11
ssg6
g3
sg13
I131
ssg6
g8
sg13
I132
ssg6
(dp1778
g2
g5
sg4
(dp1779
g2
(dp1780
g2
g12
sg4
g5
sg6
g8
sg13
I63
ssg4
g5
sg6
g3
sg13
I143
ssg6
g5
sg13
I25
ssg13
I130
ssg6
(dp1781
g2
(dp1782
g2
g12
sg4
g5
sg6
(dp1783
g2
g8
sg4
(dp1784
g2
g12
sg4
g5
sg6
g12
sg13
I100
ssg6
g5
sg13
I128
ssg13
I141
ssg4
(dp1785
g2
g3
sg4
g12
sg6
g8
sg13
I91
ssg6
(dp1786
g2
g3
sg4
g12
sg6
(dp1787
g2
g5
sg4
g12
sg6
(dp1788
g2
g5
sg4
g12
sg6
(dp1789
g2
g5
sg4
g3
sg6
(dp1790
g2
g5
sg4
g8
sg6
g5
sg13
I138
ssg13
I15
ssg13
I152
ssg13
I37
ssg13
I0
ssg13
I122
ssg13
I43
ssg13
I78
sa(dp1791
g2
g12
sg4
g5
sg6
(dp1792
g2
g5
sg4
(dp1793
g2
g3
sg4
(dp1794
g2
g8
sg4
(dp1795
g2
g3
sg4
(dp1796
g2
g5
sg4
(dp1797
g2
g3
sg4
(dp1798
g2
g5
sg4
(dp1799
g2
g5
sg4
g12
sg6
g5
sg13
I52
ssg6
g5
sg13
I72
ssg6
g5
sg13
I75
ssg6
g5
sg13
I0
ssg6
(dp1800
g2
g8
sg4
g5
sg6
g12
sg13
I17
ssg13
I25
ssg6
(dp1801
g2
g12
sg4
g3
sg6
g8
sg13
I151
ssg13
I48
ssg6
(dp1802
g2
(dp1803
g2
g8
sg4
g5
sg6
g12
sg13
I117
ssg4
g5
sg6
g3
sg13
I186
ssg13
I30
ssg6
(dp1804
g2
g12
sg4
g5
sg6
(dp1805
g2
g5
sg4
g3
sg6
(dp1806
g2
(dp1807
g2
g5
sg4
g12
sg6
g5
sg13
I100
ssg4
g12
sg6
(dp1808
g2
(dp1809
g2
g5
sg4
g12
sg6
g8
sg13
I76
ssg4
g12
sg6
(dp1810
g2
g5
sg4
(dp1811
g2
g3
sg4
g8
sg6
g12
sg13
I71
ssg6
(dp1812
g2
g5
sg4
g12
sg6
g5
sg13
I161
ssg13
I165
ssg13
I184
ssg13
I170
ssg13
I2
ssg13
I3
ssg13
I27
ssg13
I105
sa(dp1813
g2
g5
sg4
g8
sg6
(dp1814
g2
g3
sg4
(dp1815
g2
g3
sg4
(dp1816
g2
g3
sg4
(dp1817
g2
g12
sg4
(dp1818
g2
g8
sg4
g3
sg6
g5
sg13
I115
ssg6
g5
sg13
I63
ssg6
(dp1819
g2
(dp1820
g2
g12
sg4
g5
sg6
g3
sg13
I190
ssg4
(dp1821
g2
g8
sg4
g5
sg6
g8
sg13
I97
ssg6
g12
sg13
I3
ssg13
I64
ssg6
(dp1822
g2
g5
sg4
(dp1823
g2
g8
sg4
g5
sg6
g12
sg13
I54
ssg6
g5
sg13
I45
ssg13
I40
ssg6
(dp1824
g2
(dp1825
g2
g5
sg4
g12
sg6
(dp1826
g2
g5
sg4
g12
sg6
g5
sg13
I133
ssg13
I109
ssg4
(dp1827
g2
g12
sg4
(dp1828
g2
g5
sg4
(dp1829
g2
(dp1830
g2
g5
sg4
g12
sg6
g3
sg13
I78
ssg4
(dp1831
g2
g5
sg4
g12
sg6
g5
sg13
I168
ssg6
(dp1832
g2
g5
sg4
(dp1833
g2
g5
sg4
g12
sg6
g8
sg13
I157
ssg6
g5
sg13
I127
ssg13
I189
ssg6
g5
sg13
I148
ssg6
g3
sg13
I151
ssg6
(dp1834
g2
g5
sg4
g3
sg6
g5
sg13
I22
ssg13
I150
ssg13
I39
ssg13
I105
sa(dp1835
g2
g5
sg4
g3
sg6
(dp1836
g2
g8
sg4
(dp1837
g2
g3
sg4
(dp1838
g2
g8
sg4
(dp1839
g2
g8
sg4
(dp1840
g2
g3
sg4
(dp1841
g2
g5
sg4
(dp1842
g2
g8
sg4
(dp1843
g2
g5
sg4
(dp1844
g2
g5
sg4
(dp1845
g2
g5
sg4
(dp1846
g2
g5
sg4
(dp1847
g2
g3
sg4
(dp1848
g2
g5
sg4
g12
sg6
g5
sg13
I115
ssg6
g5
sg13
I97
ssg6
g8
sg13
I108
ssg6
g5
sg13
I111
ssg6
g5
sg13
I99
ssg6
g5
sg13
I187
ssg6
g5
sg13
I114
ssg6
g5
sg13
I105
ssg6
g5
sg13
I181
ssg6
g5
sg13
I135
ssg6
(dp1849
g2
g5
sg4
g12
sg6
g8
sg13
I170
ssg13
I138
ssg6
(dp1850
g2
g5
sg4
(dp1851
g2
g3
sg4
g5
sg6
g3
sg13
I31
ssg6
g5
sg13
I148
ssg13
I136
ssg6
(dp1852
g2
g12
sg4
(dp1853
g2
g5
sg4
(dp1854
g2
g5
sg4
(dp1855
g2
g5
sg4
(dp1856
g2
g12
sg4
g3
sg6
g8
sg13
I178
ssg6
g5
sg13
I104
ssg6
g3
sg13
I102
ssg6
g12
sg13
I160
ssg6
g5
sg13
I161
ssg13
I112
ssg13
I58
sa(dp1857
g2
g12
sg4
g5
sg6
(dp1858
g2
g8
sg4
(dp1859
g2
g8
sg4
(dp1860
g2
g5
sg4
(dp1861
g2
g8
sg4
g3
sg6
g8
sg13
I42
ssg6
(dp1862
g2
g12
sg4
g5
sg6
g3
sg13
I143
ssg13
I3
ssg6
(dp1863
g2
g5
sg4
g3
sg6
g12
sg13
I78
ssg13
I66
ssg6
(dp1864
g2
(dp1865
g2
g5
sg4
g3
sg6
(dp1866
g2
g5
sg4
g3
sg6
g5
sg13
I74
ssg13
I111
ssg4
(dp1867
g2
(dp1868
g2
g5
sg4
g8
sg6
g3
sg13
I186
ssg4
(dp1869
g2
g5
sg4
(dp1870
g2
g5
sg4
(dp1871
g2
g8
sg4
(dp1872
g2
(dp1873
g2
g5
sg4
g3
sg6
g8
sg13
I109
ssg4
g12
sg6
g3
sg13
I48
ssg6
g5
sg13
I142
ssg6
g12
sg13
I103
ssg6
(dp1874
g2
g5
sg4
g8
sg6
g5
sg13
I5
ssg13
I102
ssg6
g12
sg13
I25
ssg6
(dp1875
g2
g8
sg4
g3
sg6
(dp1876
g2
g8
sg4
g12
sg6
(dp1877
g2
g8
sg4
(dp1878
g2
g5
sg4
g3
sg6
g5
sg13
I16
ssg6
g12
sg13
I177
ssg13
I167
ssg13
I108
ssg13
I1
ssg13
I90
ssg13
I130
sa(dp1879
g2
g5
sg4
g12
sg6
(dp1880
g2
g12
sg4
g5
sg6
(dp1881
g2
g8
sg4
g3
sg6
(dp1882
g2
g3
sg4
g12
sg6
(dp1883
g2
g5
sg4
g5
sg6
(dp1884
g2
g5
sg4
g5
sg6
(dp1885
g2
g5
sg4
g5
sg6
(dp1886
g2
g5
sg4
g5
sg6
(dp1887
g2
g5
sg4
g5
sg6
(dp1888
g2
g5
sg4
g5
sg6
(dp1889
g2
g5
sg4
g5
sg6
(dp1890
g2
g5
sg4
g5
sg6
(dp1891
g2
g5
sg4
g5
sg6
(dp1892
g2
g5
sg4
g5
sg6
(dp1893
g2
g5
sg4
g5
sg6
(dp1894
g2
g5
sg4
g5
sg6
(dp1895
g2
g5
sg4
g5
sg6
(dp1896
g2
g5
sg4
g5
sg6
(dp1897
g2
g5
sg4
g5
sg6
(dp1898
g2
g5
sg4
g5
sg6
(dp1899
g2
g5
sg4
g5
sg6
(dp1900
g2
g5
sg4
g5
sg6
g5
sg13
I122
ssg13
I69
ssg13
I159
ssg13
I156
ssg13
I190
ssg13
I70
ssg13
I178
ssg13
I24
ssg13
I172
ssg13
I48
ssg13
I124
ssg13
I121
ssg13
I58
ssg13
I0
ssg13
I138
ssg13
I149
ssg13
I66
ssg13
I87
ssg13
I9
ssg13
I71
ssg13
I180
ssg13
I105
sa(dp1901
g2
g12
sg4
g5
sg6
(dp1902
g2
g3
sg4
g8
sg6
(dp1903
g2
g12
sg4
g5
sg6
(dp1904
g2
g3
sg4
g8
sg6
(dp1905
g2
g3
sg4
g8
sg6
(dp1906
g2
g8
sg4
g12
sg6
(dp1907
g2
g5
sg4
g3
sg6
(dp1908
g2
g8
sg4
g12
sg6
(dp1909
g2
g5
sg4
g5
sg6
(dp1910
g2
g5
sg4
g5
sg6
(dp1911
g2
g5
sg4
g5
sg6
(dp1912
g2
g5
sg4
g5
sg6
(dp1913
g2
g5
sg4
g5
sg6
(dp1914
g2
g5
sg4
g5
sg6
(dp1915
g2
g5
sg4
g5
sg6
(dp1916
g2
g5
sg4
g5
sg6
(dp1917
g2
g5
sg4
g5
sg6
(dp1918
g2
g5
sg4
g5
sg6
(dp1919
g2
g5
sg4
g5
sg6
(dp1920
g2
g5
sg4
g5
sg6
(dp1921
g2
g5
sg4
g5
sg6
(dp1922
g2
g5
sg4
g5
sg6
g5
sg13
I18
ssg13
I47
ssg13
I164
ssg13
I2
ssg13
I37
ssg13
I108
ssg13
I53
ssg13
I84
ssg13
I146
ssg13
I129
ssg13
I14
ssg13
I181
ssg13
I149
ssg13
I34
ssg13
I147
ssg13
I58
ssg13
I156
ssg13
I80
ssg13
I21
ssg13
I128
ssg13
I90
ssg13
I105
sa(dp1923
g2
g8
sg4
g3
sg6
(dp1924
g2
g12
sg4
(dp1925
g2
g12
sg4
g5
sg6
g8
sg13
I172
ssg6
(dp1926
g2
(dp1927
g2
g5
sg4
g3
sg6
(dp1928
g2
g5
sg4
g3
sg6
g5
sg13
I12
ssg13
I143
ssg4
(dp1929
g2
g5
sg4
g3
sg6
g8
sg13
I125
ssg6
(dp1930
g2
(dp1931
g2
(dp1932
g2
g5
sg4
g8
sg6
g5
sg13
I63
ssg4
(dp1933
g2
g8
sg4
g12
sg6
g5
sg13
I188
ssg6
g5
sg13
I94
ssg4
g12
sg6
(dp1934
g2
g5
sg4
g3
sg6
(dp1935
g2
g5
sg4
(dp1936
g2
g5
sg4
(dp1937
g2
g5
sg4
(dp1938
g2
g5
sg4
(dp1939
g2
g5
sg4
(dp1940
g2
g5
sg4
(dp1941
g2
g5
sg4
(dp1942
g2
g5
sg4
(dp1943
g2
g5
sg4
g3
sg6
g5
sg13
I90
ssg6
g5
sg13
I91
ssg6
g5
sg13
I115
ssg6
g8
sg13
I10
ssg6
g5
sg13
I9
ssg6
g5
sg13
I33
ssg6
g5
sg13
I30
ssg6
g5
sg13
I31
ssg6
(dp1944
g2
g5
sg4
g12
sg6
g5
sg13
I156
ssg13
I114
ssg13
I98
ssg13
I95
ssg13
I8
ssg13
I154
ssg13
I84
sa(dp1945
g2
g5
sg4
g12
sg6
(dp1946
g2
g8
sg4
(dp1947
g2
(dp1948
g2
(dp1949
g2
g5
sg4
g12
sg6
(dp1950
g2
g5
sg4
g8
sg6
g5
sg13
I158
ssg13
I107
ssg4
g3
sg6
g5
sg13
I90
ssg4
(dp1951
g2
g12
sg4
(dp1952
g2
g12
sg4
(dp1953
g2
g3
sg4
(dp1954
g2
g8
sg4
(dp1955
g2
g5
sg4
(dp1956
g2
(dp1957
g2
g5
sg4
g3
sg6
g5
sg13
I56
ssg4
g3
sg6
g8
sg13
I157
ssg6
g5
sg13
I42
ssg6
g12
sg13
I39
ssg6
g3
sg13
I43
ssg6
g5
sg13
I139
ssg6
(dp1958
g2
g5
sg4
g3
sg6
g5
sg13
I86
ssg13
I187
ssg6
(dp1959
g2
g5
sg4
(dp1960
g2
g3
sg4
g5
sg6
g12
sg13
I119
ssg6
g5
sg13
I163
ssg13
I66
ssg6
(dp1961
g2
(dp1962
g2
g8
sg4
g5
sg6
g12
sg13
I172
ssg4
(dp1963
g2
g5
sg4
(dp1964
g2
g5
sg4
(dp1965
g2
g5
sg4
g3
sg6
(dp1966
g2
g12
sg4
g5
sg6
g8
sg13
I176
ssg13
I9
ssg6
g5
sg13
I112
ssg6
g5
sg13
I111
ssg6
g5
sg13
I26
ssg13
I162
ssg13
I81
sa(dp1967
g2
g5
sg4
g3
sg6
(dp1968
g2
g8
sg4
(dp1969
g2
g5
sg4
(dp1970
g2
g5
sg4
(dp1971
g2
g5
sg4
(dp1972
g2
g3
sg4
(dp1973
g2
g5
sg4
(dp1974
g2
g3
sg4
(dp1975
g2
g5
sg4
(dp1976
g2
g3
sg4
(dp1977
g2
g5
sg4
(dp1978
g2
g5
sg4
(dp1979
g2
g5
sg4
(dp1980
g2
g12
sg4
g8
sg6
g5
sg13
I45
ssg6
g5
sg13
I46
ssg6
g5
sg13
I38
ssg6
g5
sg13
I17
ssg6
g5
sg13
I111
ssg6
g5
sg13
I12
ssg6
g5
sg13
I87
ssg6
g5
sg13
I47
ssg6
g3
sg13
I84
ssg6
g8
sg13
I36
ssg6
g5
sg13
I92
ssg6
(dp1981
g2
g5
sg4
(dp1982
g2
g5
sg4
(dp1983
g2
g5
sg4
(dp1984
g2
g5
sg4
(dp1985
g2
g5
sg4
(dp1986
g2
g5
sg4
g12
sg6
g8
sg13
I125
ssg6
g3
sg13
I167
ssg6
g5
sg13
I122
ssg6
g5
sg13
I8
ssg6
g5
sg13
I185
ssg6
g5
sg13
I11
ssg13
I21
ssg6
(dp1987
g2
g12
sg4
(dp1988
g2
g5
sg4
g12
sg6
g5
sg13
I66
ssg6
g3
sg13
I146
ssg13
I71
ssg13
I106
sa(dp1989
g2
g8
sg4
g5
sg6
(dp1990
g2
g5
sg4
(dp1991
g2
g12
sg4
g3
sg6
(dp1992
g2
g5
sg4
(dp1993
g2
g3
sg4
(dp1994
g2
g5
sg4
g12
sg6
g8
sg13
I147
ssg6
g5
sg13
I161
ssg6
g3
sg13
I146
ssg13
I7
ssg6
(dp1995
g2
(dp1996
g2
g12
sg4
g5
sg6
g8
sg13
I124
ssg4
(dp1997
g2
g12
sg4
(dp1998
g2
(dp1999
g2
g5
sg4
g8
sg6
g3
sg13
I93
ssg4
(dp2000
g2
(dp2001
g2
g5
sg4
g3
sg6
g5
sg13
I26
ssg4
g8
sg6
g12
sg13
I177
ssg6
g5
sg13
I139
ssg6
(dp2002
g2
g5
sg4
g5
sg6
(dp2003
g2
g5
sg4
g5
sg6
g3
sg13
I125
ssg13
I107
ssg13
I164
ssg6
(dp2004
g2
(dp2005
g2
(dp2006
g2
g12
sg4
g8
sg6
g5
sg13
I180
ssg4
g8
sg6
g12
sg13
I97
ssg4
g5
sg6
(dp2007
g2
g5
sg4
g3
sg6
(dp2008
g2
g5
sg4
g8
sg6
(dp2009
g2
g5
sg4
g12
sg6
(dp2010
g2
g5
sg4
g3
sg6
g5
sg13
I153
ssg13
I12
ssg13
I52
ssg13
I41
ssg13
I120
ssg13
I143
ssg13
I55
ssg13
I84
sa(dp2011
g2
g8
sg4
g12
sg6
(dp2012
g2
g12
sg4
g5
sg6
(dp2013
g2
g3
sg4
g8
sg6
(dp2014
g2
g3
sg4
g8
sg6
(dp2015
g2
g5
sg4
g8
sg6
(dp2016
g2
g5
sg4
g8
sg6
(dp2017
g2
g5
sg4
g12
sg6
(dp2018
g2
g5
sg4
g3
sg6
(dp2019
g2
g5
sg4
g3
sg6
(dp2020
g2
g5
sg4
g12
sg6
(dp2021
g2
g5
sg4
g3
sg6
(dp2022
g2
g5
sg4
g5
sg6
(dp2023
g2
g5
sg4
g5
sg6
(dp2024
g2
g5
sg4
g5
sg6
(dp2025
g2
g5
sg4
g5
sg6
(dp2026
g2
g5
sg4
g5
sg6
(dp2027
g2
g5
sg4
g5
sg6
(dp2028
g2
g5
sg4
g5
sg6
(dp2029
g2
g5
sg4
g5
sg6
(dp2030
g2
g5
sg4
g5
sg6
(dp2031
g2
g5
sg4
g5
sg6
(dp2032
g2
g5
sg4
g5
sg6
g5
sg13
I47
ssg13
I81
ssg13
I44
ssg13
I157
ssg13
I76
ssg13
I54
ssg13
I187
ssg13
I25
ssg13
I9
ssg13
I53
ssg13
I171
ssg13
I49
ssg13
I108
ssg13
I184
ssg13
I97
ssg13
I143
ssg13
I23
ssg13
I20
ssg13
I17
ssg13
I103
ssg13
I172
ssg13
I84
sa(dp2033
g2
g5
sg4
g8
sg6
(dp2034
g2
g5
sg4
g8
sg6
(dp2035
g2
g12
sg4
(dp2036
g2
g3
sg4
(dp2037
g2
(dp2038
g2
g5
sg4
g3
sg6
g5
sg13
I23
ssg4
(dp2039
g2
g12
sg4
(dp2040
g2
g5
sg4
(dp2041
g2
g8
sg4
g3
sg6
g12
sg13
I18
ssg6
g5
sg13
I89
ssg6
g12
sg13
I92
ssg6
g5
sg13
I67
ssg6
(dp2042
g2
g5
sg4
g8
sg6
g5
sg13
I177
ssg13
I65
ssg6
(dp2043
g2
g3
sg4
(dp2044
g2
(dp2045
g2
g5
sg4
g12
sg6
g5
sg13
I5
ssg4
(dp2046
g2
g5
sg4
g3
sg6
g5
sg13
I97
ssg6
g5
sg13
I38
ssg6
(dp2047
g2
g5
sg4
g3
sg6
(dp2048
g2
g5
sg4
g8
sg6
(dp2049
g2
g5
sg4
g12
sg6
(dp2050
g2
g5
sg4
g3
sg6
(dp2051
g2
g5
sg4
g3
sg6
(dp2052
g2
g5
sg4
g12
sg6
(dp2053
g2
g5
sg4
g8
sg6
(dp2054
g2
g5
sg4
g3
sg6
g5
sg13
I42
ssg13
I85
ssg13
I179
ssg13
I100
ssg13
I78
ssg13
I189
ssg13
I95
ssg13
I11
ssg13
I4
ssg13
I136
ssg13
I156
ssg13
I75
sa(dp2055
g2
g8
sg4
g3
sg6
(dp2056
g2
g12
sg4
(dp2057
g2
g12
sg4
(dp2058
g2
g5
sg4
g12
sg6
(dp2059
g2
g5
sg4
(dp2060
g2
g5
sg4
(dp2061
g2
g5
sg4
(dp2062
g2
g5
sg4
g3
sg6
g8
sg13
I182
ssg6
g12
sg13
I168
ssg6
g5
sg13
I102
ssg6
g5
sg13
I144
ssg13
I98
ssg6
(dp2063
g2
g3
sg4
g5
sg6
g12
sg13
I45
ssg13
I121
ssg6
(dp2064
g2
(dp2065
g2
(dp2066
g2
(dp2067
g2
g8
sg4
g5
sg6
g8
sg13
I19
ssg4
g3
sg6
g5
sg13
I95
ssg4
(dp2068
g2
g5
sg4
g3
sg6
g8
sg13
I12
ssg6
g8
sg13
I46
ssg4
(dp2069
g2
g3
sg4
g8
sg6
g5
sg13
I2
ssg6
(dp2070
g2
g5
sg4
g3
sg6
(dp2071
g2
g5
sg4
g8
sg6
(dp2072
g2
g5
sg4
g12
sg6
(dp2073
g2
g5
sg4
g12
sg6
(dp2074
g2
g5
sg4
g8
sg6
(dp2075
g2
g5
sg4
g3
sg6
(dp2076
g2
g3
sg4
g8
sg6
g5
sg13
I93
ssg13
I116
ssg13
I164
ssg13
I147
ssg13
I52
ssg13
I106
ssg13
I21
ssg13
I71
ssg13
I145
ssg13
I87
sa(dp2077
g2
g5
sg4
g8
sg6
(dp2078
g2
g8
sg4
g12
sg6
(dp2079
g2
g12
sg4
g5
sg6
(dp2080
g2
g5
sg4
g3
sg6
(dp2081
g2
g5
sg4
g5
sg6
(dp2082
g2
g3
sg4
g5
sg6
(dp2083
g2
g5
sg4
g5
sg6
(dp2084
g2
g5
sg4
g5
sg6
(dp2085
g2
g5
sg4
g5
sg6
(dp2086
g2
g5
sg4
g5
sg6
(dp2087
g2
g5
sg4
g5
sg6
(dp2088
g2
g5
sg4
g5
sg6
(dp2089
g2
g5
sg4
g5
sg6
(dp2090
g2
g5
sg4
g5
sg6
(dp2091
g2
g5
sg4
g5
sg6
(dp2092
g2
g5
sg4
g5
sg6
(dp2093
g2
g5
sg4
g5
sg6
(dp2094
g2
g5
sg4
g5
sg6
(dp2095
g2
g5
sg4
g5
sg6
(dp2096
g2
g5
sg4
g5
sg6
(dp2097
g2
g5
sg4
g5
sg6
(dp2098
g2
g5
sg4
g5
sg6
g5
sg13
I26
ssg13
I39
ssg13
I121
ssg13
I55
ssg13
I134
ssg13
I152
ssg13
I29
ssg13
I105
ssg13
I161
ssg13
I125
ssg13
I84
ssg13
I168
ssg13
I10
ssg13
I132
ssg13
I149
ssg13
I15
ssg13
I20
ssg13
I74
ssg13
I56
ssg13
I173
ssg13
I116
ssg13
I79
sa(dp2099
g2
g5
sg4
g3
sg6
(dp2100
g2
(dp2101
g2
(dp2102
g2
g8
sg4
(dp2103
g2
g12
sg4
g8
sg6
g5
sg13
I164
ssg6
g5
sg13
I136
ssg4
(dp2104
g2
(dp2105
g2
g5
sg4
g12
sg6
g5
sg13
I168
ssg4
(dp2106
g2
g12
sg4
g3
sg6
g5
sg13
I191
ssg6
g5
sg13
I145
ssg6
g5
sg13
I167
ssg4
(dp2107
g2
g3
sg4
g8
sg6
(dp2108
g2
g12
sg4
g8
sg6
(dp2109
g2
g5
sg4
g12
sg6
g8
sg13
I185
ssg13
I104
ssg13
I44
ssg6
(dp2110
g2
(dp2111
g2
g8
sg4
g5
sg6
g3
sg13
I71
ssg4
g8
sg6
(dp2112
g2
g5
sg4
g12
sg6
(dp2113
g2
g5
sg4
g8
sg6
(dp2114
g2
g5
sg4
g3
sg6
(dp2115
g2
g5
sg4
g3
sg6
(dp2116
g2
g3
sg4
(dp2117
g2
g5
sg4
g12
sg6
(dp2118
g2
g5
sg4
g5
sg6
(dp2119
g2
g5
sg4
g12
sg6
g5
sg13
I156
ssg13
I54
ssg13
I117
ssg6
(dp2120
g2
g3
sg4
g8
sg6
g3
sg13
I12
ssg13
I123
ssg13
I47
ssg13
I56
ssg13
I65
ssg13
I190
ssg13
I68
ssg13
I188
ssg13
I55
sa(dp2121
g2
g3
sg4
g8
sg6
(dp2122
g2
g5
sg4
(dp2123
g2
g5
sg4
(dp2124
g2
g5
sg4
g12
sg6
(dp2125
g2
g5
sg4
(dp2126
g2
(dp2127
g2
g8
sg4
g5
sg6
g8
sg13
I93
ssg4
g5
sg6
g3
sg13
I92
ssg6
g5
sg13
I168
ssg13
I178
ssg6
(dp2128
g2
g5
sg4
g8
sg6
g5
sg13
I153
ssg13
I169
ssg6
(dp2129
g2
g12
sg4
(dp2130
g2
g3
sg4
(dp2131
g2
g5
sg4
(dp2132
g2
g8
sg4
(dp2133
g2
g5
sg4
(dp2134
g2
g5
sg4
(dp2135
g2
g3
sg4
g8
sg6
g12
sg13
I8
ssg6
g5
sg13
I118
ssg6
g5
sg13
I161
ssg6
g5
sg13
I185
ssg6
g5
sg13
I137
ssg6
(dp2136
g2
g5
sg4
g3
sg6
g8
sg13
I32
ssg13
I160
ssg6
(dp2137
g2
(dp2138
g2
g5
sg4
g8
sg6
g5
sg13
I145
ssg4
g12
sg6
(dp2139
g2
g8
sg4
(dp2140
g2
g5
sg4
(dp2141
g2
g5
sg4
g3
sg6
(dp2142
g2
g5
sg4
g3
sg6
g5
sg13
I5
ssg13
I106
ssg6
g12
sg13
I43
ssg6
g5
sg13
I22
ssg13
I127
ssg13
I140
ssg13
I172
ssg13
I60
sa(dp2143
g2
g8
sg4
g12
sg6
(dp2144
g2
g5
sg4
g8
sg6
(dp2145
g2
g5
sg4
g3
sg6
(dp2146
g2
g3
sg4
g8
sg6
(dp2147
g2
g5
sg4
g12
sg6
(dp2148
g2
g5
sg4
g8
sg6
(dp2149
g2
g5
sg4
g5
sg6
(dp2150
g2
g5
sg4
g5
sg6
(dp2151
g2
g5
sg4
g5
sg6
(dp2152
g2
g5
sg4
g5
sg6
(dp2153
g2
g5
sg4
g5
sg6
(dp2154
g2
g5
sg4
g5
sg6
(dp2155
g2
g5
sg4
g5
sg6
(dp2156
g2
g5
sg4
g5
sg6
(dp2157
g2
g5
sg4
g5
sg6
(dp2158
g2
g5
sg4
g5
sg6
(dp2159
g2
g5
sg4
g5
sg6
(dp2160
g2
g5
sg4
g5
sg6
(dp2161
g2
g5
sg4
g5
sg6
(dp2162
g2
g5
sg4
g5
sg6
(dp2163
g2
g5
sg4
g5
sg6
(dp2164
g2
g5
sg4
g5
sg6
g5
sg13
I118
ssg13
I130
ssg13
I128
ssg13
I135
ssg13
I154
ssg13
I146
ssg13
I58
ssg13
I142
ssg13
I83
ssg13
I94
ssg13
I109
ssg13
I70
ssg13
I97
ssg13
I39
ssg13
I7
ssg13
I13
ssg13
I163
ssg13
I125
ssg13
I24
ssg13
I147
ssg13
I102
ssg13
I85
sa(dp2165
g2
g12
sg4
g3
sg6
(dp2166
g2
g5
sg4
g3
sg6
(dp2167
g2
g5
sg4
g8
sg6
(dp2168
g2
g5
sg4
g12
sg6
(dp2169
g2
g8
sg4
g3
sg6
(dp2170
g2
g5
sg4
g3
sg6
(dp2171
g2
g5
sg4
g12
sg6
(dp2172
g2
g12
sg4
g8
sg6
(dp2173
g2
g5
sg4
g8
sg6
(dp2174
g2
g5
sg4
g3
sg6
(dp2175
g2
g5
sg4
g8
sg6
(dp2176
g2
g5
sg4
g12
sg6
(dp2177
g2
g5
sg4
g5
sg6
(dp2178
g2
g5
sg4
g5
sg6
(dp2179
g2
g5
sg4
g5
sg6
(dp2180
g2
g5
sg4
g5
sg6
(dp2181
g2
g5
sg4
g5
sg6
(dp2182
g2
g5
sg4
g5
sg6
(dp2183
g2
g5
sg4
g5
sg6
(dp2184
g2
g5
sg4
g5
sg6
(dp2185
g2
g5
sg4
g5
sg6
(dp2186
g2
g5
sg4
g5
sg6
g5
sg13
I164
ssg13
I56
ssg13
I6
ssg13
I15
ssg13
I159
ssg13
I187
ssg13
I13
ssg13
I168
ssg13
I166
ssg13
I57
ssg13
I73
ssg13
I182
ssg13
I93
ssg13
I178
ssg13
I137
ssg13
I29
ssg13
I16
ssg13
I126
ssg13
I96
ssg13
I118
ssg13
I171
ssg13
I109
sa(dp2187
g2
g3
sg4
g8
sg6
(dp2188
g2
g12
sg4
(dp2189
g2
g5
sg4
g3
sg6
g5
sg13
I161
ssg6
(dp2190
g2
g8
sg4
g3
sg6
(dp2191
g2
(dp2192
g2
g5
sg4
g3
sg6
g5
sg13
I78
ssg4
g12
sg6
(dp2193
g2
g5
sg4
g12
sg6
(dp2194
g2
g5
sg4
g12
sg6
(dp2195
g2
g5
sg4
g8
sg6
(dp2196
g2
g5
sg4
g8
sg6
(dp2197
g2
(dp2198
g2
g5
sg4
g12
sg6
g5
sg13
I99
ssg4
(dp2199
g2
g5
sg4
(dp2200
g2
(dp2201
g2
g5
sg4
(dp2202
g2
g8
sg4
g5
sg6
g8
sg13
I81
ssg6
g5
sg13
I27
ssg4
g5
sg6
g8
sg13
I0
ssg6
g5
sg13
I75
ssg6
(dp2203
g2
g5
sg4
g3
sg6
(dp2204
g2
g5
sg4
g12
sg6
(dp2205
g2
g5
sg4
g3
sg6
(dp2206
g2
g5
sg4
g3
sg6
(dp2207
g2
g5
sg4
g8
sg6
(dp2208
g2
g5
sg4
g12
sg6
g5
sg13
I98
ssg13
I178
ssg13
I95
ssg13
I150
ssg13
I74
ssg13
I117
ssg13
I102
ssg13
I182
ssg13
I140
ssg13
I83
ssg13
I158
ssg13
I5
ssg13
I92
ssg13
I152
ssg13
I60
sa(dp2209
g2
g12
sg4
g5
sg6
(dp2210
g2
g8
sg4
(dp2211
g2
g3
sg4
g8
sg6
g12
sg13
I43
ssg6
(dp2212
g2
(dp2213
g2
g5
sg4
g12
sg6
g5
sg13
I185
ssg4
(dp2214
g2
g5
sg4
(dp2215
g2
g5
sg4
(dp2216
g2
g3
sg4
(dp2217
g2
g5
sg4
(dp2218
g2
g5
sg4
(dp2219
g2
(dp2220
g2
g5
sg4
(dp2221
g2
g5
sg4
(dp2222
g2
g5
sg4
(dp2223
g2
g5
sg4
g3
sg6
g8
sg13
I157
ssg6
g5
sg13
I94
ssg6
g5
sg13
I74
ssg6
g5
sg13
I126
ssg4
g5
sg6
g8
sg13
I141
ssg6
g12
sg13
I55
ssg6
g5
sg13
I106
ssg6
g12
sg13
I80
ssg6
(dp2224
g2
g5
sg4
g12
sg6
g3
sg13
I112
ssg13
I78
ssg6
g5
sg13
I81
ssg6
(dp2225
g2
(dp2226
g2
(dp2227
g2
g5
sg4
g8
sg6
g5
sg13
I108
ssg4
g3
sg6
g5
sg13
I144
ssg4
g8
sg6
(dp2228
g2
g8
sg4
g12
sg6
(dp2229
g2
g8
sg4
(dp2230
g2
g3
sg4
g5
sg6
g3
sg13
I134
ssg6
g5
sg13
I111
ssg13
I10
ssg13
I97
ssg13
I82
ssg13
I66
ssg13
I130
sa(dp2231
g2
g3
sg4
g12
sg6
(dp2232
g2
g12
sg4
(dp2233
g2
g12
sg4
(dp2234
g2
g12
sg4
g5
sg6
g8
sg13
I135
ssg6
(dp2235
g2
g8
sg4
(dp2236
g2
(dp2237
g2
g5
sg4
g12
sg6
g5
sg13
I103
ssg4
g12
sg6
g8
sg13
I152
ssg6
g5
sg13
I118
ssg13
I160
ssg6
(dp2238
g2
(dp2239
g2
g5
sg4
(dp2240
g2
g5
sg4
g3
sg6
g12
sg13
I43
ssg6
g5
sg13
I74
ssg4
(dp2241
g2
(dp2242
g2
g5
sg4
g8
sg6
g3
sg13
I165
ssg4
(dp2243
g2
g8
sg4
(dp2244
g2
g5
sg4
(dp2245
g2
g5
sg4
(dp2246
g2
g12
sg4
g3
sg6
g5
sg13
I186
ssg6
g5
sg13
I27
ssg6
g8
sg13
I51
ssg6
g5
sg13
I0
ssg6
(dp2247
g2
g5
sg4
g3
sg6
(dp2248
g2
g5
sg4
g3
sg6
g5
sg13
I57
ssg13
I106
ssg13
I24
ssg6
(dp2249
g2
g3
sg4
g8
sg6
(dp2250
g2
g12
sg4
(dp2251
g2
g5
sg4
(dp2252
g2
g8
sg4
g12
sg6
g5
sg13
I22
ssg6
g5
sg13
I191
ssg6
g8
sg13
I184
ssg13
I76
ssg13
I48
ssg13
I136
ssg13
I60
sa(dp2253
g2
g5
sg4
g8
sg6
(dp2254
g2
g5
sg4
g3
sg6
(dp2255
g2
g8
sg4
g12
sg6
(dp2256
g2
g5
sg4
g8
sg6
(dp2257
g2
g5
sg4
g12
sg6
(dp2258
g2
g5
sg4
g12
sg6
(dp2259
g2
g8
sg4
g5
sg6
(dp2260
g2
g5
sg4
g3
sg6
(dp2261
g2
g5
sg4
g8
sg6
(dp2262
g2
g5
sg4
g12
sg6
(dp2263
g2
g5
sg4
g8
sg6
(dp2264
g2
g5
sg4
g3
sg6
(dp2265
g2
g5
sg4
g5
sg6
(dp2266
g2
g5
sg4
g3
sg6
(dp2267
g2
g5
sg4
g5
sg6
(dp2268
g2
g5
sg4
g5
sg6
(dp2269
g2
g5
sg4
g5
sg6
(dp2270
g2
g5
sg4
g12
sg6
(dp2271
g2
g5
sg4
g5
sg6
(dp2272
g2
g5
sg4
g5
sg6
(dp2273
g2
g5
sg4
g5
sg6
(dp2274
g2
g5
sg4
g5
sg6
g5
sg13
I49
ssg13
I172
ssg13
I94
ssg13
I185
ssg13
I36
ssg13
I184
ssg13
I109
ssg13
I80
ssg13
I153
ssg13
I86
ssg13
I12
ssg13
I53
ssg13
I40
ssg13
I141
ssg13
I168
ssg13
I113
ssg13
I106
ssg13
I142
ssg13
I118
ssg13
I189
ssg13
I100
ssg13
I81
sa(dp2275
g2
g12
sg4
g5
sg6
(dp2276
g2
g12
sg4
g5
sg6
(dp2277
g2
g3
sg4
g5
sg6
(dp2278
g2
g5
sg4
g8
sg6
(dp2279
g2
g5
sg4
g12
sg6
(dp2280
g2
g5
sg4
g8
sg6
(dp2281
g2
g5
sg4
g3
sg6
(dp2282
g2
g5
sg4
g3
sg6
(dp2283
g2
g5
sg4
g8
sg6
(dp2284
g2
g5
sg4
g3
sg6
(dp2285
g2
g5
sg4
g8
sg6
(dp2286
g2
g5
sg4
g12
sg6
(dp2287
g2
g5
sg4
g12
sg6
(dp2288
g2
g5
sg4
g5
sg6
(dp2289
g2
g5
sg4
g5
sg6
(dp2290
g2
g5
sg4
g5
sg6
(dp2291
g2
g5
sg4
g5
sg6
(dp2292
g2
g5
sg4
g5
sg6
(dp2293
g2
g5
sg4
g5
sg6
(dp2294
g2
g5
sg4
g5
sg6
(dp2295
g2
g5
sg4
g5
sg6
(dp2296
g2
g5
sg4
g5
sg6
g5
sg13
I176
ssg13
I123
ssg13
I162
ssg13
I30
ssg13
I84
ssg13
I92
ssg13
I135
ssg13
I39
ssg13
I19
ssg13
I102
ssg13
I42
ssg13
I67
ssg13
I13
ssg13
I0
ssg13
I168
ssg13
I15
ssg13
I25
ssg13
I70
ssg13
I138
ssg13
I41
ssg13
I169
ssg13
I105
sa(dp2297
g2
g8
sg4
g12
sg6
(dp2298
g2
g8
sg4
g5
sg6
(dp2299
g2
g5
sg4
g3
sg6
(dp2300
g2
g5
sg4
g3
sg6
(dp2301
g2
g5
sg4
g3
sg6
(dp2302
g2
g5
sg4
g3
sg6
(dp2303
g2
g5
sg4
g12
sg6
(dp2304
g2
g5
sg4
g8
sg6
(dp2305
g2
g8
sg4
g5
sg6
(dp2306
g2
g12
sg4
g3
sg6
(dp2307
g2
g5
sg4
g3
sg6
(dp2308
g2
g5
sg4
g12
sg6
(dp2309
g2
g5
sg4
g5
sg6
(dp2310
g2
g5
sg4
g5
sg6
(dp2311
g2
g5
sg4
g5
sg6
(dp2312
g2
g5
sg4
g5
sg6
(dp2313
g2
g5
sg4
g5
sg6
(dp2314
g2
g5
sg4
g5
sg6
(dp2315
g2
g5
sg4
g5
sg6
(dp2316
g2
g5
sg4
g5
sg6
(dp2317
g2
g5
sg4
g5
sg6
(dp2318
g2
g5
sg4
g5
sg6
g5
sg13
I173
ssg13
I115
ssg13
I118
ssg13
I106
ssg13
I54
ssg13
I177
ssg13
I90
ssg13
I32
ssg13
I137
ssg13
I153
ssg13
I7
ssg13
I182
ssg13
I156
ssg13
I191
ssg13
I2
ssg13
I174
ssg13
I110
ssg13
I71
ssg13
I70
ssg13
I69
ssg13
I93
ssg13
I108
sa(dp2319
g2
g5
sg4
g12
sg6
(dp2320
g2
g8
sg4
(dp2321
g2
g8
sg4
(dp2322
g2
g8
sg4
g5
sg6
g3
sg13
I93
ssg6
(dp2323
g2
g8
sg4
(dp2324
g2
(dp2325
g2
g5
sg4
g12
sg6
g5
sg13
I44
ssg4
g3
sg6
g8
sg13
I100
ssg6
g12
sg13
I70
ssg13
I18
ssg6
(dp2326
g2
(dp2327
g2
(dp2328
g2
(dp2329
g2
g5
sg4
g12
sg6
g5
sg13
I76
ssg4
g12
sg6
g5
sg13
I124
ssg4
g3
sg6
g5
sg13
I151
ssg4
(dp2330
g2
g5
sg4
(dp2331
g2
g12
sg4
(dp2332
g2
g5
sg4
g8
sg6
g3
sg13
I130
ssg6
g5
sg13
I166
ssg6
g5
sg13
I168
ssg6
(dp2333
g2
g5
sg4
g3
sg6
(dp2334
g2
g5
sg4
g3
sg6
(dp2335
g2
(dp2336
g2
g5
sg4
g3
sg6
g8
sg13
I176
ssg4
g3
sg6
(dp2337
g2
g5
sg4
g8
sg6
(dp2338
g2
g5
sg4
g5
sg6
(dp2339
g2
g5
sg4
g5
sg6
(dp2340
g2
g5
sg4
g3
sg6
g5
sg13
I109
ssg13
I171
ssg13
I115
ssg13
I74
ssg13
I143
ssg13
I179
ssg13
I21
ssg13
I170
ssg13
I45
ssg13
I106
sa(dp2341
g2
g3
sg4
g8
sg6
(dp2342
g2
(dp2343
g2
g12
sg4
g3
sg6
g5
sg13
I152
ssg4
(dp2344
g2
g12
sg4
(dp2345
g2
(dp2346
g2
g5
sg4
(dp2347
g2
g5
sg4
(dp2348
g2
g5
sg4
g12
sg6
g3
sg13
I44
ssg6
g5
sg13
I104
ssg6
g5
sg13
I144
ssg4
(dp2349
g2
g5
sg4
g12
sg6
g5
sg13
I185
ssg6
(dp2350
g2
g5
sg4
(dp2351
g2
g5
sg4
(dp2352
g2
g12
sg4
g5
sg6
g12
sg13
I182
ssg6
g5
sg13
I100
ssg6
g5
sg13
I129
ssg13
I169
ssg6
(dp2353
g2
g5
sg4
(dp2354
g2
g5
sg4
(dp2355
g2
(dp2356
g2
g5
sg4
g8
sg6
g5
sg13
I183
ssg4
g3
sg6
g5
sg13
I153
ssg6
g5
sg13
I149
ssg6
g5
sg13
I151
ssg13
I106
ssg6
(dp2357
g2
g8
sg4
(dp2358
g2
g5
sg4
(dp2359
g2
g5
sg4
(dp2360
g2
g5
sg4
(dp2361
g2
(dp2362
g2
g5
sg4
g3
sg6
g5
sg13
I32
ssg4
g3
sg6
g8
sg13
I8
ssg6
g5
sg13
I90
ssg6
g12
sg13
I186
ssg6
g5
sg13
I66
ssg6
g5
sg13
I91
ssg13
I154
ssg13
I84
sa(dp2363
g2
g8
sg4
g3
sg6
(dp2364
g2
g3
sg4
(dp2365
g2
g3
sg4
g5
sg6
(dp2366
g2
g12
sg4
(dp2367
g2
g5
sg4
g8
sg6
(dp2368
g2
g5
sg4
g8
sg6
g5
sg13
I158
ssg13
I5
ssg6
(dp2369
g2
g5
sg4
g8
sg6
g12
sg13
I3
ssg13
I55
ssg13
I45
ssg6
(dp2370
g2
g8
sg4
(dp2371
g2
g8
sg4
(dp2372
g2
(dp2373
g2
g5
sg4
g3
sg6
g5
sg13
I188
ssg4
g12
sg6
(dp2374
g2
g8
sg4
(dp2375
g2
g5
sg4
(dp2376
g2
g5
sg4
(dp2377
g2
g5
sg4
g3
sg6
g12
sg13
I32
ssg6
g5
sg13
I87
ssg6
g5
sg13
I2
ssg6
g8
sg13
I93
ssg13
I129
ssg6
(dp2378
g2
g5
sg4
g3
sg6
g8
sg13
I128
ssg13
I189
ssg6
(dp2379
g2
(dp2380
g2
g8
sg4
g5
sg6
g12
sg13
I79
ssg4
g8
sg6
(dp2381
g2
(dp2382
g2
g5
sg4
g8
sg6
g12
sg13
I121
ssg4
g8
sg6
(dp2383
g2
g5
sg4
g12
sg6
(dp2384
g2
g5
sg4
g3
sg6
g5
sg13
I18
ssg13
I190
ssg13
I86
ssg13
I101
ssg13
I165
ssg13
I7
ssg13
I111
sa(dp2385
g2
g3
sg4
g8
sg6
(dp2386
g2
g5
sg4
g12
sg6
(dp2387
g2
g3
sg4
g8
sg6
(dp2388
g2
g3
sg4
g8
sg6
(dp2389
g2
g3
sg4
g12
sg6
(dp2390
g2
g5
sg4
g3
sg6
(dp2391
g2
g5
sg4
g5
sg6
(dp2392
g2
g5
sg4
g5
sg6
(dp2393
g2
g5
sg4
g5
sg6
(dp2394
g2
g5
sg4
g5
sg6
(dp2395
g2
g5
sg4
g5
sg6
(dp2396
g2
g5
sg4
g5
sg6
(dp2397
g2
g5
sg4
g5
sg6
(dp2398
g2
g5
sg4
g5
sg6
(dp2399
g2
g5
sg4
g5
sg6
(dp2400
g2
g5
sg4
g5
sg6
(dp2401
g2
g5
sg4
g5
sg6
(dp2402
g2
g5
sg4
g5
sg6
(dp2403
g2
g5
sg4
g5
sg6
(dp2404
g2
g5
sg4
g5
sg6
(dp2405
g2
g5
sg4
g5
sg6
(dp2406
g2
g5
sg4
g5
sg6
g5
sg13
I5
ssg13
I98
ssg13
I168
ssg13
I64
ssg13
I19
ssg13
I119
ssg13
I54
ssg13
I118
ssg13
I28
ssg13
I112
ssg13
I95
ssg13
I23
ssg13
I58
ssg13
I79
ssg13
I108
ssg13
I145
ssg13
I68
ssg13
I175
ssg13
I158
ssg13
I166
ssg13
I148
ssg13
I84
sa(dp2407
g2
g3
sg4
g5
sg6
(dp2408
g2
g12
sg4
g8
sg6
(dp2409
g2
g3
sg4
g5
sg6
(dp2410
g2
g5
sg4
g12
sg6
(dp2411
g2
g5
sg4
g8
sg6
(dp2412
g2
g5
sg4
g3
sg6
(dp2413
g2
g5
sg4
g3
sg6
(dp2414
g2
g5
sg4
g12
sg6
(dp2415
g2
g5
sg4
g12
sg6
(dp2416
g2
g5
sg4
g8
sg6
(dp2417
g2
g5
sg4
g5
sg6
(dp2418
g2
g5
sg4
g5
sg6
(dp2419
g2
g5
sg4
g5
sg6
(dp2420
g2
g5
sg4
g5
sg6
(dp2421
g2
g5
sg4
g5
sg6
(dp2422
g2
g5
sg4
g5
sg6
(dp2423
g2
g5
sg4
g5
sg6
(dp2424
g2
g5
sg4
g5
sg6
(dp2425
g2
g5
sg4
g5
sg6
(dp2426
g2
g5
sg4
g5
sg6
(dp2427
g2
g5
sg4
g5
sg6
(dp2428
g2
g5
sg4
g5
sg6
g5
sg13
I62
ssg13
I8
ssg13
I112
ssg13
I161
ssg13
I26
ssg13
I184
ssg13
I65
ssg13
I191
ssg13
I131
ssg13
I86
ssg13
I28
ssg13
I63
ssg13
I42
ssg13
I154
ssg13
I159
ssg13
I132
ssg13
I113
ssg13
I115
ssg13
I155
ssg13
I5
ssg13
I126
ssg13
I84
sa(dp2429
g2
g3
sg4
g12
sg6
(dp2430
g2
g8
sg4
(dp2431
g2
g12
sg4
g3
sg6
(dp2432
g2
g5
sg4
(dp2433
g2
g8
sg4
(dp2434
g2
g5
sg4
g8
sg6
g5
sg13
I41
ssg6
g3
sg13
I70
ssg6
(dp2435
g2
g5
sg4
g8
sg6
g5
sg13
I47
ssg13
I67
ssg13
I175
ssg6
(dp2436
g2
(dp2437
g2
g5
sg4
g3
sg6
g5
sg13
I86
ssg4
(dp2438
g2
g5
sg4
(dp2439
g2
g5
sg4
(dp2440
g2
g3
sg4
(dp2441
g2
g5
sg4
(dp2442
g2
g5
sg4
(dp2443
g2
g5
sg4
(dp2444
g2
g5
sg4
(dp2445
g2
g5
sg4
(dp2446
g2
g3
sg4
g12
sg6
g8
sg13
I69
ssg6
g5
sg13
I88
ssg6
g5
sg13
I9
ssg6
g5
sg13
I8
ssg6
g5
sg13
I31
ssg6
g5
sg13
I30
ssg6
(dp2447
g2
g3
sg4
g12
sg6
g5
sg13
I20
ssg13
I32
ssg6
g12
sg13
I25
ssg6
g5
sg13
I28
ssg6
(dp2448
g2
g3
sg4
(dp2449
g2
g5
sg4
g8
sg6
(dp2450
g2
g5
sg4
g8
sg6
g5
sg13
I52
ssg13
I163
ssg6
g12
sg13
I141
ssg13
I27
ssg13
I112
ssg13
I106
sa(dp2451
g2
g5
sg4
g8
sg6
(dp2452
g2
g3
sg4
g5
sg6
(dp2453
g2
g12
sg4
g5
sg6
(dp2454
g2
g5
sg4
g8
sg6
(dp2455
g2
g5
sg4
g3
sg6
(dp2456
g2
g5
sg4
g3
sg6
(dp2457
g2
g5
sg4
g12
sg6
(dp2458
g2
g5
sg4
g8
sg6
(dp2459
g2
g5
sg4
g12
sg6
(dp2460
g2
g5
sg4
g3
sg6
(dp2461
g2
g5
sg4
g5
sg6
(dp2462
g2
g5
sg4
g5
sg6
(dp2463
g2
g5
sg4
g5
sg6
(dp2464
g2
g5
sg4
g5
sg6
(dp2465
g2
g5
sg4
g5
sg6
(dp2466
g2
g5
sg4
g5
sg6
(dp2467
g2
g5
sg4
g5
sg6
(dp2468
g2
g5
sg4
g5
sg6
(dp2469
g2
g5
sg4
g5
sg6
(dp2470
g2
g5
sg4
g5
sg6
(dp2471
g2
g5
sg4
g5
sg6
(dp2472
g2
g5
sg4
g5
sg6
g5
sg13
I162
ssg13
I56
ssg13
I170
ssg13
I61
ssg13
I86
ssg13
I127
ssg13
I110
ssg13
I141
ssg13
I35
ssg13
I60
ssg13
I73
ssg13
I40
ssg13
I106
ssg13
I62
ssg13
I90
ssg13
I125
ssg13
I19
ssg13
I95
ssg13
I47
ssg13
I54
ssg13
I0
ssg13
I108
sa(dp2473
g2
g12
sg4
g3
sg6
(dp2474
g2
g5
sg4
(dp2475
g2
g12
sg4
(dp2476
g2
g12
sg4
(dp2477
g2
g5
sg4
(dp2478
g2
g3
sg4
g8
sg6
g3
sg13
I144
ssg6
(dp2479
g2
g5
sg4
g8
sg6
g5
sg13
I136
ssg13
I51
ssg6
(dp2480
g2
g3
sg4
g12
sg6
g3
sg13
I84
ssg13
I24
ssg6
(dp2481
g2
g5
sg4
(dp2482
g2
g5
sg4
g3
sg6
g5
sg13
I95
ssg6
g5
sg13
I94
ssg13
I48
ssg6
(dp2483
g2
g5
sg4
(dp2484
g2
g5
sg4
(dp2485
g2
g3
sg4
(dp2486
g2
g5
sg4
(dp2487
g2
g5
sg4
g3
sg6
g12
sg13
I20
ssg6
g5
sg13
I18
ssg6
g5
sg13
I15
ssg6
g5
sg13
I3
ssg6
(dp2488
g2
g3
sg4
g8
sg6
(dp2489
g2
g5
sg4
g3
sg6
(dp2490
g2
g5
sg4
g3
sg6
(dp2491
g2
g5
sg4
g8
sg6
(dp2492
g2
g5
sg4
g3
sg6
(dp2493
g2
g5
sg4
g12
sg6
(dp2494
g2
g5
sg4
g12
sg6
g5
sg13
I105
ssg13
I113
ssg13
I55
ssg13
I40
ssg13
I124
ssg13
I56
ssg13
I17
ssg13
I138
ssg13
I49
ssg13
I108
sa(dp2495
g2
g12
sg4
g5
sg6
(dp2496
g2
g5
sg4
g3
sg6
(dp2497
g2
g8
sg4
g12
sg6
(dp2498
g2
g5
sg4
g8
sg6
(dp2499
g2
g12
sg4
g5
sg6
(dp2500
g2
g5
sg4
g3
sg6
(dp2501
g2
g5
sg4
g8
sg6
(dp2502
g2
g8
sg4
g5
sg6
(dp2503
g2
g5
sg4
g3
sg6
(dp2504
g2
g12
sg4
g8
sg6
(dp2505
g2
g5
sg4
g8
sg6
(dp2506
g2
g3
sg4
g12
sg6
(dp2507
g2
g5
sg4
g3
sg6
(dp2508
g2
g5
sg4
g8
sg6
(dp2509
g2
g5
sg4
g8
sg6
(dp2510
g2
g5
sg4
g8
sg6
(dp2511
g2
g5
sg4
g3
sg6
(dp2512
g2
g5
sg4
g12
sg6
(dp2513
g2
g5
sg4
g12
sg6
(dp2514
g2
g5
sg4
g5
sg6
(dp2515
g2
g5
sg4
g3
sg6
(dp2516
g2
g5
sg4
g5
sg6
g5
sg13
I143
ssg13
I11
ssg13
I132
ssg13
I115
ssg13
I155
ssg13
I82
ssg13
I84
ssg13
I62
ssg13
I116
ssg13
I43
ssg13
I54
ssg13
I141
ssg13
I157
ssg13
I171
ssg13
I107
ssg13
I126
ssg13
I148
ssg13
I173
ssg13
I103
ssg13
I127
ssg13
I72
ssg13
I108
sa(dp2517
g2
g5
sg4
g3
sg6
(dp2518
g2
g12
sg4
(dp2519
g2
g8
sg4
(dp2520
g2
g3
sg4
(dp2521
g2
g5
sg4
(dp2522
g2
g12
sg4
(dp2523
g2
g5
sg4
g12
sg6
(dp2524
g2
g5
sg4
g3
sg6
g5
sg13
I67
ssg13
I114
ssg6
(dp2525
g2
g5
sg4
g8
sg6
g3
sg13
I91
ssg13
I162
ssg6
g8
sg13
I135
ssg6
g3
sg13
I141
ssg6
(dp2526
g2
g12
sg4
(dp2527
g2
g5
sg4
g3
sg6
(dp2528
g2
g5
sg4
g3
sg6
g5
sg13
I16
ssg13
I172
ssg6
g8
sg13
I28
ssg13
I138
ssg6
(dp2529
g2
g3
sg4
(dp2530
g2
g5
sg4
(dp2531
g2
g5
sg4
(dp2532
g2
g12
sg4
(dp2533
g2
g5
sg4
(dp2534
g2
g5
sg4
(dp2535
g2
g8
sg4
g12
sg6
g3
sg13
I128
ssg6
g5
sg13
I100
ssg6
g5
sg13
I24
ssg6
g5
sg13
I181
ssg6
g3
sg13
I2
ssg6
g8
sg13
I5
ssg6
(dp2536
g2
g5
sg4
g12
sg6
(dp2537
g2
g3
sg4
g8
sg6
(dp2538
g2
g5
sg4
g12
sg6
g5
sg13
I18
ssg13
I66
ssg13
I158
ssg13
I8
ssg13
I111
ssg13
I81
sa(dp2539
g2
g3
sg4
g8
sg6
(dp2540
g2
g5
sg4
g8
sg6
(dp2541
g2
g5
sg4
g3
sg6
(dp2542
g2
g8
sg4
g5
sg6
(dp2543
g2
g5
sg4
g12
sg6
(dp2544
g2
g12
sg4
g3
sg6
(dp2545
g2
g3
sg4
g8
sg6
(dp2546
g2
g5
sg4
g12
sg6
(dp2547
g2
g5
sg4
g3
sg6
(dp2548
g2
g5
sg4
g5
sg6
(dp2549
g2
g5
sg4
g5
sg6
(dp2550
g2
g5
sg4
g5
sg6
(dp2551
g2
g5
sg4
g5
sg6
(dp2552
g2
g5
sg4
g5
sg6
(dp2553
g2
g5
sg4
g5
sg6
(dp2554
g2
g5
sg4
g5
sg6
(dp2555
g2
g5
sg4
g5
sg6
(dp2556
g2
g5
sg4
g5
sg6
(dp2557
g2
g5
sg4
g5
sg6
(dp2558
g2
g5
sg4
g5
sg6
(dp2559
g2
g5
sg4
g5
sg6
(dp2560
g2
g5
sg4
g5
sg6
g5
sg13
I174
ssg13
I32
ssg13
I108
ssg13
I159
ssg13
I7
ssg13
I138
ssg13
I54
ssg13
I177
ssg13
I86
ssg13
I127
ssg13
I119
ssg13
I92
ssg13
I101
ssg13
I31
ssg13
I188
ssg13
I20
ssg13
I182
ssg13
I85
ssg13
I137
ssg13
I109
ssg13
I126
ssg13
I61
sa(dp2561
g2
g5
sg4
g8
sg6
(dp2562
g2
g12
sg4
(dp2563
g2
g3
sg4
g12
sg6
(dp2564
g2
g12
sg4
(dp2565
g2
g5
sg4
(dp2566
g2
g5
sg4
(dp2567
g2
g12
sg4
(dp2568
g2
g5
sg4
g3
sg6
g5
sg13
I35
ssg6
g5
sg13
I156
ssg6
g5
sg13
I180
ssg6
g5
sg13
I153
ssg6
(dp2569
g2
(dp2570
g2
g5
sg4
g8
sg6
g5
sg13
I72
ssg4
g3
sg6
g5
sg13
I69
ssg13
I177
ssg13
I64
ssg6
(dp2571
g2
(dp2572
g2
(dp2573
g2
(dp2574
g2
g5
sg4
g8
sg6
g5
sg13
I15
ssg4
g12
sg6
g5
sg13
I23
ssg4
(dp2575
g2
g5
sg4
(dp2576
g2
g8
sg4
g3
sg6
g12
sg13
I92
ssg6
g5
sg13
I79
ssg6
g5
sg13
I98
ssg4
(dp2577
g2
g3
sg4
(dp2578
g2
g5
sg4
(dp2579
g2
g12
sg4
(dp2580
g2
(dp2581
g2
g12
sg4
g8
sg6
g5
sg13
I58
ssg4
g8
sg6
g5
sg13
I188
ssg6
g5
sg13
I82
ssg6
g3
sg13
I61
ssg6
g5
sg13
I4
ssg6
(dp2582
g2
g5
sg4
g12
sg6
g8
sg13
I99
ssg13
I74
ssg13
I162
ssg13
I102
sa(dp2583
g2
g8
sg4
g12
sg6
(dp2584
g2
g12
sg4
g5
sg6
(dp2585
g2
g3
sg4
(dp2586
g2
g5
sg4
(dp2587
g2
g3
sg4
(dp2588
g2
g3
sg4
(dp2589
g2
g5
sg4
(dp2590
g2
g5
sg4
(dp2591
g2
g5
sg4
(dp2592
g2
g5
sg4
(dp2593
g2
g5
sg4
g8
sg6
g5
sg13
I40
ssg6
g5
sg13
I64
ssg6
g5
sg13
I162
ssg6
g5
sg13
I62
ssg6
g5
sg13
I59
ssg6
g12
sg13
I34
ssg6
(dp2594
g2
g5
sg4
g3
sg6
g5
sg13
I191
ssg13
I42
ssg6
(dp2595
g2
g8
sg4
g5
sg6
(dp2596
g2
g5
sg4
g8
sg6
(dp2597
g2
g5
sg4
g12
sg6
g5
sg13
I58
ssg13
I68
ssg13
I189
ssg13
I33
ssg6
(dp2598
g2
(dp2599
g2
g5
sg4
g3
sg6
g5
sg13
I80
ssg4
(dp2600
g2
g5
sg4
(dp2601
g2
g12
sg4
g5
sg6
g8
sg13
I181
ssg6
g5
sg13
I31
ssg6
(dp2602
g2
g8
sg4
g3
sg6
(dp2603
g2
g5
sg4
g3
sg6
(dp2604
g2
g5
sg4
g12
sg6
g5
sg13
I164
ssg13
I26
ssg13
I71
ssg13
I7
ssg13
I39
ssg13
I150
ssg13
I108
sa(dp2605
g2
g3
sg4
g12
sg6
(dp2606
g2
g5
sg4
(dp2607
g2
g5
sg4
(dp2608
g2
g5
sg4
g12
sg6
(dp2609
g2
g5
sg4
g12
sg6
g5
sg13
I51
ssg13
I121
ssg6
(dp2610
g2
g5
sg4
(dp2611
g2
(dp2612
g2
g5
sg4
g12
sg6
g8
sg13
I85
ssg4
(dp2613
g2
g5
sg4
g8
sg6
g5
sg13
I102
ssg6
g8
sg13
I162
ssg6
g5
sg13
I31
ssg13
I120
ssg6
(dp2614
g2
(dp2615
g2
g5
sg4
g3
sg6
g5
sg13
I73
ssg4
(dp2616
g2
(dp2617
g2
g3
sg4
g5
sg6
g12
sg13
I43
ssg4
(dp2618
g2
(dp2619
g2
g5
sg4
g8
sg6
g5
sg13
I141
ssg4
g3
sg6
g5
sg13
I91
ssg6
g5
sg13
I38
ssg6
(dp2620
g2
(dp2621
g2
g5
sg4
g12
sg6
g3
sg13
I176
ssg4
g12
sg6
(dp2622
g2
g5
sg4
g8
sg6
(dp2623
g2
(dp2624
g2
g5
sg4
g12
sg6
g5
sg13
I0
ssg4
g3
sg6
(dp2625
g2
g5
sg4
g12
sg6
(dp2626
g2
g5
sg4
g3
sg6
g5
sg13
I63
ssg13
I126
ssg13
I6
ssg13
I171
ssg13
I110
ssg13
I69
ssg13
I123
ssg13
I84
sa(dp2627
g2
g5
sg4
g3
sg6
(dp2628
g2
g5
sg4
g8
sg6
(dp2629
g2
g3
sg4
g5
sg6
(dp2630
g2
g5
sg4
g8
sg6
(dp2631
g2
g3
sg4
g5
sg6
(dp2632
g2
g12
sg4
g5
sg6
(dp2633
g2
g3
sg4
g8
sg6
(dp2634
g2
g5
sg4
g8
sg6
(dp2635
g2
g5
sg4
g3
sg6
(dp2636
g2
g5
sg4
g12
sg6
(dp2637
g2
g5
sg4
g8
sg6
(dp2638
g2
g5
sg4
g3
sg6
(dp2639
g2
g5
sg4
g8
sg6
(dp2640
g2
g5
sg4
g5
sg6
(dp2641
g2
g5
sg4
g5
sg6
(dp2642
g2
g5
sg4
g12
sg6
(dp2643
g2
g5
sg4
g5
sg6
(dp2644
g2
g5
sg4
g5
sg6
(dp2645
g2
g5
sg4
g5
sg6
(dp2646
g2
g5
sg4
g5
sg6
(dp2647
g2
g5
sg4
g5
sg6
(dp2648
g2
g5
sg4
g5
sg6
g5
sg13
I75
ssg13
I125
ssg13
I111
ssg13
I57
ssg13
I144
ssg13
I156
ssg13
I56
ssg13
I70
ssg13
I84
ssg13
I107
ssg13
I134
ssg13
I4
ssg13
I152
ssg13
I155
ssg13
I48
ssg13
I161
ssg13
I184
ssg13
I61
ssg13
I20
ssg13
I41
ssg13
I85
ssg13
I81
sa(dp2649
g2
g12
sg4
g5
sg6
(dp2650
g2
g3
sg4
g12
sg6
(dp2651
g2
g3
sg4
g5
sg6
(dp2652
g2
g8
sg4
g3
sg6
(dp2653
g2
g5
sg4
g12
sg6
(dp2654
g2
g3
sg4
g12
sg6
(dp2655
g2
g5
sg4
g8
sg6
(dp2656
g2
g3
sg4
g5
sg6
(dp2657
g2
g5
sg4
g3
sg6
(dp2658
g2
g5
sg4
g5
sg6
(dp2659
g2
g5
sg4
g3
sg6
(dp2660
g2
g5
sg4
g8
sg6
(dp2661
g2
g5
sg4
g5
sg6
(dp2662
g2
g5
sg4
g5
sg6
(dp2663
g2
g5
sg4
g5
sg6
(dp2664
g2
g5
sg4
g5
sg6
(dp2665
g2
g5
sg4
g5
sg6
(dp2666
g2
g5
sg4
g5
sg6
(dp2667
g2
g5
sg4
g5
sg6
(dp2668
g2
g5
sg4
g5
sg6
(dp2669
g2
g5
sg4
g5
sg6
(dp2670
g2
g5
sg4
g5
sg6
g5
sg13
I28
ssg13
I121
ssg13
I47
ssg13
I37
ssg13
I101
ssg13
I40
ssg13
I29
ssg13
I158
ssg13
I167
ssg13
I31
ssg13
I144
ssg13
I162
ssg13
I67
ssg13
I124
ssg13
I153
ssg13
I52
ssg13
I171
ssg13
I108
ssg13
I118
ssg13
I3
ssg13
I86
ssg13
I105
sa(dp2671
g2
g12
sg4
g8
sg6
(dp2672
g2
g12
sg4
g5
sg6
(dp2673
g2
(dp2674
g2
g8
sg4
g5
sg6
g3
sg13
I108
ssg4
(dp2675
g2
(dp2676
g2
g8
sg4
g5
sg6
g8
sg13
I19
ssg4
(dp2677
g2
g12
sg4
(dp2678
g2
g5
sg4
(dp2679
g2
g5
sg4
(dp2680
g2
g3
sg4
(dp2681
g2
g5
sg4
g3
sg6
g5
sg13
I0
ssg6
g8
sg13
I56
ssg6
g5
sg13
I78
ssg6
g5
sg13
I79
ssg6
g5
sg13
I85
ssg6
(dp2682
g2
g8
sg4
g3
sg6
g5
sg13
I13
ssg13
I75
ssg6
(dp2683
g2
(dp2684
g2
g5
sg4
g12
sg6
g5
sg13
I187
ssg4
g8
sg6
(dp2685
g2
g3
sg4
g12
sg6
(dp2686
g2
g3
sg4
g8
sg6
(dp2687
g2
g8
sg4
g12
sg6
(dp2688
g2
g5
sg4
g3
sg6
(dp2689
g2
g5
sg4
g8
sg6
(dp2690
g2
g5
sg4
g12
sg6
(dp2691
g2
g5
sg4
g3
sg6
(dp2692
g2
g5
sg4
g8
sg6
g5
sg13
I147
ssg13
I162
ssg13
I27
ssg13
I140
ssg13
I53
ssg13
I167
ssg13
I18
ssg13
I145
ssg13
I122
ssg13
I84
ssg13
I150
ssg13
I111
sa(dp2693
g2
g3
sg4
g5
sg6
(dp2694
g2
g8
sg4
g12
sg6
(dp2695
g2
(dp2696
g2
(dp2697
g2
g5
sg4
(dp2698
g2
(dp2699
g2
g5
sg4
g3
sg6
g5
sg13
I83
ssg4
g3
sg6
g5
sg13
I46
ssg6
g5
sg13
I66
ssg4
(dp2700
g2
g8
sg4
g5
sg6
g12
sg13
I93
ssg6
g5
sg13
I26
ssg4
(dp2701
g2
(dp2702
g2
g3
sg4
g12
sg6
g5
sg13
I19
ssg4
(dp2703
g2
g5
sg4
(dp2704
g2
g3
sg4
g8
sg6
g5
sg13
I42
ssg6
g5
sg13
I147
ssg6
g8
sg13
I0
ssg6
(dp2705
g2
g3
sg4
g8
sg6
(dp2706
g2
g5
sg4
(dp2707
g2
g5
sg4
(dp2708
g2
g5
sg4
(dp2709
g2
g5
sg4
(dp2710
g2
g5
sg4
(dp2711
g2
g5
sg4
(dp2712
g2
g5
sg4
(dp2713
g2
g5
sg4
(dp2714
g2
g5
sg4
g8
sg6
g3
sg13
I167
ssg6
g5
sg13
I68
ssg6
g5
sg13
I65
ssg6
g5
sg13
I17
ssg6
g5
sg13
I80
ssg6
g12
sg13
I35
ssg6
g5
sg13
I110
ssg6
g5
sg13
I59
ssg6
g12
sg13
I89
ssg13
I117
ssg13
I27
ssg13
I159
ssg13
I81
sa(dp2715
g2
g8
sg4
g3
sg6
(dp2716
g2
g5
sg4
g3
sg6
(dp2717
g2
g5
sg4
g8
sg6
(dp2718
g2
g5
sg4
g8
sg6
(dp2719
g2
g5
sg4
g12
sg6
(dp2720
g2
g5
sg4
g8
sg6
(dp2721
g2
g3
sg4
g5
sg6
(dp2722
g2
g5
sg4
g8
sg6
(dp2723
g2
g5
sg4
g12
sg6
(dp2724
g2
g5
sg4
g3
sg6
(dp2725
g2
g5
sg4
g5
sg6
(dp2726
g2
g5
sg4
g5
sg6
(dp2727
g2
g5
sg4
g5
sg6
(dp2728
g2
g5
sg4
g5
sg6
(dp2729
g2
g5
sg4
g5
sg6
(dp2730
g2
g5
sg4
g5
sg6
(dp2731
g2
g5
sg4
g5
sg6
(dp2732
g2
g5
sg4
g5
sg6
(dp2733
g2
g5
sg4
g5
sg6
(dp2734
g2
g5
sg4
g5
sg6
(dp2735
g2
g5
sg4
g5
sg6
(dp2736
g2
g5
sg4
g5
sg6
g5
sg13
I33
ssg13
I50
ssg13
I0
ssg13
I169
ssg13
I43
ssg13
I114
ssg13
I40
ssg13
I42
ssg13
I120
ssg13
I59
ssg13
I71
ssg13
I88
ssg13
I21
ssg13
I168
ssg13
I110
ssg13
I17
ssg13
I106
ssg13
I104
ssg13
I146
ssg13
I163
ssg13
I150
ssg13
I85
sa(dp2737
g2
g3
sg4
g12
sg6
(dp2738
g2
g12
sg4
(dp2739
g2
g12
sg4
(dp2740
g2
g12
sg4
(dp2741
g2
g5
sg4
(dp2742
g2
g3
sg4
(dp2743
g2
g5
sg4
(dp2744
g2
g5
sg4
(dp2745
g2
g8
sg4
(dp2746
g2
g8
sg4
(dp2747
g2
g12
sg4
g3
sg6
g5
sg13
I142
ssg6
g5
sg13
I112
ssg6
g5
sg13
I117
ssg6
g5
sg13
I159
ssg6
g5
sg13
I132
ssg6
g8
sg13
I157
ssg6
g8
sg13
I135
ssg6
(dp2748
g2
(dp2749
g2
g3
sg4
g8
sg6
g5
sg13
I111
ssg4
g5
sg6
g8
sg13
I37
ssg13
I181
ssg6
(dp2750
g2
g8
sg4
(dp2751
g2
g12
sg4
g3
sg6
g5
sg13
I62
ssg6
g3
sg13
I130
ssg13
I136
ssg6
(dp2752
g2
g3
sg4
(dp2753
g2
g3
sg4
g5
sg6
(dp2754
g2
g12
sg4
g3
sg6
g8
sg13
I114
ssg13
I2
ssg6
(dp2755
g2
g12
sg4
g3
sg6
(dp2756
g2
g5
sg4
g8
sg6
(dp2757
g2
g3
sg4
g5
sg6
(dp2758
g2
g5
sg4
g12
sg6
g8
sg13
I82
ssg13
I74
ssg13
I58
ssg13
I188
ssg13
I63
ssg13
I133
ssg13
I78
sa(dp2759
g2
g5
sg4
g8
sg6
(dp2760
g2
g12
sg4
(dp2761
g2
g12
sg4
(dp2762
g2
g12
sg4
(dp2763
g2
g5
sg4
(dp2764
g2
g5
sg4
(dp2765
g2
g8
sg4
(dp2766
g2
g5
sg4
g8
sg6
g5
sg13
I111
ssg6
g12
sg13
I143
ssg6
g12
sg13
I154
ssg6
(dp2767
g2
g8
sg4
g3
sg6
g5
sg13
I184
ssg13
I133
ssg6
g3
sg13
I148
ssg6
(dp2768
g2
(dp2769
g2
g5
sg4
g12
sg6
g3
sg13
I140
ssg4
g5
sg6
g3
sg13
I67
ssg13
I172
ssg6
(dp2770
g2
(dp2771
g2
g8
sg4
g5
sg6
g12
sg13
I116
ssg4
(dp2772
g2
g8
sg4
(dp2773
g2
g5
sg4
(dp2774
g2
g5
sg4
(dp2775
g2
g3
sg4
(dp2776
g2
g12
sg4
g3
sg6
g5
sg13
I134
ssg6
g12
sg13
I13
ssg6
g5
sg13
I165
ssg6
g12
sg13
I162
ssg6
g8
sg13
I163
ssg6
(dp2777
g2
(dp2778
g2
g5
sg4
g8
sg6
g12
sg13
I84
ssg4
g3
sg6
(dp2779
g2
g5
sg4
g3
sg6
(dp2780
g2
g5
sg4
g8
sg6
g5
sg13
I106
ssg13
I38
ssg13
I95
ssg13
I166
ssg13
I147
ssg13
I81
sa(dp2781
g2
g3
sg4
g5
sg6
(dp2782
g2
g5
sg4
g12
sg6
(dp2783
g2
g3
sg4
(dp2784
g2
(dp2785
g2
g5
sg4
(dp2786
g2
g5
sg4
g8
sg6
g5
sg13
I108
ssg6
g5
sg13
I156
ssg4
(dp2787
g2
g5
sg4
(dp2788
g2
g5
sg4
(dp2789
g2
g5
sg4
(dp2790
g2
(dp2791
g2
g5
sg4
g8
sg6
g5
sg13
I61
ssg4
(dp2792
g2
g5
sg4
(dp2793
g2
g5
sg4
(dp2794
g2
g5
sg4
(dp2795
g2
g5
sg4
g3
sg6
g12
sg13
I60
ssg6
g8
sg13
I14
ssg6
g5
sg13
I1
ssg6
g5
sg13
I10
ssg6
g12
sg13
I163
ssg6
g5
sg13
I3
ssg6
g5
sg13
I18
ssg6
g8
sg13
I4
ssg6
(dp2796
g2
g8
sg4
g12
sg6
g5
sg13
I94
ssg13
I0
ssg6
(dp2797
g2
(dp2798
g2
g5
sg4
g8
sg6
g3
sg13
I117
ssg4
g12
sg6
(dp2799
g2
g8
sg4
g5
sg6
(dp2800
g2
g5
sg4
g12
sg6
(dp2801
g2
g5
sg4
g12
sg6
(dp2802
g2
g5
sg4
g3
sg6
g5
sg13
I30
ssg13
I164
ssg13
I66
ssg13
I118
ssg13
I17
ssg13
I21
ssg13
I107
ssg13
I82
sa(dp2803
g2
g5
sg4
g3
sg6
(dp2804
g2
g12
sg4
(dp2805
g2
g5
sg4
g8
sg6
(dp2806
g2
(dp2807
g2
g5
sg4
g8
sg6
g12
sg13
I95
ssg4
(dp2808
g2
(dp2809
g2
g5
sg4
g3
sg6
g5
sg13
I150
ssg4
(dp2810
g2
g5
sg4
g12
sg6
g3
sg13
I148
ssg6
g5
sg13
I156
ssg6
g12
sg13
I135
ssg13
I85
ssg6
(dp2811
g2
(dp2812
g2
(dp2813
g2
(dp2814
g2
g3
sg4
g5
sg6
g12
sg13
I0
ssg4
g8
sg6
g5
sg13
I8
ssg4
(dp2815
g2
g5
sg4
g8
sg6
(dp2816
g2
g5
sg4
g8
sg6
g5
sg13
I159
ssg13
I175
ssg6
g5
sg13
I17
ssg4
(dp2817
g2
(dp2818
g2
(dp2819
g2
g5
sg4
g12
sg6
g3
sg13
I153
ssg4
g5
sg6
g12
sg13
I13
ssg4
g8
sg6
(dp2820
g2
g5
sg4
(dp2821
g2
g3
sg4
(dp2822
g2
g5
sg4
g3
sg6
g5
sg13
I58
ssg6
g8
sg13
I23
ssg6
g5
sg13
I65
ssg13
I179
ssg6
(dp2823
g2
g12
sg4
g3
sg6
(dp2824
g2
g5
sg4
g3
sg6
g5
sg13
I108
ssg13
I191
ssg13
I68
ssg13
I132
ssg13
I78
sa(dp2825
g2
g8
sg4
g3
sg6
(dp2826
g2
g12
sg4
(dp2827
g2
g5
sg4
(dp2828
g2
g12
sg4
g5
sg6
g8
sg13
I155
ssg6
(dp2829
g2
g5
sg4
(dp2830
g2
g5
sg4
g3
sg6
(dp2831
g2
g5
sg4
(dp2832
g2
g5
sg4
(dp2833
g2
g5
sg4
g8
sg6
g5
sg13
I123
ssg6
g5
sg13
I129
ssg6
g3
sg13
I105
ssg13
I84
ssg6
g5
sg13
I102
ssg13
I154
ssg6
(dp2834
g2
(dp2835
g2
g5
sg4
g3
sg6
g8
sg13
I36
ssg4
(dp2836
g2
g5
sg4
(dp2837
g2
(dp2838
g2
g12
sg4
g5
sg6
g12
sg13
I128
ssg4
g8
sg6
g3
sg13
I173
ssg6
g8
sg13
I1
ssg6
(dp2839
g2
(dp2840
g2
g5
sg4
g3
sg6
g5
sg13
I159
ssg4
g8
sg6
(dp2841
g2
g5
sg4
g8
sg6
(dp2842
g2
g5
sg4
g12
sg6
(dp2843
g2
(dp2844
g2
g5
sg4
g12
sg6
g5
sg13
I54
ssg4
g8
sg6
(dp2845
g2
g3
sg4
g5
sg6
(dp2846
g2
g5
sg4
g12
sg6
g8
sg13
I110
ssg13
I91
ssg13
I48
ssg13
I107
ssg13
I162
ssg13
I4
ssg13
I22
ssg13
I153
ssg13
I63
sa(dp2847
g2
g5
sg4
g8
sg6
(dp2848
g2
g3
sg4
g8
sg6
(dp2849
g2
g5
sg4
(dp2850
g2
(dp2851
g2
g5
sg4
g12
sg6
g5
sg13
I172
ssg4
(dp2852
g2
g5
sg4
(dp2853
g2
(dp2854
g2
g5
sg4
(dp2855
g2
g5
sg4
(dp2856
g2
g5
sg4
(dp2857
g2
g5
sg4
(dp2858
g2
g3
sg4
g12
sg6
g5
sg13
I164
ssg6
g5
sg13
I174
ssg6
g5
sg13
I118
ssg6
g5
sg13
I117
ssg6
g5
sg13
I125
ssg4
(dp2859
g2
g5
sg4
(dp2860
g2
(dp2861
g2
g5
sg4
g12
sg6
g5
sg13
I130
ssg4
(dp2862
g2
g5
sg4
(dp2863
g2
g12
sg4
g5
sg6
g3
sg13
I137
ssg6
g5
sg13
I4
ssg6
g12
sg13
I1
ssg6
g3
sg13
I124
ssg6
g12
sg13
I145
ssg6
g5
sg13
I120
ssg6
g8
sg13
I121
ssg6
(dp2864
g2
g5
sg4
g3
sg6
(dp2865
g2
g8
sg4
g12
sg6
(dp2866
g2
g5
sg4
g3
sg6
(dp2867
g2
g5
sg4
g3
sg6
(dp2868
g2
g5
sg4
g12
sg6
g5
sg13
I42
ssg13
I144
ssg13
I54
ssg13
I191
ssg13
I40
ssg13
I123
ssg13
I63
ssg13
I105
sa(dp2869
g2
g12
sg4
g8
sg6
(dp2870
g2
g8
sg4
(dp2871
g2
g3
sg4
(dp2872
g2
g5
sg4
g12
sg6
(dp2873
g2
g5
sg4
(dp2874
g2
g5
sg4
(dp2875
g2
g5
sg4
(dp2876
g2
g5
sg4
(dp2877
g2
g5
sg4
(dp2878
g2
g5
sg4
g8
sg6
g5
sg13
I160
ssg6
g5
sg13
I153
ssg6
g5
sg13
I15
ssg6
g5
sg13
I47
ssg6
g5
sg13
I159
ssg6
g5
sg13
I69
ssg13
I67
ssg6
(dp2879
g2
g12
sg4
(dp2880
g2
g5
sg4
g3
sg6
g5
sg13
I65
ssg6
g3
sg13
I53
ssg13
I46
ssg6
(dp2881
g2
(dp2882
g2
g12
sg4
(dp2883
g2
g5
sg4
g12
sg6
g5
sg13
I85
ssg6
g12
sg13
I165
ssg4
(dp2884
g2
g5
sg4
(dp2885
g2
g12
sg4
(dp2886
g2
g5
sg4
(dp2887
g2
g5
sg4
(dp2888
g2
g3
sg4
g8
sg6
g12
sg13
I31
ssg6
g5
sg13
I188
ssg6
g5
sg13
I142
ssg6
g3
sg13
I138
ssg6
(dp2889
g2
g5
sg4
g3
sg6
g5
sg13
I123
ssg13
I139
ssg6
(dp2890
g2
g5
sg4
g12
sg6
g5
sg13
I20
ssg13
I184
ssg13
I70
ssg13
I106
sa(dp2891
g2
g3
sg4
g8
sg6
(dp2892
g2
g3
sg4
g5
sg6
(dp2893
g2
g12
sg4
(dp2894
g2
g5
sg4
(dp2895
g2
g5
sg4
(dp2896
g2
g5
sg4
(dp2897
g2
g5
sg4
(dp2898
g2
g5
sg4
(dp2899
g2
g5
sg4
(dp2900
g2
g5
sg4
(dp2901
g2
g5
sg4
(dp2902
g2
g5
sg4
(dp2903
g2
g5
sg4
g3
sg6
g5
sg13
I146
ssg6
g5
sg13
I145
ssg6
g5
sg13
I144
ssg6
g5
sg13
I121
ssg6
g5
sg13
I124
ssg6
g5
sg13
I120
ssg6
g5
sg13
I53
ssg6
g12
sg13
I123
ssg6
g12
sg13
I168
ssg6
g5
sg13
I149
ssg6
(dp2904
g2
g12
sg4
g5
sg6
(dp2905
g2
(dp2906
g2
g5
sg4
(dp2907
g2
g3
sg4
g5
sg6
g8
sg13
I135
ssg6
g5
sg13
I67
ssg4
g8
sg6
(dp2908
g2
g5
sg4
g8
sg6
(dp2909
g2
g5
sg4
g12
sg6
(dp2910
g2
g5
sg4
g8
sg6
(dp2911
g2
g5
sg4
g12
sg6
(dp2912
g2
g5
sg4
g3
sg6
g5
sg13
I134
ssg13
I59
ssg13
I104
ssg13
I178
ssg13
I167
ssg13
I17
ssg13
I175
ssg13
I147
ssg13
I7
ssg13
I87
sa(dp2913
g2
g3
sg4
g8
sg6
(dp2914
g2
g12
sg4
g8
sg6
(dp2915
g2
g5
sg4
(dp2916
g2
g5
sg4
(dp2917
g2
g5
sg4
(dp2918
g2
g5
sg4
(dp2919
g2
g5
sg4
(dp2920
g2
g12
sg4
(dp2921
g2
g5
sg4
g12
sg6
g3
sg13
I158
ssg6
g5
sg13
I120
ssg6
g3
sg13
I149
ssg6
g8
sg13
I100
ssg6
(dp2922
g2
g5
sg4
(dp2923
g2
g8
sg4
(dp2924
g2
g5
sg4
g3
sg6
g12
sg13
I133
ssg6
g5
sg13
I114
ssg6
g5
sg13
I116
ssg13
I103
ssg6
(dp2925
g2
g5
sg4
g8
sg6
(dp2926
g2
g5
sg4
g3
sg6
g5
sg13
I71
ssg13
I169
ssg13
I99
ssg6
(dp2927
g2
(dp2928
g2
g3
sg4
g12
sg6
g5
sg13
I152
ssg4
g8
sg6
(dp2929
g2
g12
sg4
g5
sg6
(dp2930
g2
g5
sg4
g3
sg6
(dp2931
g2
g5
sg4
g8
sg6
(dp2932
g2
g5
sg4
g12
sg6
(dp2933
g2
g5
sg4
g3
sg6
(dp2934
g2
g5
sg4
g8
sg6
g5
sg13
I62
ssg13
I139
ssg13
I123
ssg13
I75
ssg13
I22
ssg13
I146
ssg13
I181
ssg13
I102
ssg13
I142
ssg13
I36
sa(dp2935
g2
g12
sg4
g8
sg6
(dp2936
g2
g3
sg4
g5
sg6
(dp2937
g2
g12
sg4
g8
sg6
(dp2938
g2
g5
sg4
g12
sg6
(dp2939
g2
g5
sg4
g3
sg6
(dp2940
g2
g5
sg4
g8
sg6
(dp2941
g2
g8
sg4
g3
sg6
(dp2942
g2
g12
sg4
g3
sg6
(dp2943
g2
g5
sg4
g12
sg6
(dp2944
g2
g3
sg4
g5
sg6
(dp2945
g2
g5
sg4
g8
sg6
(dp2946
g2
g5
sg4
g8
sg6
(dp2947
g2
g5
sg4
g12
sg6
(dp2948
g2
g5
sg4
g8
sg6
(dp2949
g2
g5
sg4
g3
sg6
(dp2950
g2
g5
sg4
g8
sg6
(dp2951
g2
g5
sg4
g12
sg6
(dp2952
g2
g5
sg4
g5
sg6
(dp2953
g2
g5
sg4
g5
sg6
(dp2954
g2
g5
sg4
g5
sg6
(dp2955
g2
g5
sg4
g5
sg6
(dp2956
g2
g5
sg4
g5
sg6
g5
sg13
I18
ssg13
I113
ssg13
I175
ssg13
I69
ssg13
I16
ssg13
I79
ssg13
I63
ssg13
I54
ssg13
I84
ssg13
I123
ssg13
I74
ssg13
I148
ssg13
I20
ssg13
I6
ssg13
I179
ssg13
I164
ssg13
I52
ssg13
I81
ssg13
I125
ssg13
I137
ssg13
I30
ssg13
I132
sa(dp2957
g2
g8
sg4
g3
sg6
(dp2958
g2
g12
sg4
g5
sg6
(dp2959
g2
g5
sg4
g3
sg6
(dp2960
g2
g5
sg4
g3
sg6
(dp2961
g2
g5
sg4
g12
sg6
(dp2962
g2
g5
sg4
g12
sg6
(dp2963
g2
g5
sg4
g3
sg6
(dp2964
g2
g5
sg4
g8
sg6
(dp2965
g2
g5
sg4
g12
sg6
(dp2966
g2
g5
sg4
g8
sg6
(dp2967
g2
g5
sg4
g3
sg6
(dp2968
g2
g5
sg4
g3
sg6
(dp2969
g2
g5
sg4
g8
sg6
(dp2970
g2
g5
sg4
g5
sg6
(dp2971
g2
g5
sg4
g12
sg6
(dp2972
g2
g5
sg4
g3
sg6
(dp2973
g2
g5
sg4
g12
sg6
(dp2974
g2
g5
sg4
g5
sg6
(dp2975
g2
g5
sg4
g8
sg6
(dp2976
g2
g5
sg4
g12
sg6
(dp2977
g2
g5
sg4
g5
sg6
(dp2978
g2
g5
sg4
g5
sg6
g5
sg13
I174
ssg13
I1
ssg13
I17
ssg13
I50
ssg13
I117
ssg13
I36
ssg13
I150
ssg13
I102
ssg13
I70
ssg13
I161
ssg13
I87
ssg13
I109
ssg13
I189
ssg13
I111
ssg13
I135
ssg13
I57
ssg13
I158
ssg13
I108
ssg13
I38
ssg13
I59
ssg13
I162
ssg13
I81
sa(dp2979
g2
g3
sg4
g12
sg6
(dp2980
g2
g8
sg4
g12
sg6
(dp2981
g2
g5
sg4
g8
sg6
(dp2982
g2
g5
sg4
g3
sg6
(dp2983
g2
g5
sg4
g8
sg6
(dp2984
g2
g3
sg4
g12
sg6
(dp2985
g2
g5
sg4
g3
sg6
(dp2986
g2
g5
sg4
g8
sg6
(dp2987
g2
g5
sg4
g12
sg6
(dp2988
g2
g5
sg4
g3
sg6
(dp2989
g2
g5
sg4
g5
sg6
(dp2990
g2
g5
sg4
g5
sg6
(dp2991
g2
g5
sg4
g5
sg6
(dp2992
g2
g5
sg4
g5
sg6
(dp2993
g2
g5
sg4
g5
sg6
(dp2994
g2
g5
sg4
g5
sg6
(dp2995
g2
g5
sg4
g5
sg6
(dp2996
g2
g5
sg4
g5
sg6
(dp2997
g2
g5
sg4
g5
sg6
(dp2998
g2
g5
sg4
g5
sg6
(dp2999
g2
g5
sg4
g5
sg6
(dp3000
g2
g5
sg4
g5
sg6
g5
sg13
I86
ssg13
I3
ssg13
I111
ssg13
I31
ssg13
I150
ssg13
I181
ssg13
I32
ssg13
I153
ssg13
I101
ssg13
I165
ssg13
I186
ssg13
I22
ssg13
I166
ssg13
I61
ssg13
I79
ssg13
I106
ssg13
I63
ssg13
I94
ssg13
I0
ssg13
I156
ssg13
I189
ssg13
I75
sa(dp3001
g2
g3
sg4
g5
sg6
(dp3002
g2
g8
sg4
(dp3003
g2
g8
sg4
(dp3004
g2
g3
sg4
g12
sg6
g3
sg13
I44
ssg6
(dp3005
g2
g5
sg4
(dp3006
g2
g5
sg4
(dp3007
g2
g5
sg4
(dp3008
g2
g5
sg4
(dp3009
g2
g5
sg4
(dp3010
g2
g5
sg4
(dp3011
g2
g5
sg4
g3
sg6
g12
sg13
I95
ssg6
g5
sg13
I51
ssg6
g5
sg13
I61
ssg6
g5
sg13
I56
ssg6
g5
sg13
I35
ssg6
g8
sg13
I34
ssg6
g5
sg13
I43
ssg13
I143
ssg6
(dp3012
g2
g5
sg4
g12
sg6
(dp3013
g2
g5
sg4
g8
sg6
(dp3014
g2
g5
sg4
(dp3015
g2
g12
sg4
g5
sg6
g12
sg13
I146
ssg6
(dp3016
g2
g5
sg4
g3
sg6
(dp3017
g2
(dp3018
g2
g5
sg4
g8
sg6
g5
sg13
I22
ssg4
g8
sg6
(dp3019
g2
g5
sg4
g8
sg6
(dp3020
g2
g5
sg4
g3
sg6
(dp3021
g2
g5
sg4
g12
sg6
(dp3022
g2
g5
sg4
g3
sg6
g5
sg13
I60
ssg13
I191
ssg13
I28
ssg13
I157
ssg13
I141
ssg13
I184
ssg13
I180
ssg13
I46
ssg13
I108
ssg13
I42
ssg13
I81
sa(dp3023
g2
g12
sg4
g5
sg6
(dp3024
g2
g5
sg4
g3
sg6
(dp3025
g2
g5
sg4
(dp3026
g2
g8
sg4
g12
sg6
(dp3027
g2
g5
sg4
g3
sg6
g5
sg13
I155
ssg13
I66
ssg6
(dp3028
g2
(dp3029
g2
g5
sg4
(dp3030
g2
g5
sg4
g12
sg6
g8
sg13
I22
ssg6
g5
sg13
I51
ssg4
g8
sg6
(dp3031
g2
g5
sg4
g3
sg6
(dp3032
g2
g5
sg4
g8
sg6
(dp3033
g2
g5
sg4
g12
sg6
(dp3034
g2
g5
sg4
g3
sg6
(dp3035
g2
g5
sg4
g8
sg6
(dp3036
g2
g5
sg4
g3
sg6
(dp3037
g2
g5
sg4
g3
sg6
(dp3038
g2
g5
sg4
g3
sg6
(dp3039
g2
g3
sg4
g12
sg6
(dp3040
g2
g5
sg4
g12
sg6
(dp3041
g2
g5
sg4
g8
sg6
(dp3042
g2
g5
sg4
g5
sg6
(dp3043
g2
g5
sg4
(dp3044
g2
g5
sg4
g12
sg6
g5
sg13
I167
ssg6
g5
sg13
I23
ssg13
I110
ssg13
I178
ssg13
I39
ssg13
I174
ssg13
I57
ssg13
I49
ssg13
I33
ssg13
I89
ssg13
I112
ssg13
I116
ssg13
I96
ssg13
I95
ssg13
I48
ssg13
I64
ssg13
I78
ssg13
I105
sa(dp3045
g2
g8
sg4
g5
sg6
(dp3046
g2
g5
sg4
(dp3047
g2
g5
sg4
g3
sg6
(dp3048
g2
g5
sg4
(dp3049
g2
g5
sg4
g12
sg6
g3
sg13
I55
ssg6
(dp3050
g2
g5
sg4
g8
sg6
g5
sg13
I107
ssg13
I130
ssg13
I52
ssg6
(dp3051
g2
(dp3052
g2
(dp3053
g2
(dp3054
g2
g5
sg4
g3
sg6
g12
sg13
I69
ssg4
g5
sg6
g3
sg13
I175
ssg4
g12
sg6
g5
sg13
I171
ssg4
(dp3055
g2
g12
sg4
g3
sg6
g5
sg13
I61
ssg6
(dp3056
g2
g12
sg4
g8
sg6
(dp3057
g2
g5
sg4
g12
sg6
(dp3058
g2
g3
sg4
g5
sg6
(dp3059
g2
g5
sg4
g12
sg6
(dp3060
g2
g5
sg4
g8
sg6
(dp3061
g2
g5
sg4
g12
sg6
(dp3062
g2
g8
sg4
g5
sg6
(dp3063
g2
g5
sg4
g3
sg6
(dp3064
g2
g5
sg4
(dp3065
g2
g5
sg4
(dp3066
g2
g5
sg4
g12
sg6
g5
sg13
I99
ssg6
g8
sg13
I129
ssg6
g3
sg13
I105
ssg13
I157
ssg13
I22
ssg13
I58
ssg13
I160
ssg13
I170
ssg13
I2
ssg13
I163
ssg13
I189
ssg13
I184
ssg13
I54
ssg13
I87
sa(dp3067
g2
g8
sg4
g3
sg6
(dp3068
g2
g5
sg4
(dp3069
g2
g3
sg4
g12
sg6
(dp3070
g2
g8
sg4
g3
sg6
(dp3071
g2
g5
sg4
g8
sg6
(dp3072
g2
g8
sg4
g5
sg6
g3
sg13
I54
ssg13
I11
ssg13
I23
ssg13
I32
ssg6
(dp3073
g2
(dp3074
g2
(dp3075
g2
g3
sg4
g8
sg6
g5
sg13
I120
ssg4
g8
sg6
g5
sg13
I191
ssg4
(dp3076
g2
(dp3077
g2
g5
sg4
g8
sg6
g5
sg13
I186
ssg4
(dp3078
g2
g8
sg4
(dp3079
g2
(dp3080
g2
g5
sg4
g8
sg6
g5
sg13
I124
ssg4
g8
sg6
g12
sg13
I50
ssg6
g8
sg13
I139
ssg6
(dp3081
g2
g5
sg4
g12
sg6
g5
sg13
I181
ssg13
I114
ssg6
(dp3082
g2
g5
sg4
g12
sg6
(dp3083
g2
g5
sg4
g12
sg6
(dp3084
g2
g5
sg4
g12
sg6
(dp3085
g2
g5
sg4
g3
sg6
(dp3086
g2
g5
sg4
g12
sg6
(dp3087
g2
g5
sg4
g8
sg6
(dp3088
g2
g5
sg4
g3
sg6
g5
sg13
I20
ssg13
I94
ssg13
I66
ssg13
I129
ssg13
I105
ssg13
I182
ssg13
I42
ssg13
I138
ssg13
I30
ssg13
I108
sa(dp3089
g2
g12
sg4
g5
sg6
(dp3090
g2
g3
sg4
g12
sg6
(dp3091
g2
g5
sg4
(dp3092
g2
g3
sg4
(dp3093
g2
g12
sg4
g5
sg6
(dp3094
g2
g5
sg4
g8
sg6
g5
sg13
I129
ssg13
I179
ssg6
(dp3095
g2
(dp3096
g2
g3
sg4
g5
sg6
g8
sg13
I28
ssg4
g5
sg6
g3
sg13
I69
ssg13
I153
ssg6
(dp3097
g2
g5
sg4
g8
sg6
(dp3098
g2
g5
sg4
g8
sg6
(dp3099
g2
g8
sg4
g5
sg6
(dp3100
g2
g12
sg4
g5
sg6
(dp3101
g2
g5
sg4
(dp3102
g2
g5
sg4
(dp3103
g2
g5
sg4
g3
sg6
(dp3104
g2
g5
sg4
(dp3105
g2
g5
sg4
g3
sg6
g12
sg13
I147
ssg6
g8
sg13
I120
ssg13
I20
ssg6
g5
sg13
I123
ssg6
(dp3106
g2
g3
sg4
g5
sg6
(dp3107
g2
g5
sg4
g3
sg6
(dp3108
g2
g5
sg4
g8
sg6
(dp3109
g2
g5
sg4
g3
sg6
(dp3110
g2
g5
sg4
g12
sg6
g5
sg13
I75
ssg13
I146
ssg13
I31
ssg13
I138
ssg13
I19
ssg13
I124
ssg13
I119
ssg13
I187
ssg13
I137
ssg13
I86
ssg13
I131
ssg13
I54
ssg13
I108
sa(dp3111
g2
g8
sg4
g5
sg6
(dp3112
g2
g3
sg4
g8
sg6
(dp3113
g2
g5
sg4
g12
sg6
(dp3114
g2
g5
sg4
g3
sg6
(dp3115
g2
g8
sg4
g3
sg6
(dp3116
g2
g5
sg4
g8
sg6
(dp3117
g2
g5
sg4
g3
sg6
(dp3118
g2
g5
sg4
g12
sg6
(dp3119
g2
g5
sg4
g12
sg6
(dp3120
g2
g5
sg4
g8
sg6
(dp3121
g2
g5
sg4
g8
sg6
(dp3122
g2
g5
sg4
g5
sg6
(dp3123
g2
g5
sg4
g12
sg6
(dp3124
g2
g5
sg4
g12
sg6
(dp3125
g2
g5
sg4
g5
sg6
(dp3126
g2
g5
sg4
g8
sg6
(dp3127
g2
g5
sg4
g5
sg6
(dp3128
g2
g5
sg4
g5
sg6
(dp3129
g2
g5
sg4
g5
sg6
(dp3130
g2
g5
sg4
g5
sg6
(dp3131
g2
g5
sg4
g5
sg6
(dp3132
g2
g5
sg4
g5
sg6
g5
sg13
I153
ssg13
I78
ssg13
I95
ssg13
I117
ssg13
I107
ssg13
I0
ssg13
I54
ssg13
I174
ssg13
I115
ssg13
I63
ssg13
I41
ssg13
I89
ssg13
I53
ssg13
I177
ssg13
I122
ssg13
I152
ssg13
I64
ssg13
I12
ssg13
I58
ssg13
I149
ssg13
I57
ssg13
I108
sa(dp3133
g2
g12
sg4
g3
sg6
(dp3134
g2
g12
sg4
(dp3135
g2
g8
sg4
(dp3136
g2
g12
sg4
(dp3137
g2
g12
sg4
g5
sg6
g3
sg13
I90
ssg6
g12
sg13
I184
ssg6
(dp3138
g2
g5
sg4
g3
sg6
g5
sg13
I63
ssg13
I138
ssg6
(dp3139
g2
g3
sg4
(dp3140
g2
g12
sg4
(dp3141
g2
g5
sg4
g12
sg6
g3
sg13
I179
ssg6
(dp3142
g2
g5
sg4
g3
sg6
(dp3143
g2
g5
sg4
g3
sg6
g5
sg13
I13
ssg13
I31
ssg13
I169
ssg6
(dp3144
g2
g5
sg4
g8
sg6
(dp3145
g2
g5
sg4
g8
sg6
(dp3146
g2
g5
sg4
g3
sg6
(dp3147
g2
g5
sg4
g12
sg6
(dp3148
g2
g5
sg4
g8
sg6
(dp3149
g2
g8
sg4
g5
sg6
(dp3150
g2
g5
sg4
g12
sg6
(dp3151
g2
g5
sg4
g8
sg6
(dp3152
g2
g5
sg4
g3
sg6
(dp3153
g2
g5
sg4
g12
sg6
(dp3154
g2
g5
sg4
g8
sg6
g5
sg13
I8
ssg13
I68
ssg13
I131
ssg13
I111
ssg13
I182
ssg13
I165
ssg13
I51
ssg13
I145
ssg13
I20
ssg13
I124
ssg13
I108
ssg13
I61
ssg13
I135
ssg13
I81
sa(dp3155
g2
g12
sg4
g5
sg6
(dp3156
g2
g5
sg4
g3
sg6
(dp3157
g2
g8
sg4
(dp3158
g2
g12
sg4
(dp3159
g2
g5
sg4
(dp3160
g2
g5
sg4
(dp3161
g2
g5
sg4
(dp3162
g2
g5
sg4
(dp3163
g2
g5
sg4
(dp3164
g2
g5
sg4
(dp3165
g2
g5
sg4
g8
sg6
g3
sg13
I120
ssg6
g5
sg13
I126
ssg6
g12
sg13
I69
ssg6
g12
sg13
I99
ssg6
g5
sg13
I112
ssg6
g5
sg13
I90
ssg6
(dp3166
g2
g5
sg4
g3
sg6
g12
sg13
I42
ssg13
I100
ssg6
(dp3167
g2
g5
sg4
g12
sg6
g8
sg13
I96
ssg13
I140
ssg6
(dp3168
g2
(dp3169
g2
g5
sg4
g12
sg6
g5
sg13
I175
ssg4
g3
sg6
(dp3170
g2
g5
sg4
g12
sg6
(dp3171
g2
g5
sg4
g3
sg6
(dp3172
g2
g8
sg4
g12
sg6
(dp3173
g2
g5
sg4
g12
sg6
(dp3174
g2
g5
sg4
g3
sg6
(dp3175
g2
g5
sg4
g8
sg6
(dp3176
g2
g5
sg4
g3
sg6
g5
sg13
I65
ssg13
I32
ssg13
I122
ssg13
I68
ssg13
I22
ssg13
I53
ssg13
I66
ssg13
I173
ssg13
I111
ssg13
I31
ssg13
I159
sa(dp3177
g2
g3
sg4
g5
sg6
(dp3178
g2
g12
sg4
g5
sg6
(dp3179
g2
g3
sg4
(dp3180
g2
g5
sg4
(dp3181
g2
g3
sg4
(dp3182
g2
g5
sg4
(dp3183
g2
g5
sg4
(dp3184
g2
g5
sg4
(dp3185
g2
g5
sg4
(dp3186
g2
g12
sg4
(dp3187
g2
g5
sg4
(dp3188
g2
g5
sg4
(dp3189
g2
g5
sg4
(dp3190
g2
g5
sg4
(dp3191
g2
g5
sg4
(dp3192
g2
g8
sg4
g3
sg6
g5
sg13
I0
ssg6
g5
sg13
I13
ssg6
g5
sg13
I12
ssg6
g5
sg13
I54
ssg6
g5
sg13
I10
ssg6
g5
sg13
I84
ssg6
g5
sg13
I36
ssg6
g5
sg13
I79
ssg6
g5
sg13
I105
ssg6
g3
sg13
I24
ssg6
g5
sg13
I58
ssg6
(dp3193
g2
g5
sg4
g12
sg6
g3
sg13
I96
ssg13
I34
ssg6
(dp3194
g2
g12
sg4
g3
sg6
g12
sg13
I157
ssg13
I120
ssg6
(dp3195
g2
g5
sg4
g3
sg6
(dp3196
g2
g8
sg4
g12
sg6
(dp3197
g2
g5
sg4
g3
sg6
(dp3198
g2
g5
sg4
g8
sg6
g12
sg13
I6
ssg13
I37
ssg13
I71
ssg13
I80
ssg13
I108
ssg13
I104
ssg13
I87
sa(dp3199
g2
g3
sg4
g8
sg6
(dp3200
g2
g5
sg4
g3
sg6
(dp3201
g2
g3
sg4
g5
sg6
(dp3202
g2
g5
sg4
g8
sg6
(dp3203
g2
g12
sg4
g5
sg6
(dp3204
g2
g5
sg4
g12
sg6
(dp3205
g2
g5
sg4
g3
sg6
(dp3206
g2
g12
sg4
g5
sg6
(dp3207
g2
g5
sg4
g8
sg6
(dp3208
g2
g5
sg4
g12
sg6
(dp3209
g2
g5
sg4
g3
sg6
(dp3210
g2
g5
sg4
g5
sg6
(dp3211
g2
g5
sg4
g5
sg6
(dp3212
g2
g5
sg4
g5
sg6
(dp3213
g2
g5
sg4
g5
sg6
(dp3214
g2
g5
sg4
g5
sg6
(dp3215
g2
g5
sg4
g5
sg6
(dp3216
g2
g5
sg4
g5
sg6
(dp3217
g2
g5
sg4
g5
sg6
(dp3218
g2
g5
sg4
g5
sg6
(dp3219
g2
g5
sg4
g5
sg6
(dp3220
g2
g5
sg4
g5
sg6
g5
sg13
I125
ssg13
I124
ssg13
I82
ssg13
I83
ssg13
I132
ssg13
I78
ssg13
I94
ssg13
I54
ssg13
I106
ssg13
I64
ssg13
I120
ssg13
I110
ssg13
I84
ssg13
I22
ssg13
I36
ssg13
I74
ssg13
I95
ssg13
I188
ssg13
I41
ssg13
I5
ssg13
I87
ssg13
I102
sa(dp3221
g2
g12
sg4
g3
sg6
(dp3222
g2
g3
sg4
g5
sg6
(dp3223
g2
g8
sg4
g12
sg6
(dp3224
g2
g5
sg4
g12
sg6
(dp3225
g2
g5
sg4
g12
sg6
(dp3226
g2
g5
sg4
g3
sg6
(dp3227
g2
g5
sg4
g12
sg6
(dp3228
g2
g5
sg4
g12
sg6
(dp3229
g2
g5
sg4
g8
sg6
(dp3230
g2
g5
sg4
g3
sg6
(dp3231
g2
g5
sg4
g12
sg6
(dp3232
g2
g5
sg4
g3
sg6
(dp3233
g2
g5
sg4
g8
sg6
(dp3234
g2
g5
sg4
g5
sg6
(dp3235
g2
g5
sg4
g5
sg6
(dp3236
g2
g5
sg4
g12
sg6
(dp3237
g2
g5
sg4
g5
sg6
(dp3238
g2
g5
sg4
g5
sg6
(dp3239
g2
g5
sg4
g5
sg6
(dp3240
g2
g5
sg4
g5
sg6
(dp3241
g2
g5
sg4
g5
sg6
(dp3242
g2
g5
sg4
g5
sg6
g5
sg13
I8
ssg13
I88
ssg13
I127
ssg13
I123
ssg13
I112
ssg13
I148
ssg13
I57
ssg13
I21
ssg13
I0
ssg13
I36
ssg13
I105
ssg13
I114
ssg13
I126
ssg13
I86
ssg13
I33
ssg13
I172
ssg13
I62
ssg13
I146
ssg13
I118
ssg13
I190
ssg13
I54
ssg13
I108
sa(dp3243
g2
g5
sg4
g12
sg6
(dp3244
g2
g3
sg4
g8
sg6
(dp3245
g2
g12
sg4
g5
sg6
(dp3246
g2
g8
sg4
g3
sg6
(dp3247
g2
g5
sg4
g8
sg6
(dp3248
g2
g5
sg4
g8
sg6
(dp3249
g2
g5
sg4
g3
sg6
(dp3250
g2
g5
sg4
g3
sg6
(dp3251
g2
g5
sg4
g8
sg6
(dp3252
g2
g5
sg4
g5
sg6
(dp3253
g2
g5
sg4
g5
sg6
(dp3254
g2
g5
sg4
g12
sg6
(dp3255
g2
g5
sg4
g5
sg6
(dp3256
g2
g5
sg4
g5
sg6
(dp3257
g2
g5
sg4
g5
sg6
(dp3258
g2
g5
sg4
g5
sg6
(dp3259
g2
g5
sg4
g5
sg6
(dp3260
g2
g5
sg4
g5
sg6
(dp3261
g2
g5
sg4
g5
sg6
(dp3262
g2
g5
sg4
g5
sg6
(dp3263
g2
g5
sg4
g5
sg6
(dp3264
g2
g5
sg4
g5
sg6
g5
sg13
I107
ssg13
I187
ssg13
I156
ssg13
I95
ssg13
I167
ssg13
I144
ssg13
I16
ssg13
I171
ssg13
I70
ssg13
I106
ssg13
I180
ssg13
I49
ssg13
I93
ssg13
I35
ssg13
I57
ssg13
I77
ssg13
I66
ssg13
I4
ssg13
I20
ssg13
I179
ssg13
I60
ssg13
I102
sa(dp3265
g2
g8
sg4
g12
sg6
(dp3266
g2
g3
sg4
(dp3267
g2
g12
sg4
g3
sg6
(dp3268
g2
g5
sg4
(dp3269
g2
(dp3270
g2
g5
sg4
g8
sg6
g5
sg13
I134
ssg4
g8
sg6
g5
sg13
I22
ssg6
g3
sg13
I73
ssg13
I34
ssg6
(dp3271
g2
(dp3272
g2
(dp3273
g2
g12
sg4
g5
sg6
g8
sg13
I9
ssg4
g5
sg6
g3
sg13
I167
ssg4
g5
sg6
(dp3274
g2
g12
sg4
g8
sg6
(dp3275
g2
g3
sg4
g5
sg6
(dp3276
g2
g5
sg4
g12
sg6
(dp3277
g2
(dp3278
g2
g12
sg4
g5
sg6
g12
sg13
I113
ssg4
g3
sg6
(dp3279
g2
g5
sg4
g8
sg6
(dp3280
g2
g5
sg4
g8
sg6
(dp3281
g2
g5
sg4
g5
sg6
(dp3282
g2
g5
sg4
g3
sg6
(dp3283
g2
g5
sg4
g12
sg6
(dp3284
g2
g5
sg4
g5
sg6
(dp3285
g2
g5
sg4
g5
sg6
(dp3286
g2
g5
sg4
g8
sg6
g5
sg13
I110
ssg13
I168
ssg13
I105
ssg13
I107
ssg13
I86
ssg13
I11
ssg13
I35
ssg13
I148
ssg13
I155
ssg13
I106
ssg13
I90
ssg13
I127
ssg13
I23
ssg13
I31
ssg13
I109
sa(dp3287
g2
g3
sg4
g5
sg6
(dp3288
g2
g8
sg4
g5
sg6
(dp3289
g2
g5
sg4
(dp3290
g2
g5
sg4
(dp3291
g2
g5
sg4
(dp3292
g2
g5
sg4
(dp3293
g2
g5
sg4
(dp3294
g2
g5
sg4
(dp3295
g2
g5
sg4
(dp3296
g2
g5
sg4
g3
sg6
g5
sg13
I122
ssg6
g12
sg13
I145
ssg6
g5
sg13
I175
ssg6
g5
sg13
I169
ssg6
g8
sg13
I151
ssg6
g3
sg13
I170
ssg6
(dp3297
g2
g3
sg4
g5
sg6
g8
sg13
I11
ssg13
I148
ssg6
(dp3298
g2
g5
sg4
g3
sg6
(dp3299
g2
(dp3300
g2
g5
sg4
g8
sg6
g12
sg13
I81
ssg4
g5
sg6
(dp3301
g2
g5
sg4
g3
sg6
(dp3302
g2
g5
sg4
g12
sg6
(dp3303
g2
g5
sg4
g8
sg6
(dp3304
g2
g5
sg4
g12
sg6
(dp3305
g2
g5
sg4
g3
sg6
(dp3306
g2
g5
sg4
g8
sg6
(dp3307
g2
g5
sg4
g5
sg6
(dp3308
g2
g5
sg4
g12
sg6
g5
sg13
I138
ssg13
I166
ssg13
I36
ssg13
I76
ssg13
I109
ssg13
I46
ssg13
I100
ssg13
I28
ssg13
I163
ssg13
I128
ssg13
I172
ssg13
I117
ssg13
I85
sa.