(lp0
(dp1
S'lt'
p2
(dp3
g2
(dp4
g2
(dp5
g2
(dp6
g2
(dp7
g2
(dp8
g2
(dp9
g2
(dp10
g2
(dp11
g2
(dp12
g2
(dp13
g2
S'180'
p14
sS'gt'
p15
S'90'
p16
sS'idx'
p17
I118
ssg15
S'270'
p18
sg17
I81
ssg15
S'0'
p19
sg17
I60
ssg15
g16
sg17
I112
ssg15
g19
sg17
I106
ssg15
g19
sg17
I31
ssg15
g14
sg17
I131
ssg15
g18
sg17
I129
ssg15
g16
sg17
I139
ssg15
g18
sg17
I55
ssg15
g16
sg17
I109
ssg15
g19
sg17
I58
sa(dp20
g2
(dp21
g2
(dp22
g2
(dp23
g2
(dp24
g2
(dp25
g2
(dp26
g2
(dp27
g2
(dp28
g2
(dp29
g2
(dp30
g2
(dp31
g2
g18
sg15
g19
sg17
I116
ssg15
g19
sg17
I41
ssg15
g19
sg17
I143
ssg15
g14
sg17
I155
ssg15
g19
sg17
I88
ssg15
g18
sg17
I148
ssg15
g19
sg17
I22
ssg15
g18
sg17
I124
ssg15
g19
sg17
I67
ssg15
g16
sg17
I95
ssg15
g16
sg17
I92
ssg15
g19
sg17
I37
sa(dp32
g2
(dp33
g2
(dp34
g2
(dp35
g2
(dp36
g2
(dp37
g2
(dp38
g2
(dp39
g2
(dp40
g2
(dp41
g2
(dp42
g2
(dp43
g2
g19
sg15
g18
sg17
I101
ssg15
g16
sg17
I136
ssg15
g16
sg17
I76
ssg15
g19
sg17
I111
ssg15
g18
sg17
I79
ssg15
g19
sg17
I65
ssg15
g14
sg17
I132
ssg15
g18
sg17
I49
ssg15
g14
sg17
I135
ssg15
g18
sg17
I128
ssg15
g18
sg17
I108
ssg15
g16
sg17
I91
sa(dp44
g2
(dp45
g2
(dp46
g2
(dp47
g2
(dp48
g2
(dp49
g2
(dp50
g2
(dp51
g2
(dp52
g2
(dp53
g2
(dp54
g2
(dp55
g2
g16
sg15
g18
sg17
I181
ssg15
g18
sg17
I131
ssg15
g14
sg17
I158
ssg15
g19
sg17
I133
ssg15
g19
sg17
I59
ssg15
g14
sg17
I132
ssg15
g16
sg17
I82
ssg15
g14
sg17
I90
ssg15
g18
sg17
I4
ssg15
g19
sg17
I86
ssg15
g14
sg17
I106
ssg15
g16
sg17
I88
sa(dp56
g2
(dp57
g2
(dp58
g2
(dp59
g2
(dp60
g2
(dp61
g2
(dp62
g2
(dp63
g2
(dp64
g2
(dp65
g2
(dp66
g2
(dp67
g2
g19
sg15
g18
sg17
I53
ssg15
g18
sg17
I84
ssg15
g14
sg17
I127
ssg15
g18
sg17
I136
ssg15
g19
sg17
I49
ssg15
g14
sg17
I76
ssg15
g14
sg17
I73
ssg15
g19
sg17
I62
ssg15
g14
sg17
I100
ssg15
g16
sg17
I121
ssg15
g18
sg17
I52
ssg15
g16
sg17
I163
sa(dp68
g2
(dp69
g2
(dp70
g2
(dp71
g2
(dp72
g2
(dp73
g2
(dp74
g2
(dp75
g2
(dp76
g2
(dp77
g2
(dp78
g2
(dp79
g2
g16
sg15
g14
sg17
I82
ssg15
g19
sg17
I83
ssg15
g19
sg17
I58
ssg15
g18
sg17
I97
ssg15
g19
sg17
I8
ssg15
g16
sg17
I90
ssg15
g18
sg17
I169
ssg15
g19
sg17
I87
ssg15
g14
sg17
I109
ssg15
g14
sg17
I157
ssg15
g18
sg17
I4
ssg15
g16
sg17
I112
sa(dp80
g2
(dp81
g2
(dp82
g2
(dp83
g2
(dp84
g2
(dp85
g2
(dp86
g2
(dp87
g2
(dp88
g2
(dp89
g2
(dp90
g2
(dp91
g2
g18
sg15
g16
sg17
I71
ssg15
g19
sg17
I17
ssg15
g19
sg17
I44
ssg15
g16
sg17
I68
ssg15
g19
sg17
I40
ssg15
g18
sg17
I100
ssg15
g18
sg17
I28
ssg15
g14
sg17
I178
ssg15
g19
sg17
I43
ssg15
g16
sg17
I181
ssg15
g14
sg17
I130
ssg15
g14
sg17
I107
sa(dp92
g2
(dp93
g2
(dp94
g2
(dp95
g2
(dp96
g2
(dp97
g2
(dp98
g2
(dp99
g2
(dp100
g2
(dp101
g2
(dp102
g2
(dp103
g2
g14
sg15
g18
sg17
I85
ssg15
g19
sg17
I142
ssg15
g18
sg17
I166
ssg15
g19
sg17
I160
ssg15
g18
sg17
I133
ssg15
g19
sg17
I55
ssg15
g18
sg17
I34
ssg15
g16
sg17
I91
ssg15
g18
sg17
I31
ssg15
g14
sg17
I130
ssg15
g16
sg17
I64
ssg15
g16
sg17
I22
sa(dp104
g2
(dp105
g2
(dp106
g2
(dp107
g2
(dp108
g2
(dp109
g2
(dp110
g2
(dp111
g2
(dp112
g2
(dp113
g2
(dp114
g2
(dp115
g2
g16
sg15
g14
sg17
I97
ssg15
g18
sg17
I88
ssg15
g19
sg17
I148
ssg15
g14
sg17
I172
ssg15
g18
sg17
I70
ssg15
g16
sg17
I13
ssg15
g14
sg17
I139
ssg15
g16
sg17
I190
ssg15
g19
sg17
I61
ssg15
g19
sg17
I130
ssg15
g16
sg17
I22
ssg15
g14
sg17
I121
sa(dp116
g2
(dp117
g2
(dp118
g2
(dp119
g2
(dp120
g2
(dp121
g2
(dp122
g2
(dp123
g2
(dp124
g2
(dp125
g2
(dp126
g2
(dp127
g2
g16
sg15
g14
sg17
I101
ssg15
g18
sg17
I25
ssg15
g18
sg17
I83
ssg15
g19
sg17
I34
ssg15
g18
sg17
I35
ssg15
g19
sg17
I58
ssg15
g19
sg17
I59
ssg15
g19
sg17
I31
ssg15
g18
sg17
I82
ssg15
g18
sg17
I103
ssg15
g16
sg17
I85
ssg15
g19
sg17
I10
sa(dp128
g2
(dp129
g2
(dp130
g2
(dp131
g2
(dp132
g2
(dp133
g2
(dp134
g2
(dp135
g2
(dp136
g2
(dp137
g2
(dp138
g2
(dp139
g2
g14
sg15
g18
sg17
I6
ssg15
g19
sg17
I59
ssg15
g14
sg17
I166
ssg15
g19
sg17
I181
ssg15
g18
sg17
I60
ssg15
g18
sg17
I187
ssg15
g18
sg17
I129
ssg15
g18
sg17
I132
ssg15
g19
sg17
I191
ssg15
g19
sg17
I81
ssg15
g16
sg17
I67
ssg15
g14
sg17
I131
sa(dp140
g2
(dp141
g2
(dp142
g2
(dp143
g2
(dp144
g2
(dp145
g2
(dp146
g2
(dp147
g2
(dp148
g2
(dp149
g2
(dp150
g2
(dp151
g2
g18
sg15
g19
sg17
I91
ssg15
g14
sg17
I175
ssg15
g16
sg17
I137
ssg15
g19
sg17
I103
ssg15
g18
sg17
I154
ssg15
g19
sg17
I127
ssg15
g18
sg17
I77
ssg15
g19
sg17
I59
ssg15
g14
sg17
I151
ssg15
g19
sg17
I40
ssg15
g18
sg17
I106
ssg15
g16
sg17
I109
sa(dp152
g2
(dp153
g2
(dp154
g2
(dp155
g2
(dp156
g2
(dp157
g2
(dp158
g2
(dp159
g2
(dp160
g2
(dp161
g2
(dp162
g2
(dp163
g2
g16
sg15
g14
sg17
I183
ssg15
g18
sg17
I108
ssg15
g16
sg17
I63
ssg15
g16
sg17
I112
ssg15
g14
sg17
I50
ssg15
g18
sg17
I99
ssg15
g19
sg17
I12
ssg15
g14
sg17
I124
ssg15
g18
sg17
I83
ssg15
g16
sg17
I114
ssg15
g16
sg17
I111
ssg15
g18
sg17
I73
sa(dp164
g2
(dp165
g2
(dp166
g2
(dp167
g2
(dp168
g2
(dp169
g2
(dp170
g2
(dp171
g2
(dp172
g2
(dp173
g2
(dp174
g2
(dp175
g2
g19
sg15
g18
sg17
I103
ssg15
g19
sg17
I85
ssg15
g14
sg17
I134
ssg15
g19
sg17
I112
ssg15
g16
sg17
I90
ssg15
g14
sg17
I130
ssg15
g16
sg17
I89
ssg15
g18
sg17
I84
ssg15
g14
sg17
I108
ssg15
g14
sg17
I133
ssg15
g16
sg17
I87
ssg15
g18
sg17
I83
sa(dp176
g2
(dp177
g2
(dp178
g2
(dp179
g2
(dp180
g2
(dp181
g2
(dp182
g2
(dp183
g2
(dp184
g2
(dp185
g2
(dp186
g2
(dp187
g2
g16
sg15
g18
sg17
I73
ssg15
g14
sg17
I161
ssg15
g14
sg17
I165
ssg15
g18
sg17
I102
ssg15
g18
sg17
I20
ssg15
g16
sg17
I113
ssg15
g18
sg17
I10
ssg15
g19
sg17
I43
ssg15
g19
sg17
I29
ssg15
g16
sg17
I118
ssg15
g18
sg17
I107
ssg15
g14
sg17
I190
sa(dp188
g2
(dp189
g2
(dp190
g2
(dp191
g2
(dp192
g2
(dp193
g2
(dp194
g2
(dp195
g2
(dp196
g2
(dp197
g2
(dp198
g2
(dp199
g2
g18
sg15
g16
sg17
I24
ssg15
g14
sg17
I148
ssg15
g14
sg17
I106
ssg15
g14
sg17
I100
ssg15
g19
sg17
I1
ssg15
g14
sg17
I94
ssg15
g16
sg17
I46
ssg15
g19
sg17
I110
ssg15
g18
sg17
I82
ssg15
g18
sg17
I172
ssg15
g19
sg17
I85
ssg15
g18
sg17
I145
sa(dp200
g2
(dp201
g2
(dp202
g2
(dp203
g2
(dp204
g2
(dp205
g2
(dp206
g2
(dp207
g2
(dp208
g2
(dp209
g2
(dp210
g2
(dp211
g2
g18
sg15
g19
sg17
I23
ssg15
g16
sg17
I119
ssg15
g16
sg17
I114
ssg15
g14
sg17
I132
ssg15
g14
sg17
I142
ssg15
g19
sg17
I70
ssg15
g19
sg17
I110
ssg15
g18
sg17
I108
ssg15
g19
sg17
I88
ssg15
g16
sg17
I112
ssg15
g18
sg17
I107
ssg15
g16
sg17
I86
sa(dp212
g2
(dp213
g2
(dp214
g2
(dp215
g2
(dp216
g2
(dp217
g2
(dp218
g2
(dp219
g2
(dp220
g2
(dp221
g2
(dp222
g2
(dp223
g2
g19
sg15
g18
sg17
I130
ssg15
g14
sg17
I16
ssg15
g14
sg17
I187
ssg15
g19
sg17
I62
ssg15
g18
sg17
I19
ssg15
g14
sg17
I104
ssg15
g18
sg17
I80
ssg15
g18
sg17
I79
ssg15
g16
sg17
I64
ssg15
g16
sg17
I139
ssg15
g14
sg17
I82
ssg15
g19
sg17
I10
sa(dp224
g2
(dp225
g2
(dp226
g2
(dp227
g2
(dp228
g2
(dp229
g2
(dp230
g2
(dp231
g2
(dp232
g2
(dp233
g2
(dp234
g2
(dp235
g2
g14
sg15
g19
sg17
I178
ssg15
g18
sg17
I151
ssg15
g18
sg17
I142
ssg15
g14
sg17
I136
ssg15
g16
sg17
I66
ssg15
g18
sg17
I25
ssg15
g16
sg17
I110
ssg15
g19
sg17
I84
ssg15
g16
sg17
I135
ssg15
g14
sg17
I155
ssg15
g18
sg17
I118
ssg15
g16
sg17
I109
sa(dp236
g2
(dp237
g2
(dp238
g2
(dp239
g2
(dp240
g2
(dp241
g2
(dp242
g2
(dp243
g2
(dp244
g2
(dp245
g2
(dp246
g2
(dp247
g2
g18
sg15
g14
sg17
I181
ssg15
g16
sg17
I89
ssg15
g14
sg17
I49
ssg15
g18
sg17
I29
ssg15
g19
sg17
I79
ssg15
g18
sg17
I87
ssg15
g19
sg17
I60
ssg15
g18
sg17
I109
ssg15
g14
sg17
I110
ssg15
g18
sg17
I55
ssg15
g19
sg17
I86
ssg15
g16
sg17
I85
sa(dp248
g2
(dp249
g2
(dp250
g2
(dp251
g2
(dp252
g2
(dp253
g2
(dp254
g2
(dp255
g2
(dp256
g2
(dp257
g2
(dp258
g2
(dp259
g2
g19
sg15
g18
sg17
I108
ssg15
g18
sg17
I128
ssg15
g14
sg17
I30
ssg15
g16
sg17
I72
ssg15
g18
sg17
I6
ssg15
g14
sg17
I155
ssg15
g19
sg17
I9
ssg15
g18
sg17
I7
ssg15
g18
sg17
I111
ssg15
g16
sg17
I135
ssg15
g19
sg17
I22
ssg15
g18
sg17
I127
sa(dp260
g2
(dp261
g2
(dp262
g2
(dp263
g2
(dp264
g2
(dp265
g2
(dp266
g2
(dp267
g2
(dp268
g2
(dp269
g2
(dp270
g2
(dp271
g2
g18
sg15
g19
sg17
I24
ssg15
g18
sg17
I145
ssg15
g18
sg17
I160
ssg15
g19
sg17
I144
ssg15
g16
sg17
I167
ssg15
g18
sg17
I109
ssg15
g18
sg17
I148
ssg15
g19
sg17
I68
ssg15
g18
sg17
I151
ssg15
g18
sg17
I76
ssg15
g14
sg17
I131
ssg15
g14
sg17
I181
sa(dp272
g2
(dp273
g2
(dp274
g2
(dp275
g2
(dp276
g2
(dp277
g2
(dp278
g2
(dp279
g2
(dp280
g2
(dp281
g2
(dp282
g2
(dp283
g2
g18
sg15
g16
sg17
I119
ssg15
g19
sg17
I97
ssg15
g14
sg17
I166
ssg15
g19
sg17
I139
ssg15
g19
sg17
I88
ssg15
g18
sg17
I140
ssg15
g14
sg17
I142
ssg15
g19
sg17
I69
ssg15
g16
sg17
I113
ssg15
g18
sg17
I28
ssg15
g18
sg17
I25
ssg15
g16
sg17
I112
sa(dp284
g2
(dp285
g2
(dp286
g2
(dp287
g2
(dp288
g2
(dp289
g2
(dp290
g2
(dp291
g2
(dp292
g2
(dp293
g2
(dp294
g2
(dp295
g2
g16
sg15
g19
sg17
I14
ssg15
g19
sg17
I57
ssg15
g18
sg17
I124
ssg15
g18
sg17
I118
ssg15
g18
sg17
I82
ssg15
g18
sg17
I185
ssg15
g14
sg17
I160
ssg15
g19
sg17
I61
ssg15
g16
sg17
I70
ssg15
g16
sg17
I106
ssg15
g18
sg17
I127
ssg15
g18
sg17
I108
sa(dp296
g2
(dp297
g2
(dp298
g2
(dp299
g2
(dp300
g2
(dp301
g2
(dp302
g2
(dp303
g2
(dp304
g2
(dp305
g2
(dp306
g2
(dp307
g2
g18
sg15
g16
sg17
I89
ssg15
g16
sg17
I107
ssg15
g18
sg17
I103
ssg15
g16
sg17
I163
ssg15
g16
sg17
I113
ssg15
g14
sg17
I159
ssg15
g14
sg17
I162
ssg15
g19
sg17
I60
ssg15
g14
sg17
I135
ssg15
g19
sg17
I114
ssg15
g14
sg17
I136
ssg15
g19
sg17
I109
sa(dp308
g2
(dp309
g2
(dp310
g2
(dp311
g2
(dp312
g2
(dp313
g2
(dp314
g2
(dp315
g2
(dp316
g2
(dp317
g2
(dp318
g2
(dp319
g2
g19
sg15
g18
sg17
I174
ssg15
g16
sg17
I187
ssg15
g14
sg17
I183
ssg15
g14
sg17
I180
ssg15
g18
sg17
I26
ssg15
g14
sg17
I182
ssg15
g19
sg17
I84
ssg15
g14
sg17
I134
ssg15
g19
sg17
I142
ssg15
g16
sg17
I163
ssg15
g16
sg17
I157
ssg15
g14
sg17
I166
sa(dp320
g2
(dp321
g2
(dp322
g2
(dp323
g2
(dp324
g2
(dp325
g2
(dp326
g2
(dp327
g2
(dp328
g2
(dp329
g2
(dp330
g2
(dp331
g2
g19
sg15
g14
sg17
I155
ssg15
g16
sg17
I163
ssg15
g14
sg17
I103
ssg15
g19
sg17
I84
ssg15
g18
sg17
I151
ssg15
g14
sg17
I181
ssg15
g18
sg17
I154
ssg15
g18
sg17
I145
ssg15
g16
sg17
I136
ssg15
g18
sg17
I108
ssg15
g14
sg17
I106
ssg15
g19
sg17
I85
sa(dp332
g2
(dp333
g2
(dp334
g2
(dp335
g2
(dp336
g2
(dp337
g2
(dp338
g2
(dp339
g2
(dp340
g2
(dp341
g2
(dp342
g2
(dp343
g2
g14
sg15
g16
sg17
I73
ssg15
g18
sg17
I75
ssg15
g19
sg17
I14
ssg15
g14
sg17
I82
ssg15
g18
sg17
I160
ssg15
g18
sg17
I133
ssg15
g14
sg17
I158
ssg15
g19
sg17
I61
ssg15
g19
sg17
I56
ssg15
g18
sg17
I81
ssg15
g16
sg17
I136
ssg15
g14
sg17
I142
sa(dp344
g2
(dp345
g2
(dp346
g2
(dp347
g2
(dp348
g2
(dp349
g2
(dp350
g2
(dp351
g2
(dp352
g2
(dp353
g2
(dp354
g2
(dp355
g2
g18
sg15
g19
sg17
I62
ssg15
g16
sg17
I95
ssg15
g16
sg17
I71
ssg15
g19
sg17
I136
ssg15
g19
sg17
I109
ssg15
g19
sg17
I160
ssg15
g18
sg17
I178
ssg15
g16
sg17
I175
ssg15
g14
sg17
I106
ssg15
g14
sg17
I176
ssg15
g16
sg17
I22
ssg15
g19
sg17
I85
sa(dp356
g2
(dp357
g2
(dp358
g2
(dp359
g2
(dp360
g2
(dp361
g2
(dp362
g2
(dp363
g2
(dp364
g2
(dp365
g2
(dp366
g2
(dp367
g2
g19
sg15
g18
sg17
I1
ssg15
g14
sg17
I143
ssg15
g18
sg17
I121
ssg15
g14
sg17
I192
ssg15
g19
sg17
I24
ssg15
g14
sg17
I175
ssg15
g16
sg17
I22
ssg15
g14
sg17
I124
ssg15
g19
sg17
I178
ssg15
g18
sg17
I103
ssg15
g18
sg17
I107
ssg15
g14
sg17
I145
sa(dp368
g2
(dp369
g2
(dp370
g2
(dp371
g2
(dp372
g2
(dp373
g2
(dp374
g2
(dp375
g2
(dp376
g2
(dp377
g2
(dp378
g2
(dp379
g2
g18
sg15
g16
sg17
I162
ssg15
g14
sg17
I182
ssg15
g14
sg17
I187
ssg15
g19
sg17
I28
ssg15
g18
sg17
I104
ssg15
g18
sg17
I76
ssg15
g18
sg17
I83
ssg15
g14
sg17
I134
ssg15
g18
sg17
I73
ssg15
g19
sg17
I109
ssg15
g18
sg17
I103
ssg15
g16
sg17
I87
sa(dp380
g2
(dp381
g2
(dp382
g2
(dp383
g2
(dp384
g2
(dp385
g2
(dp386
g2
(dp387
g2
(dp388
g2
(dp389
g2
(dp390
g2
(dp391
g2
g18
sg15
g19
sg17
I33
ssg15
g19
sg17
I166
ssg15
g16
sg17
I13
ssg15
g16
sg17
I7
ssg15
g19
sg17
I1
ssg15
g14
sg17
I190
ssg15
g18
sg17
I136
ssg15
g16
sg17
I40
ssg15
g18
sg17
I139
ssg15
g19
sg17
I46
ssg15
g16
sg17
I70
ssg15
g18
sg17
I175
sa(dp392
g2
(dp393
g2
(dp394
g2
(dp395
g2
(dp396
g2
(dp397
g2
(dp398
g2
(dp399
g2
(dp400
g2
(dp401
g2
(dp402
g2
(dp403
g2
g18
sg15
g19
sg17
I180
ssg15
g14
sg17
I162
ssg15
g14
sg17
I138
ssg15
g19
sg17
I127
ssg15
g18
sg17
I105
ssg15
g14
sg17
I83
ssg15
g14
sg17
I136
ssg15
g18
sg17
I103
ssg15
g16
sg17
I58
ssg15
g18
sg17
I108
ssg15
g19
sg17
I85
ssg15
g16
sg17
I61
sa(dp404
g2
(dp405
g2
(dp406
g2
(dp407
g2
(dp408
g2
(dp409
g2
(dp410
g2
(dp411
g2
(dp412
g2
(dp413
g2
(dp414
g2
(dp415
g2
g16
sg15
g18
sg17
I76
ssg15
g18
sg17
I7
ssg15
g14
sg17
I143
ssg15
g19
sg17
I61
ssg15
g18
sg17
I106
ssg15
g14
sg17
I142
ssg15
g16
sg17
I16
ssg15
g19
sg17
I73
ssg15
g19
sg17
I58
ssg15
g16
sg17
I37
ssg15
g18
sg17
I1
ssg15
g16
sg17
I110
sa(dp416
g2
(dp417
g2
(dp418
g2
(dp419
g2
(dp420
g2
(dp421
g2
(dp422
g2
(dp423
g2
(dp424
g2
(dp425
g2
(dp426
g2
(dp427
g2
g19
sg15
g18
sg17
I103
ssg15
g14
sg17
I141
ssg15
g16
sg17
I109
ssg15
g18
sg17
I187
ssg15
g19
sg17
I44
ssg15
g19
sg17
I66
ssg15
g18
sg17
I100
ssg15
g19
sg17
I64
ssg15
g18
sg17
I65
ssg15
g19
sg17
I41
ssg15
g18
sg17
I148
ssg15
g14
sg17
I108
sa(dp428
g2
(dp429
g2
(dp430
g2
(dp431
g2
(dp432
g2
(dp433
g2
(dp434
g2
(dp435
g2
(dp436
g2
(dp437
g2
(dp438
g2
(dp439
g2
g14
sg15
g16
sg17
I41
ssg15
g16
sg17
I109
ssg15
g19
sg17
I89
ssg15
g19
sg17
I42
ssg15
g16
sg17
I112
ssg15
g18
sg17
I85
ssg15
g19
sg17
I39
ssg15
g19
sg17
I40
ssg15
g18
sg17
I108
ssg15
g14
sg17
I82
ssg15
g19
sg17
I111
ssg15
g14
sg17
I83
sa(dp440
g2
(dp441
g2
(dp442
g2
(dp443
g2
(dp444
g2
(dp445
g2
(dp446
g2
(dp447
g2
(dp448
g2
(dp449
g2
(dp450
g2
(dp451
g2
g18
sg15
g19
sg17
I56
ssg15
g19
sg17
I62
ssg15
g18
sg17
I55
ssg15
g14
sg17
I85
ssg15
g16
sg17
I134
ssg15
g18
sg17
I109
ssg15
g14
sg17
I131
ssg15
g14
sg17
I107
ssg15
g16
sg17
I106
ssg15
g18
sg17
I108
ssg15
g14
sg17
I136
ssg15
g16
sg17
I87
sa(dp452
g2
(dp453
g2
(dp454
g2
(dp455
g2
(dp456
g2
(dp457
g2
(dp458
g2
(dp459
g2
(dp460
g2
(dp461
g2
(dp462
g2
(dp463
g2
g19
sg15
g14
sg17
I85
ssg15
g18
sg17
I135
ssg15
g18
sg17
I81
ssg15
g16
sg17
I103
ssg15
g16
sg17
I93
ssg15
g16
sg17
I136
ssg15
g19
sg17
I63
ssg15
g14
sg17
I86
ssg15
g18
sg17
I128
ssg15
g19
sg17
I65
ssg15
g14
sg17
I109
ssg15
g14
sg17
I130
sa(dp464
g2
(dp465
g2
(dp466
g2
(dp467
g2
(dp468
g2
(dp469
g2
(dp470
g2
(dp471
g2
(dp472
g2
(dp473
g2
(dp474
g2
(dp475
g2
g19
sg15
g14
sg17
I158
ssg15
g14
sg17
I135
ssg15
g16
sg17
I93
ssg15
g18
sg17
I81
ssg15
g18
sg17
I110
ssg15
g18
sg17
I101
ssg15
g18
sg17
I103
ssg15
g14
sg17
I132
ssg15
g19
sg17
I63
ssg15
g18
sg17
I82
ssg15
g16
sg17
I86
ssg15
g16
sg17
I85
sa(dp476
g2
(dp477
g2
(dp478
g2
(dp479
g2
(dp480
g2
(dp481
g2
(dp482
g2
(dp483
g2
(dp484
g2
(dp485
g2
(dp486
g2
(dp487
g2
g18
sg15
g16
sg17
I47
ssg15
g14
sg17
I92
ssg15
g16
sg17
I160
ssg15
g19
sg17
I163
ssg15
g16
sg17
I67
ssg15
g16
sg17
I22
ssg15
g18
sg17
I172
ssg15
g19
sg17
I64
ssg15
g16
sg17
I157
ssg15
g14
sg17
I152
ssg15
g16
sg17
I181
ssg15
g14
sg17
I151
sa(dp488
g2
(dp489
g2
(dp490
g2
(dp491
g2
(dp492
g2
(dp493
g2
(dp494
g2
(dp495
g2
(dp496
g2
(dp497
g2
(dp498
g2
(dp499
g2
g18
sg15
g14
sg17
I104
ssg15
g19
sg17
I5
ssg15
g16
sg17
I114
ssg15
g14
sg17
I150
ssg15
g18
sg17
I147
ssg15
g14
sg17
I183
ssg15
g18
sg17
I13
ssg15
g16
sg17
I23
ssg15
g14
sg17
I156
ssg15
g14
sg17
I108
ssg15
g18
sg17
I100
ssg15
g18
sg17
I83
sa(dp500
g2
(dp501
g2
(dp502
g2
(dp503
g2
(dp504
g2
(dp505
g2
(dp506
g2
(dp507
g2
(dp508
g2
(dp509
g2
(dp510
g2
(dp511
g2
g14
sg15
g19
sg17
I89
ssg15
g19
sg17
I65
ssg15
g19
sg17
I66
ssg15
g18
sg17
I81
ssg15
g14
sg17
I111
ssg15
g18
sg17
I82
ssg15
g18
sg17
I80
ssg15
g18
sg17
I83
ssg15
g14
sg17
I106
ssg15
g16
sg17
I87
ssg15
g18
sg17
I104
ssg15
g19
sg17
I85
sa(dp512
g2
(dp513
g2
(dp514
g2
(dp515
g2
(dp516
g2
(dp517
g2
(dp518
g2
(dp519
g2
(dp520
g2
(dp521
g2
(dp522
g2
(dp523
g2
g16
sg15
g14
sg17
I176
ssg15
g14
sg17
I177
ssg15
g19
sg17
I81
ssg15
g18
sg17
I51
ssg15
g16
sg17
I143
ssg15
g19
sg17
I59
ssg15
g14
sg17
I108
ssg15
g19
sg17
I63
ssg15
g14
sg17
I132
ssg15
g19
sg17
I62
ssg15
g16
sg17
I166
ssg15
g18
sg17
I73
sa(dp524
g2
(dp525
g2
(dp526
g2
(dp527
g2
(dp528
g2
(dp529
g2
(dp530
g2
(dp531
g2
(dp532
g2
(dp533
g2
(dp534
g2
(dp535
g2
g18
sg15
g16
sg17
I4
ssg15
g14
sg17
I178
ssg15
g18
sg17
I30
ssg15
g16
sg17
I25
ssg15
g14
sg17
I28
ssg15
g19
sg17
I8
ssg15
g18
sg17
I187
ssg15
g14
sg17
I34
ssg15
g19
sg17
I32
ssg15
g18
sg17
I79
ssg15
g16
sg17
I76
ssg15
g19
sg17
I82
sa(dp536
g2
(dp537
g2
(dp538
g2
(dp539
g2
(dp540
g2
(dp541
g2
(dp542
g2
(dp543
g2
(dp544
g2
(dp545
g2
(dp546
g2
(dp547
g2
g16
sg15
g14
sg17
I152
ssg15
g14
sg17
I170
ssg15
g19
sg17
I33
ssg15
g18
sg17
I81
ssg15
g18
sg17
I148
ssg15
g18
sg17
I178
ssg15
g16
sg17
I160
ssg15
g16
sg17
I139
ssg15
g14
sg17
I151
ssg15
g19
sg17
I82
ssg15
g18
sg17
I175
ssg15
g14
sg17
I181
sa(dp548
g2
(dp549
g2
(dp550
g2
(dp551
g2
(dp552
g2
(dp553
g2
(dp554
g2
(dp555
g2
(dp556
g2
(dp557
g2
(dp558
g2
(dp559
g2
g14
sg15
g19
sg17
I149
ssg15
g19
sg17
I33
ssg15
g16
sg17
I191
ssg15
g18
sg17
I75
ssg15
g18
sg17
I123
ssg15
g18
sg17
I102
ssg15
g14
sg17
I188
ssg15
g19
sg17
I35
ssg15
g16
sg17
I124
ssg15
g18
sg17
I104
ssg15
g18
sg17
I63
ssg15
g19
sg17
I64
sa(dp560
g2
(dp561
g2
(dp562
g2
(dp563
g2
(dp564
g2
(dp565
g2
(dp566
g2
(dp567
g2
(dp568
g2
(dp569
g2
(dp570
g2
(dp571
g2
g19
sg15
g16
sg17
I106
ssg15
g18
sg17
I74
ssg15
g14
sg17
I126
ssg15
g19
sg17
I103
ssg15
g18
sg17
I78
ssg15
g14
sg17
I85
ssg15
g18
sg17
I84
ssg15
g14
sg17
I108
ssg15
g18
sg17
I73
ssg15
g16
sg17
I111
ssg15
g18
sg17
I175
ssg15
g18
sg17
I109
sa(dp572
g2
(dp573
g2
(dp574
g2
(dp575
g2
(dp576
g2
(dp577
g2
(dp578
g2
(dp579
g2
(dp580
g2
(dp581
g2
(dp582
g2
(dp583
g2
g16
sg15
g14
sg17
I148
ssg15
g18
sg17
I108
ssg15
g19
sg17
I40
ssg15
g19
sg17
I59
ssg15
g18
sg17
I49
ssg15
g18
sg17
I107
ssg15
g19
sg17
I64
ssg15
g16
sg17
I111
ssg15
g19
sg17
I62
ssg15
g14
sg17
I175
ssg15
g18
sg17
I151
ssg15
g14
sg17
I169
sa(dp584
g2
(dp585
g2
(dp586
g2
(dp587
g2
(dp588
g2
(dp589
g2
(dp590
g2
(dp591
g2
(dp592
g2
(dp593
g2
(dp594
g2
(dp595
g2
g19
sg15
g18
sg17
I73
ssg15
g18
sg17
I179
ssg15
g19
sg17
I92
ssg15
g18
sg17
I67
ssg15
g18
sg17
I127
ssg15
g14
sg17
I145
ssg15
g19
sg17
I23
ssg15
g14
sg17
I182
ssg15
g14
sg17
I149
ssg15
g19
sg17
I46
ssg15
g14
sg17
I148
ssg15
g18
sg17
I106
sa(dp596
g2
(dp597
g2
(dp598
g2
(dp599
g2
(dp600
g2
(dp601
g2
(dp602
g2
(dp603
g2
(dp604
g2
(dp605
g2
(dp606
g2
(dp607
g2
g19
sg15
g16
sg17
I80
ssg15
g16
sg17
I104
ssg15
g14
sg17
I106
ssg15
g18
sg17
I50
ssg15
g14
sg17
I74
ssg15
g14
sg17
I123
ssg15
g18
sg17
I99
ssg15
g19
sg17
I49
ssg15
g18
sg17
I103
ssg15
g16
sg17
I94
ssg15
g16
sg17
I142
ssg15
g18
sg17
I82
sa(dp608
g2
(dp609
g2
(dp610
g2
(dp611
g2
(dp612
g2
(dp613
g2
(dp614
g2
(dp615
g2
(dp616
g2
(dp617
g2
(dp618
g2
(dp619
g2
g16
sg15
g14
sg17
I160
ssg15
g14
sg17
I114
ssg15
g18
sg17
I83
ssg15
g19
sg17
I59
ssg15
g19
sg17
I52
ssg15
g18
sg17
I78
ssg15
g19
sg17
I58
ssg15
g16
sg17
I76
ssg15
g18
sg17
I148
ssg15
g19
sg17
I63
ssg15
g14
sg17
I127
ssg15
g18
sg17
I82
sa(dp620
g2
(dp621
g2
(dp622
g2
(dp623
g2
(dp624
g2
(dp625
g2
(dp626
g2
(dp627
g2
(dp628
g2
(dp629
g2
(dp630
g2
(dp631
g2
g18
sg15
g14
sg17
I7
ssg15
g14
sg17
I161
ssg15
g18
sg17
I34
ssg15
g19
sg17
I32
ssg15
g19
sg17
I8
ssg15
g19
sg17
I166
ssg15
g18
sg17
I154
ssg15
g19
sg17
I10
ssg15
g14
sg17
I164
ssg15
g16
sg17
I110
ssg15
g19
sg17
I31
ssg15
g18
sg17
I49
sa(dp632
g2
(dp633
g2
(dp634
g2
(dp635
g2
(dp636
g2
(dp637
g2
(dp638
g2
(dp639
g2
(dp640
g2
(dp641
g2
(dp642
g2
(dp643
g2
g16
sg15
g18
sg17
I7
ssg15
g14
sg17
I56
ssg15
g19
sg17
I38
ssg15
g16
sg17
I175
ssg15
g19
sg17
I65
ssg15
g19
sg17
I114
ssg15
g19
sg17
I43
ssg15
g16
sg17
I138
ssg15
g14
sg17
I132
ssg15
g19
sg17
I4
ssg15
g16
sg17
I112
ssg15
g19
sg17
I55
sa(dp644
g2
(dp645
g2
(dp646
g2
(dp647
g2
(dp648
g2
(dp649
g2
(dp650
g2
(dp651
g2
(dp652
g2
(dp653
g2
(dp654
g2
(dp655
g2
g19
sg15
g18
sg17
I125
ssg15
g19
sg17
I181
ssg15
g16
sg17
I161
ssg15
g19
sg17
I163
ssg15
g16
sg17
I119
ssg15
g16
sg17
I116
ssg15
g14
sg17
I160
ssg15
g18
sg17
I103
ssg15
g19
sg17
I115
ssg15
g16
sg17
I85
ssg15
g14
sg17
I178
ssg15
g19
sg17
I13
sa(dp656
g2
(dp657
g2
(dp658
g2
(dp659
g2
(dp660
g2
(dp661
g2
(dp662
g2
(dp663
g2
(dp664
g2
(dp665
g2
(dp666
g2
(dp667
g2
g18
sg15
g19
sg17
I9
ssg15
g19
sg17
I84
ssg15
g16
sg17
I22
ssg15
g18
sg17
I131
ssg15
g14
sg17
I125
ssg15
g18
sg17
I123
ssg15
g19
sg17
I100
ssg15
g14
sg17
I179
ssg15
g19
sg17
I101
ssg15
g14
sg17
I132
ssg15
g16
sg17
I127
ssg15
g18
sg17
I121
sa(dp668
g2
(dp669
g2
(dp670
g2
(dp671
g2
(dp672
g2
(dp673
g2
(dp674
g2
(dp675
g2
(dp676
g2
(dp677
g2
(dp678
g2
(dp679
g2
g18
sg15
g19
sg17
I33
ssg15
g16
sg17
I83
ssg15
g14
sg17
I162
ssg15
g18
sg17
I170
ssg15
g16
sg17
I113
ssg15
g19
sg17
I62
ssg15
g14
sg17
I164
ssg15
g16
sg17
I172
ssg15
g18
sg17
I176
ssg15
g14
sg17
I92
ssg15
g16
sg17
I67
ssg15
g14
sg17
I175
sa(dp680
g2
(dp681
g2
(dp682
g2
(dp683
g2
(dp684
g2
(dp685
g2
(dp686
g2
(dp687
g2
(dp688
g2
(dp689
g2
(dp690
g2
(dp691
g2
g19
sg15
g16
sg17
I88
ssg15
g14
sg17
I130
ssg15
g18
sg17
I125
ssg15
g19
sg17
I60
ssg15
g19
sg17
I59
ssg15
g18
sg17
I79
ssg15
g19
sg17
I133
ssg15
g18
sg17
I104
ssg15
g14
sg17
I131
ssg15
g19
sg17
I62
ssg15
g18
sg17
I82
ssg15
g14
sg17
I109
sa(dp692
g2
(dp693
g2
(dp694
g2
(dp695
g2
(dp696
g2
(dp697
g2
(dp698
g2
(dp699
g2
(dp700
g2
(dp701
g2
(dp702
g2
(dp703
g2
g16
sg15
g19
sg17
I5
ssg15
g16
sg17
I184
ssg15
g18
sg17
I78
ssg15
g16
sg17
I106
ssg15
g14
sg17
I155
ssg15
g19
sg17
I59
ssg15
g18
sg17
I83
ssg15
g14
sg17
I82
ssg15
g18
sg17
I190
ssg15
g14
sg17
I178
ssg15
g14
sg17
I118
ssg15
g16
sg17
I86
sa(dp704
g2
(dp705
g2
(dp706
g2
(dp707
g2
(dp708
g2
(dp709
g2
(dp710
g2
(dp711
g2
(dp712
g2
(dp713
g2
(dp714
g2
(dp715
g2
g19
sg15
g18
sg17
I5
ssg15
g16
sg17
I185
ssg15
g16
sg17
I141
ssg15
g14
sg17
I183
ssg15
g18
sg17
I57
ssg15
g19
sg17
I160
ssg15
g18
sg17
I84
ssg15
g16
sg17
I65
ssg15
g19
sg17
I104
ssg15
g18
sg17
I108
ssg15
g14
sg17
I184
ssg15
g19
sg17
I7
sa(dp716
g2
(dp717
g2
(dp718
g2
(dp719
g2
(dp720
g2
(dp721
g2
(dp722
g2
(dp723
g2
(dp724
g2
(dp725
g2
(dp726
g2
(dp727
g2
g18
sg15
g19
sg17
I179
ssg15
g14
sg17
I186
ssg15
g16
sg17
I181
ssg15
g16
sg17
I114
ssg15
g18
sg17
I136
ssg15
g18
sg17
I2
ssg15
g18
sg17
I135
ssg15
g16
sg17
I138
ssg15
g18
sg17
I134
ssg15
g14
sg17
I185
ssg15
g14
sg17
I106
ssg15
g16
sg17
I160
sa(dp728
g2
(dp729
g2
(dp730
g2
(dp731
g2
(dp732
g2
(dp733
g2
(dp734
g2
(dp735
g2
(dp736
g2
(dp737
g2
(dp738
g2
(dp739
g2
g16
sg15
g19
sg17
I134
ssg15
g16
sg17
I187
ssg15
g18
sg17
I176
ssg15
g19
sg17
I60
ssg15
g19
sg17
I163
ssg15
g16
sg17
I63
ssg15
g16
sg17
I116
ssg15
g14
sg17
I118
ssg15
g16
sg17
I57
ssg15
g18
sg17
I33
ssg15
g14
sg17
I191
ssg15
g19
sg17
I59
sa(dp740
g2
(dp741
g2
(dp742
g2
(dp743
g2
(dp744
g2
(dp745
g2
(dp746
g2
(dp747
g2
(dp748
g2
(dp749
g2
(dp750
g2
(dp751
g2
g16
sg15
g14
sg17
I152
ssg15
g18
sg17
I104
ssg15
g18
sg17
I80
ssg15
g14
sg17
I106
ssg15
g16
sg17
I65
ssg15
g18
sg17
I56
ssg15
g14
sg17
I128
ssg15
g18
sg17
I39
ssg15
g18
sg17
I59
ssg15
g19
sg17
I63
ssg15
g16
sg17
I85
ssg15
g19
sg17
I86
sa(dp752
g2
(dp753
g2
(dp754
g2
(dp755
g2
(dp756
g2
(dp757
g2
(dp758
g2
(dp759
g2
(dp760
g2
(dp761
g2
(dp762
g2
(dp763
g2
g19
sg15
g16
sg17
I161
ssg15
g14
sg17
I173
ssg15
g14
sg17
I78
ssg15
g18
sg17
I182
ssg15
g19
sg17
I145
ssg15
g18
sg17
I148
ssg15
g18
sg17
I53
ssg15
g19
sg17
I52
ssg15
g18
sg17
I73
ssg15
g19
sg17
I83
ssg15
g16
sg17
I142
ssg15
g14
sg17
I175
sa(dp764
g2
(dp765
g2
(dp766
g2
(dp767
g2
(dp768
g2
(dp769
g2
(dp770
g2
(dp771
g2
(dp772
g2
(dp773
g2
(dp774
g2
(dp775
g2
g19
sg15
g18
sg17
I129
ssg15
g14
sg17
I162
ssg15
g16
sg17
I139
ssg15
g14
sg17
I117
ssg15
g16
sg17
I140
ssg15
g14
sg17
I157
ssg15
g14
sg17
I151
ssg15
g18
sg17
I131
ssg15
g16
sg17
I86
ssg15
g14
sg17
I111
ssg15
g14
sg17
I110
ssg15
g19
sg17
I85
sa(dp776
g2
(dp777
g2
(dp778
g2
(dp779
g2
(dp780
g2
(dp781
g2
(dp782
g2
(dp783
g2
(dp784
g2
(dp785
g2
(dp786
g2
(dp787
g2
g14
sg15
g19
sg17
I28
ssg15
g16
sg17
I129
ssg15
g18
sg17
I77
ssg15
g14
sg17
I135
ssg15
g19
sg17
I53
ssg15
g14
sg17
I86
ssg15
g18
sg17
I111
ssg15
g16
sg17
I84
ssg15
g18
sg17
I105
ssg15
g19
sg17
I87
ssg15
g18
sg17
I76
ssg15
g14
sg17
I109
sa(dp788
g2
(dp789
g2
(dp790
g2
(dp791
g2
(dp792
g2
(dp793
g2
(dp794
g2
(dp795
g2
(dp796
g2
(dp797
g2
(dp798
g2
(dp799
g2
g16
sg15
g14
sg17
I79
ssg15
g19
sg17
I131
ssg15
g18
sg17
I59
ssg15
g18
sg17
I81
ssg15
g18
sg17
I100
ssg15
g19
sg17
I106
ssg15
g19
sg17
I80
ssg15
g18
sg17
I124
ssg15
g16
sg17
I107
ssg15
g19
sg17
I35
ssg15
g16
sg17
I87
ssg15
g19
sg17
I84
sa(dp800
g2
(dp801
g2
(dp802
g2
(dp803
g2
(dp804
g2
(dp805
g2
(dp806
g2
(dp807
g2
(dp808
g2
(dp809
g2
(dp810
g2
(dp811
g2
g14
sg15
g18
sg17
I150
ssg15
g19
sg17
I183
ssg15
g18
sg17
I173
ssg15
g19
sg17
I82
ssg15
g16
sg17
I95
ssg15
g19
sg17
I137
ssg15
g16
sg17
I130
ssg15
g14
sg17
I181
ssg15
g18
sg17
I49
ssg15
g14
sg17
I109
ssg15
g16
sg17
I187
ssg15
g19
sg17
I83
sa(dp812
g2
(dp813
g2
(dp814
g2
(dp815
g2
(dp816
g2
(dp817
g2
(dp818
g2
(dp819
g2
(dp820
g2
(dp821
g2
(dp822
g2
(dp823
g2
g16
sg15
g14
sg17
I114
ssg15
g14
sg17
I126
ssg15
g14
sg17
I55
ssg15
g19
sg17
I29
ssg15
g18
sg17
I53
ssg15
g14
sg17
I135
ssg15
g18
sg17
I90
ssg15
g18
sg17
I121
ssg15
g16
sg17
I79
ssg15
g18
sg17
I56
ssg15
g14
sg17
I110
ssg15
g16
sg17
I88
sa(dp824
g2
(dp825
g2
(dp826
g2
(dp827
g2
(dp828
g2
(dp829
g2
(dp830
g2
(dp831
g2
(dp832
g2
(dp833
g2
(dp834
g2
(dp835
g2
g18
sg15
g14
sg17
I164
ssg15
g19
sg17
I9
ssg15
g16
sg17
I113
ssg15
g14
sg17
I40
ssg15
g19
sg17
I54
ssg15
g14
sg17
I29
ssg15
g19
sg17
I50
ssg15
g18
sg17
I105
ssg15
g18
sg17
I98
ssg15
g14
sg17
I138
ssg15
g16
sg17
I58
ssg15
g18
sg17
I76
sa(dp836
g2
(dp837
g2
(dp838
g2
(dp839
g2
(dp840
g2
(dp841
g2
(dp842
g2
(dp843
g2
(dp844
g2
(dp845
g2
(dp846
g2
(dp847
g2
g18
sg15
g14
sg17
I153
ssg15
g19
sg17
I190
ssg15
g19
sg17
I78
ssg15
g18
sg17
I147
ssg15
g14
sg17
I166
ssg15
g19
sg17
I60
ssg15
g19
sg17
I82
ssg15
g18
sg17
I105
ssg15
g18
sg17
I80
ssg15
g19
sg17
I87
ssg15
g18
sg17
I107
ssg15
g16
sg17
I115
sa(dp848
g2
(dp849
g2
(dp850
g2
(dp851
g2
(dp852
g2
(dp853
g2
(dp854
g2
(dp855
g2
(dp856
g2
(dp857
g2
(dp858
g2
(dp859
g2
g19
sg15
g16
sg17
I45
ssg15
g14
sg17
I148
ssg15
g19
sg17
I90
ssg15
g18
sg17
I101
ssg15
g14
sg17
I142
ssg15
g18
sg17
I51
ssg15
g19
sg17
I18
ssg15
g19
sg17
I166
ssg15
g14
sg17
I121
ssg15
g16
sg17
I40
ssg15
g18
sg17
I76
ssg15
g14
sg17
I135
sa(dp860
g2
(dp861
g2
(dp862
g2
(dp863
g2
(dp864
g2
(dp865
g2
(dp866
g2
(dp867
g2
(dp868
g2
(dp869
g2
(dp870
g2
(dp871
g2
g19
sg15
g16
sg17
I136
ssg15
g14
sg17
I155
ssg15
g14
sg17
I142
ssg15
g18
sg17
I166
ssg15
g14
sg17
I179
ssg15
g18
sg17
I178
ssg15
g18
sg17
I108
ssg15
g16
sg17
I160
ssg15
g19
sg17
I67
ssg15
g18
sg17
I106
ssg15
g16
sg17
I190
ssg15
g18
sg17
I175
sa(dp872
g2
(dp873
g2
(dp874
g2
(dp875
g2
(dp876
g2
(dp877
g2
(dp878
g2
(dp879
g2
(dp880
g2
(dp881
g2
(dp882
g2
(dp883
g2
g16
sg15
g14
sg17
I180
ssg15
g19
sg17
I81
ssg15
g19
sg17
I39
ssg15
g19
sg17
I12
ssg15
g16
sg17
I79
ssg15
g14
sg17
I122
ssg15
g18
sg17
I100
ssg15
g14
sg17
I132
ssg15
g19
sg17
I60
ssg15
g14
sg17
I125
ssg15
g18
sg17
I80
ssg15
g16
sg17
I110
sa(dp884
g2
(dp885
g2
(dp886
g2
(dp887
g2
(dp888
g2
(dp889
g2
(dp890
g2
(dp891
g2
(dp892
g2
(dp893
g2
(dp894
g2
(dp895
g2
g16
sg15
g19
sg17
I60
ssg15
g18
sg17
I76
ssg15
g14
sg17
I174
ssg15
g16
sg17
I88
ssg15
g16
sg17
I186
ssg15
g18
sg17
I98
ssg15
g16
sg17
I61
ssg15
g18
sg17
I54
ssg15
g14
sg17
I73
ssg15
g14
sg17
I169
ssg15
g16
sg17
I84
ssg15
g18
sg17
I52
sa(dp896
g2
(dp897
g2
(dp898
g2
(dp899
g2
(dp900
g2
(dp901
g2
(dp902
g2
(dp903
g2
(dp904
g2
(dp905
g2
(dp906
g2
(dp907
g2
g18
sg15
g16
sg17
I120
ssg15
g19
sg17
I36
ssg15
g16
sg17
I79
ssg15
g14
sg17
I121
ssg15
g18
sg17
I81
ssg15
g14
sg17
I192
ssg15
g19
sg17
I13
ssg15
g19
sg17
I56
ssg15
g18
sg17
I73
ssg15
g14
sg17
I49
ssg15
g16
sg17
I169
ssg15
g18
sg17
I142
sa(dp908
g2
(dp909
g2
(dp910
g2
(dp911
g2
(dp912
g2
(dp913
g2
(dp914
g2
(dp915
g2
(dp916
g2
(dp917
g2
(dp918
g2
(dp919
g2
g19
sg15
g14
sg17
I141
ssg15
g14
sg17
I146
ssg15
g14
sg17
I26
ssg15
g18
sg17
I3
ssg15
g16
sg17
I184
ssg15
g19
sg17
I34
ssg15
g16
sg17
I144
ssg15
g18
sg17
I145
ssg15
g16
sg17
I20
ssg15
g14
sg17
I182
ssg15
g18
sg17
I73
ssg15
g14
sg17
I181
sa(dp920
g2
(dp921
g2
(dp922
g2
(dp923
g2
(dp924
g2
(dp925
g2
(dp926
g2
(dp927
g2
(dp928
g2
(dp929
g2
(dp930
g2
(dp931
g2
g18
sg15
g16
sg17
I119
ssg15
g14
sg17
I188
ssg15
g19
sg17
I95
ssg15
g14
sg17
I173
ssg15
g18
sg17
I98
ssg15
g19
sg17
I29
ssg15
g18
sg17
I166
ssg15
g16
sg17
I118
ssg15
g16
sg17
I167
ssg15
g16
sg17
I142
ssg15
g16
sg17
I164
ssg15
g19
sg17
I97
sa(dp932
g2
(dp933
g2
(dp934
g2
(dp935
g2
(dp936
g2
(dp937
g2
(dp938
g2
(dp939
g2
(dp940
g2
(dp941
g2
(dp942
g2
(dp943
g2
g18
sg15
g14
sg17
I105
ssg15
g14
sg17
I112
ssg15
g19
sg17
I56
ssg15
g18
sg17
I104
ssg15
g16
sg17
I87
ssg15
g16
sg17
I111
ssg15
g18
sg17
I62
ssg15
g19
sg17
I86
ssg15
g18
sg17
I103
ssg15
g19
sg17
I60
ssg15
g14
sg17
I110
ssg15
g19
sg17
I58
sa(dp944
g2
(dp945
g2
(dp946
g2
(dp947
g2
(dp948
g2
(dp949
g2
(dp950
g2
(dp951
g2
(dp952
g2
(dp953
g2
(dp954
g2
(dp955
g2
g18
sg15
g16
sg17
I66
ssg15
g14
sg17
I137
ssg15
g16
sg17
I142
ssg15
g18
sg17
I62
ssg15
g18
sg17
I87
ssg15
g19
sg17
I103
ssg15
g18
sg17
I83
ssg15
g19
sg17
I63
ssg15
g14
sg17
I111
ssg15
g18
sg17
I104
ssg15
g16
sg17
I110
ssg15
g19
sg17
I85
sa(dp956
g2
(dp957
g2
(dp958
g2
(dp959
g2
(dp960
g2
(dp961
g2
(dp962
g2
(dp963
g2
(dp964
g2
(dp965
g2
(dp966
g2
(dp967
g2
g19
sg15
g18
sg17
I146
ssg15
g16
sg17
I85
ssg15
g19
sg17
I25
ssg15
g14
sg17
I191
ssg15
g18
sg17
I149
ssg15
g18
sg17
I10
ssg15
g14
sg17
I125
ssg15
g19
sg17
I103
ssg15
g16
sg17
I151
ssg15
g18
sg17
I152
ssg15
g16
sg17
I166
ssg15
g18
sg17
I1
sa(dp968
g2
(dp969
g2
(dp970
g2
(dp971
g2
(dp972
g2
(dp973
g2
(dp974
g2
(dp975
g2
(dp976
g2
(dp977
g2
(dp978
g2
(dp979
g2
g19
sg15
g14
sg17
I122
ssg15
g16
sg17
I63
ssg15
g16
sg17
I102
ssg15
g16
sg17
I60
ssg15
g19
sg17
I83
ssg15
g16
sg17
I99
ssg15
g18
sg17
I49
ssg15
g16
sg17
I134
ssg15
g14
sg17
I105
ssg15
g16
sg17
I59
ssg15
g18
sg17
I52
ssg15
g18
sg17
I84
sa(dp980
g2
(dp981
g2
(dp982
g2
(dp983
g2
(dp984
g2
(dp985
g2
(dp986
g2
(dp987
g2
(dp988
g2
(dp989
g2
(dp990
g2
(dp991
g2
g19
sg15
g14
sg17
I121
ssg15
g18
sg17
I101
ssg15
g14
sg17
I134
ssg15
g18
sg17
I145
ssg15
g18
sg17
I124
ssg15
g14
sg17
I105
ssg15
g18
sg17
I80
ssg15
g14
sg17
I157
ssg15
g19
sg17
I84
ssg15
g18
sg17
I103
ssg15
g19
sg17
I83
ssg15
g14
sg17
I136
sa(dp992
g2
(dp993
g2
(dp994
g2
(dp995
g2
(dp996
g2
(dp997
g2
(dp998
g2
(dp999
g2
(dp1000
g2
(dp1001
g2
(dp1002
g2
(dp1003
g2
g18
sg15
g16
sg17
I79
ssg15
g16
sg17
I100
ssg15
g19
sg17
I14
ssg15
g14
sg17
I124
ssg15
g14
sg17
I109
ssg15
g19
sg17
I32
ssg15
g19
sg17
I101
ssg15
g18
sg17
I108
ssg15
g19
sg17
I46
ssg15
g18
sg17
I87
ssg15
g14
sg17
I110
ssg15
g16
sg17
I91
sa(dp1004
g2
(dp1005
g2
(dp1006
g2
(dp1007
g2
(dp1008
g2
(dp1009
g2
(dp1010
g2
(dp1011
g2
(dp1012
g2
(dp1013
g2
(dp1014
g2
(dp1015
g2
g18
sg15
g14
sg17
I157
ssg15
g16
sg17
I162
ssg15
g14
sg17
I137
ssg15
g19
sg17
I158
ssg15
g19
sg17
I71
ssg15
g14
sg17
I79
ssg15
g18
sg17
I80
ssg15
g18
sg17
I160
ssg15
g16
sg17
I161
ssg15
g18
sg17
I106
ssg15
g16
sg17
I139
ssg15
g14
sg17
I166
sa(dp1016
g2
(dp1017
g2
(dp1018
g2
(dp1019
g2
(dp1020
g2
(dp1021
g2
(dp1022
g2
(dp1023
g2
(dp1024
g2
(dp1025
g2
(dp1026
g2
(dp1027
g2
g19
sg15
g14
sg17
I172
ssg15
g18
sg17
I109
ssg15
g18
sg17
I190
ssg15
g16
sg17
I188
ssg15
g18
sg17
I85
ssg15
g19
sg17
I7
ssg15
g16
sg17
I121
ssg15
g19
sg17
I13
ssg15
g18
sg17
I106
ssg15
g18
sg17
I76
ssg15
g16
sg17
I142
ssg15
g18
sg17
I103
sa(dp1028
g2
(dp1029
g2
(dp1030
g2
(dp1031
g2
(dp1032
g2
(dp1033
g2
(dp1034
g2
(dp1035
g2
(dp1036
g2
(dp1037
g2
(dp1038
g2
(dp1039
g2
g19
sg15
g16
sg17
I38
ssg15
g18
sg17
I56
ssg15
g14
sg17
I115
ssg15
g14
sg17
I88
ssg15
g18
sg17
I28
ssg15
g18
sg17
I79
ssg15
g16
sg17
I157
ssg15
g14
sg17
I187
ssg15
g16
sg17
I40
ssg15
g16
sg17
I139
ssg15
g19
sg17
I34
ssg15
g14
sg17
I190
sa(dp1040
g2
(dp1041
g2
(dp1042
g2
(dp1043
g2
(dp1044
g2
(dp1045
g2
(dp1046
g2
(dp1047
g2
(dp1048
g2
(dp1049
g2
(dp1050
g2
(dp1051
g2
g18
sg15
g19
sg17
I19
ssg15
g16
sg17
I140
ssg15
g14
sg17
I113
ssg15
g19
sg17
I71
ssg15
g18
sg17
I145
ssg15
g19
sg17
I104
ssg15
g19
sg17
I160
ssg15
g16
sg17
I139
ssg15
g18
sg17
I31
ssg15
g16
sg17
I46
ssg15
g14
sg17
I130
ssg15
g16
sg17
I88
sa(dp1052
g2
(dp1053
g2
(dp1054
g2
(dp1055
g2
(dp1056
g2
(dp1057
g2
(dp1058
g2
(dp1059
g2
(dp1060
g2
(dp1061
g2
(dp1062
g2
(dp1063
g2
g16
sg15
g19
sg17
I53
ssg15
g19
sg17
I122
ssg15
g14
sg17
I74
ssg15
g14
sg17
I126
ssg15
g14
sg17
I102
ssg15
g18
sg17
I100
ssg15
g19
sg17
I81
ssg15
g18
sg17
I75
ssg15
g18
sg17
I84
ssg15
g16
sg17
I97
ssg15
g18
sg17
I104
ssg15
g18
sg17
I79
sa(dp1064
g2
(dp1065
g2
(dp1066
g2
(dp1067
g2
(dp1068
g2
(dp1069
g2
(dp1070
g2
(dp1071
g2
(dp1072
g2
(dp1073
g2
(dp1074
g2
(dp1075
g2
g18
sg15
g19
sg17
I52
ssg15
g16
sg17
I143
ssg15
g19
sg17
I87
ssg15
g18
sg17
I53
ssg15
g14
sg17
I107
ssg15
g18
sg17
I30
ssg15
g16
sg17
I111
ssg15
g18
sg17
I133
ssg15
g19
sg17
I69
ssg15
g16
sg17
I168
ssg15
g18
sg17
I5
ssg15
g19
sg17
I31
sa(dp1076
g2
(dp1077
g2
(dp1078
g2
(dp1079
g2
(dp1080
g2
(dp1081
g2
(dp1082
g2
(dp1083
g2
(dp1084
g2
(dp1085
g2
(dp1086
g2
(dp1087
g2
g19
sg15
g18
sg17
I50
ssg15
g16
sg17
I117
ssg15
g14
sg17
I173
ssg15
g16
sg17
I71
ssg15
g16
sg17
I21
ssg15
g19
sg17
I11
ssg15
g14
sg17
I172
ssg15
g18
sg17
I54
ssg15
g19
sg17
I60
ssg15
g18
sg17
I55
ssg15
g14
sg17
I110
ssg15
g14
sg17
I160
sa(dp1088
g2
(dp1089
g2
(dp1090
g2
(dp1091
g2
(dp1092
g2
(dp1093
g2
(dp1094
g2
(dp1095
g2
(dp1096
g2
(dp1097
g2
(dp1098
g2
(dp1099
g2
g18
sg15
g14
sg17
I107
ssg15
g18
sg17
I9
ssg15
g16
sg17
I36
ssg15
g18
sg17
I84
ssg15
g16
sg17
I48
ssg15
g19
sg17
I17
ssg15
g19
sg17
I62
ssg15
g14
sg17
I91
ssg15
g14
sg17
I40
ssg15
g18
sg17
I178
ssg15
g19
sg17
I19
ssg15
g18
sg17
I148
sa(dp1100
g2
(dp1101
g2
(dp1102
g2
(dp1103
g2
(dp1104
g2
(dp1105
g2
(dp1106
g2
(dp1107
g2
(dp1108
g2
(dp1109
g2
(dp1110
g2
(dp1111
g2
g18
sg15
g16
sg17
I45
ssg15
g18
sg17
I15
ssg15
g19
sg17
I73
ssg15
g14
sg17
I171
ssg15
g19
sg17
I18
ssg15
g19
sg17
I7
ssg15
g14
sg17
I126
ssg15
g18
sg17
I28
ssg15
g19
sg17
I52
ssg15
g14
sg17
I175
ssg15
g16
sg17
I118
ssg15
g16
sg17
I88
sa(dp1112
g2
(dp1113
g2
(dp1114
g2
(dp1115
g2
(dp1116
g2
(dp1117
g2
(dp1118
g2
(dp1119
g2
(dp1120
g2
(dp1121
g2
(dp1122
g2
(dp1123
g2
g18
sg15
g16
sg17
I80
ssg15
g14
sg17
I115
ssg15
g18
sg17
I65
ssg15
g14
sg17
I110
ssg15
g19
sg17
I42
ssg15
g18
sg17
I54
ssg15
g14
sg17
I116
ssg15
g19
sg17
I38
ssg15
g14
sg17
I136
ssg15
g19
sg17
I62
ssg15
g19
sg17
I81
ssg15
g18
sg17
I103
sa(dp1124
g2
(dp1125
g2
(dp1126
g2
(dp1127
g2
(dp1128
g2
(dp1129
g2
(dp1130
g2
(dp1131
g2
(dp1132
g2
(dp1133
g2
(dp1134
g2
(dp1135
g2
g18
sg15
g19
sg17
I25
ssg15
g16
sg17
I138
ssg15
g14
sg17
I154
ssg15
g18
sg17
I102
ssg15
g16
sg17
I78
ssg15
g14
sg17
I118
ssg15
g18
sg17
I129
ssg15
g16
sg17
I67
ssg15
g19
sg17
I46
ssg15
g18
sg17
I107
ssg15
g14
sg17
I163
ssg15
g19
sg17
I76
sa(dp1136
g2
(dp1137
g2
(dp1138
g2
(dp1139
g2
(dp1140
g2
(dp1141
g2
(dp1142
g2
(dp1143
g2
(dp1144
g2
(dp1145
g2
(dp1146
g2
(dp1147
g2
g18
sg15
g19
sg17
I191
ssg15
g18
sg17
I35
ssg15
g19
sg17
I163
ssg15
g19
sg17
I164
ssg15
g19
sg17
I20
ssg15
g14
sg17
I155
ssg15
g18
sg17
I179
ssg15
g19
sg17
I92
ssg15
g18
sg17
I169
ssg15
g19
sg17
I7
ssg15
g18
sg17
I106
ssg15
g14
sg17
I187
sa(dp1148
g2
(dp1149
g2
(dp1150
g2
(dp1151
g2
(dp1152
g2
(dp1153
g2
(dp1154
g2
(dp1155
g2
(dp1156
g2
(dp1157
g2
(dp1158
g2
(dp1159
g2
g14
sg15
g19
sg17
I67
ssg15
g14
sg17
I187
ssg15
g18
sg17
I71
ssg15
g19
sg17
I120
ssg15
g16
sg17
I68
ssg15
g16
sg17
I168
ssg15
g19
sg17
I35
ssg15
g18
sg17
I83
ssg15
g18
sg17
I25
ssg15
g14
sg17
I108
ssg15
g16
sg17
I142
ssg15
g19
sg17
I84
sa(dp1160
g2
(dp1161
g2
(dp1162
g2
(dp1163
g2
(dp1164
g2
(dp1165
g2
(dp1166
g2
(dp1167
g2
(dp1168
g2
(dp1169
g2
(dp1170
g2
(dp1171
g2
g14
sg15
g19
sg17
I38
ssg15
g16
sg17
I126
ssg15
g19
sg17
I23
ssg15
g16
sg17
I168
ssg15
g18
sg17
I123
ssg15
g14
sg17
I183
ssg15
g18
sg17
I107
ssg15
g18
sg17
I136
ssg15
g14
sg17
I159
ssg15
g14
sg17
I111
ssg15
g14
sg17
I157
ssg15
g14
sg17
I130
sa(dp1172
g2
(dp1173
g2
(dp1174
g2
(dp1175
g2
(dp1176
g2
(dp1177
g2
(dp1178
g2
(dp1179
g2
(dp1180
g2
(dp1181
g2
(dp1182
g2
(dp1183
g2
g14
sg15
g19
sg17
I43
ssg15
g16
sg17
I140
ssg15
g19
sg17
I32
ssg15
g18
sg17
I76
ssg15
g18
sg17
I176
ssg15
g14
sg17
I162
ssg15
g16
sg17
I191
ssg15
g18
sg17
I83
ssg15
g14
sg17
I137
ssg15
g18
sg17
I97
ssg15
g19
sg17
I64
ssg15
g18
sg17
I133
sa(dp1184
g2
(dp1185
g2
(dp1186
g2
(dp1187
g2
(dp1188
g2
(dp1189
g2
(dp1190
g2
(dp1191
g2
(dp1192
g2
(dp1193
g2
(dp1194
g2
(dp1195
g2
g16
sg15
g18
sg17
I84
ssg15
g14
sg17
I62
ssg15
g16
sg17
I138
ssg15
g14
sg17
I83
ssg15
g18
sg17
I41
ssg15
g18
sg17
I121
ssg15
g18
sg17
I148
ssg15
g16
sg17
I66
ssg15
g14
sg17
I151
ssg15
g19
sg17
I39
ssg15
g14
sg17
I107
ssg15
g18
sg17
I82
sa(dp1196
g2
(dp1197
g2
(dp1198
g2
(dp1199
g2
(dp1200
g2
(dp1201
g2
(dp1202
g2
(dp1203
g2
(dp1204
g2
(dp1205
g2
(dp1206
g2
(dp1207
g2
g14
sg15
g19
sg17
I43
ssg15
g14
sg17
I137
ssg15
g18
sg17
I112
ssg15
g14
sg17
I116
ssg15
g18
sg17
I163
ssg15
g18
sg17
I67
ssg15
g19
sg17
I64
ssg15
g18
sg17
I130
ssg15
g18
sg17
I145
ssg15
g16
sg17
I88
ssg15
g18
sg17
I94
ssg15
g16
sg17
I91
sa.