(lp0
(dp1
S'lt'
p2
(dp3
g2
(dp4
g2
(dp5
g2
(dp6
g2
(dp7
g2
(dp8
g2
(dp9
g2
(dp10
g2
(dp11
g2
(dp12
g2
(dp13
g2
(dp14
g2
(dp15
g2
(dp16
g2
(dp17
g2
S'0'
p18
sS'gt'
p19
S'180'
p20
sS'idx'
p21
I41
ssg19
S'90'
p22
sg21
I97
ssg19
S'270'
p23
sg21
I85
ssg19
g20
sg21
I10
ssg19
g23
sg21
I128
ssg19
g23
sg21
I108
ssg19
g18
sg21
I16
ssg19
g22
sg21
I188
ssg19
g20
sg21
I190
ssg19
g18
sg21
I1
ssg19
g20
sg21
I110
ssg19
g23
sg21
I169
ssg19
g18
sg21
I35
ssg19
g22
sg21
I119
ssg19
g20
sg21
I178
ssg19
g18
sg21
I109
sa(dp24
g2
(dp25
g2
(dp26
g2
(dp27
g2
(dp28
g2
(dp29
g2
(dp30
g2
(dp31
g2
(dp32
g2
(dp33
g2
(dp34
g2
(dp35
g2
(dp36
g2
(dp37
g2
(dp38
g2
(dp39
g2
g18
sg19
g22
sg21
I110
ssg19
g23
sg21
I0
ssg19
g20
sg21
I124
ssg19
g20
sg21
I135
ssg19
g20
sg21
I192
ssg19
g18
sg21
I4
ssg19
g23
sg21
I170
ssg19
g22
sg21
I64
ssg19
g23
sg21
I149
ssg19
g20
sg21
I172
ssg19
g22
sg21
I43
ssg19
g18
sg21
I34
ssg19
g18
sg21
I16
ssg19
g20
sg21
I107
ssg19
g18
sg21
I32
ssg19
g23
sg21
I55
sa(dp40
g2
(dp41
g2
(dp42
g2
(dp43
g2
(dp44
g2
(dp45
g2
(dp46
g2
(dp47
g2
(dp48
g2
(dp49
g2
(dp50
g2
(dp51
g2
(dp52
g2
(dp53
g2
(dp54
g2
(dp55
g2
g18
sg19
g23
sg21
I34
ssg19
g20
sg21
I155
ssg19
g20
sg21
I71
ssg19
g22
sg21
I150
ssg19
g23
sg21
I94
ssg19
g22
sg21
I161
ssg19
g20
sg21
I64
ssg19
g22
sg21
I97
ssg19
g18
sg21
I12
ssg19
g20
sg21
I153
ssg19
g18
sg21
I29
ssg19
g20
sg21
I134
ssg19
g22
sg21
I143
ssg19
g22
sg21
I142
ssg19
g23
sg21
I0
ssg19
g18
sg21
I79
sa(dp56
g2
(dp57
g2
(dp58
g2
(dp59
g2
(dp60
g2
(dp61
g2
(dp62
g2
(dp63
g2
(dp64
g2
(dp65
g2
(dp66
g2
(dp67
g2
(dp68
g2
(dp69
g2
(dp70
g2
(dp71
g2
g18
sg19
g23
sg21
I64
ssg19
g22
sg21
I34
ssg19
g22
sg21
I94
ssg19
g20
sg21
I174
ssg19
g18
sg21
I12
ssg19
g22
sg21
I127
ssg19
g22
sg21
I73
ssg19
g22
sg21
I141
ssg19
g20
sg21
I132
ssg19
g22
sg21
I92
ssg19
g18
sg21
I57
ssg19
g20
sg21
I91
ssg19
g18
sg21
I61
ssg19
g23
sg21
I0
ssg19
g23
sg21
I56
ssg19
g22
sg21
I142
sa(dp72
g2
(dp73
g2
(dp74
g2
(dp75
g2
(dp76
g2
(dp77
g2
(dp78
g2
(dp79
g2
(dp80
g2
(dp81
g2
(dp82
g2
(dp83
g2
(dp84
g2
(dp85
g2
(dp86
g2
(dp87
g2
g22
sg19
g18
sg21
I157
ssg19
g20
sg21
I126
ssg19
g22
sg21
I106
ssg19
g22
sg21
I85
ssg19
g20
sg21
I103
ssg19
g22
sg21
I47
ssg19
g23
sg21
I0
ssg19
g18
sg21
I44
ssg19
g22
sg21
I163
ssg19
g23
sg21
I10
ssg19
g18
sg21
I67
ssg19
g20
sg21
I161
ssg19
g18
sg21
I88
ssg19
g23
sg21
I140
ssg19
g22
sg21
I112
ssg19
g23
sg21
I82
sa(dp88
g2
(dp89
g2
(dp90
g2
(dp91
g2
(dp92
g2
(dp93
g2
(dp94
g2
(dp95
g2
(dp96
g2
(dp97
g2
(dp98
g2
(dp99
g2
(dp100
g2
(dp101
g2
(dp102
g2
(dp103
g2
g18
sg19
g22
sg21
I99
ssg19
g20
sg21
I111
ssg19
g18
sg21
I84
ssg19
g20
sg21
I162
ssg19
g18
sg21
I45
ssg19
g20
sg21
I20
ssg19
g18
sg21
I158
ssg19
g22
sg21
I100
ssg19
g20
sg21
I190
ssg19
g22
sg21
I69
ssg19
g18
sg21
I27
ssg19
g20
sg21
I113
ssg19
g18
sg21
I67
ssg19
g22
sg21
I46
ssg19
g18
sg21
I5
ssg19
g23
sg21
I0
sa(dp104
g2
(dp105
g2
(dp106
g2
(dp107
g2
(dp108
g2
(dp109
g2
(dp110
g2
(dp111
g2
(dp112
g2
(dp113
g2
(dp114
g2
(dp115
g2
(dp116
g2
(dp117
g2
(dp118
g2
(dp119
g2
g18
sg19
g23
sg21
I131
ssg19
g22
sg21
I177
ssg19
g20
sg21
I158
ssg19
g20
sg21
I186
ssg19
g22
sg21
I92
ssg19
g18
sg21
I11
ssg19
g18
sg21
I65
ssg19
g20
sg21
I176
ssg19
g20
sg21
I154
ssg19
g22
sg21
I31
ssg19
g23
sg21
I0
ssg19
g20
sg21
I1
ssg19
g23
sg21
I76
ssg19
g22
sg21
I70
ssg19
g18
sg21
I4
ssg19
g23
sg21
I169
sa(dp120
g2
(dp121
g2
(dp122
g2
(dp123
g2
(dp124
g2
(dp125
g2
(dp126
g2
(dp127
g2
(dp128
g2
(dp129
g2
(dp130
g2
(dp131
g2
(dp132
g2
(dp133
g2
(dp134
g2
(dp135
g2
g20
sg19
g18
sg21
I56
ssg19
g22
sg21
I96
ssg19
g18
sg21
I76
ssg19
g18
sg21
I19
ssg19
g18
sg21
I2
ssg19
g23
sg21
I29
ssg19
g20
sg21
I165
ssg19
g23
sg21
I51
ssg19
g22
sg21
I69
ssg19
g18
sg21
I39
ssg19
g22
sg21
I90
ssg19
g23
sg21
I80
ssg19
g20
sg21
I181
ssg19
g22
sg21
I62
ssg19
g18
sg21
I52
ssg19
g23
sg21
I100
sa(dp136
g2
(dp137
g2
(dp138
g2
(dp139
g2
(dp140
g2
(dp141
g2
(dp142
g2
(dp143
g2
(dp144
g2
(dp145
g2
(dp146
g2
(dp147
g2
(dp148
g2
(dp149
g2
(dp150
g2
(dp151
g2
g18
sg19
g20
sg21
I191
ssg19
g20
sg21
I139
ssg19
g20
sg21
I184
ssg19
g20
sg21
I168
ssg19
g22
sg21
I181
ssg19
g22
sg21
I117
ssg19
g22
sg21
I91
ssg19
g18
sg21
I35
ssg19
g23
sg21
I0
ssg19
g18
sg21
I24
ssg19
g23
sg21
I103
ssg19
g23
sg21
I106
ssg19
g20
sg21
I180
ssg19
g20
sg21
I179
ssg19
g20
sg21
I109
ssg19
g18
sg21
I108
sa(dp152
g2
(dp153
g2
(dp154
g2
(dp155
g2
(dp156
g2
(dp157
g2
(dp158
g2
(dp159
g2
(dp160
g2
(dp161
g2
(dp162
g2
(dp163
g2
(dp164
g2
(dp165
g2
(dp166
g2
(dp167
g2
g23
sg19
g18
sg21
I3
ssg19
g22
sg21
I87
ssg19
g20
sg21
I104
ssg19
g22
sg21
I93
ssg19
g23
sg21
I75
ssg19
g20
sg21
I129
ssg19
g18
sg21
I15
ssg19
g23
sg21
I57
ssg19
g20
sg21
I192
ssg19
g22
sg21
I151
ssg19
g22
sg21
I120
ssg19
g18
sg21
I26
ssg19
g22
sg21
I190
ssg19
g23
sg21
I169
ssg19
g23
sg21
I116
ssg19
g22
sg21
I88
sa(dp168
g2
(dp169
g2
(dp170
g2
(dp171
g2
(dp172
g2
(dp173
g2
(dp174
g2
(dp175
g2
(dp176
g2
(dp177
g2
(dp178
g2
(dp179
g2
(dp180
g2
(dp181
g2
(dp182
g2
(dp183
g2
g18
sg19
g22
sg21
I72
ssg19
g22
sg21
I66
ssg19
g20
sg21
I123
ssg19
g18
sg21
I3
ssg19
g20
sg21
I49
ssg19
g22
sg21
I65
ssg19
g20
sg21
I176
ssg19
g22
sg21
I92
ssg19
g20
sg21
I155
ssg19
g20
sg21
I67
ssg19
g23
sg21
I0
ssg19
g18
sg21
I28
ssg19
g23
sg21
I101
ssg19
g23
sg21
I100
ssg19
g18
sg21
I43
ssg19
g18
sg21
I59
sa(dp184
g2
(dp185
g2
(dp186
g2
(dp187
g2
(dp188
g2
(dp189
g2
(dp190
g2
(dp191
g2
(dp192
g2
(dp193
g2
(dp194
g2
(dp195
g2
(dp196
g2
(dp197
g2
(dp198
g2
(dp199
g2
g23
sg19
g22
sg21
I72
ssg19
g22
sg21
I93
ssg19
g18
sg21
I2
ssg19
g23
sg21
I51
ssg19
g22
sg21
I91
ssg19
g23
sg21
I147
ssg19
g20
sg21
I82
ssg19
g18
sg21
I60
ssg19
g18
sg21
I109
ssg19
g20
sg21
I156
ssg19
g18
sg21
I103
ssg19
g18
sg21
I133
ssg19
g23
sg21
I105
ssg19
g22
sg21
I127
ssg19
g18
sg21
I87
ssg19
g23
sg21
I107
sa(dp200
g2
(dp201
g2
(dp202
g2
(dp203
g2
(dp204
g2
(dp205
g2
(dp206
g2
(dp207
g2
(dp208
g2
(dp209
g2
(dp210
g2
(dp211
g2
(dp212
g2
(dp213
g2
(dp214
g2
(dp215
g2
g18
sg19
g23
sg21
I137
ssg19
g20
sg21
I72
ssg19
g18
sg21
I33
ssg19
g23
sg21
I53
ssg19
g22
sg21
I65
ssg19
g18
sg21
I24
ssg19
g23
sg21
I101
ssg19
g20
sg21
I178
ssg19
g23
sg21
I85
ssg19
g22
sg21
I113
ssg19
g18
sg21
I115
ssg19
g22
sg21
I106
ssg19
g23
sg21
I125
ssg19
g23
sg21
I80
ssg19
g22
sg21
I91
ssg19
g23
sg21
I129
sa(dp216
g2
(dp217
g2
(dp218
g2
(dp219
g2
(dp220
g2
(dp221
g2
(dp222
g2
(dp223
g2
(dp224
g2
(dp225
g2
(dp226
g2
(dp227
g2
(dp228
g2
(dp229
g2
(dp230
g2
(dp231
g2
g18
sg19
g22
sg21
I69
ssg19
g20
sg21
I16
ssg19
g20
sg21
I180
ssg19
g22
sg21
I94
ssg19
g22
sg21
I85
ssg19
g18
sg21
I13
ssg19
g20
sg21
I101
ssg19
g20
sg21
I138
ssg19
g18
sg21
I14
ssg19
g22
sg21
I63
ssg19
g22
sg21
I66
ssg19
g23
sg21
I0
ssg19
g23
sg21
I106
ssg19
g18
sg21
I57
ssg19
g23
sg21
I121
ssg19
g20
sg21
I110
sa(dp232
g2
(dp233
g2
(dp234
g2
(dp235
g2
(dp236
g2
(dp237
g2
(dp238
g2
(dp239
g2
(dp240
g2
(dp241
g2
(dp242
g2
(dp243
g2
(dp244
g2
(dp245
g2
(dp246
g2
(dp247
g2
g23
sg19
g18
sg21
I16
ssg19
g22
sg21
I70
ssg19
g18
sg21
I67
ssg19
g22
sg21
I45
ssg19
g22
sg21
I112
ssg19
g20
sg21
I183
ssg19
g18
sg21
I33
ssg19
g22
sg21
I66
ssg19
g20
sg21
I126
ssg19
g23
sg21
I81
ssg19
g18
sg21
I63
ssg19
g23
sg21
I73
ssg19
g18
sg21
I86
ssg19
g23
sg21
I101
ssg19
g20
sg21
I148
ssg19
g18
sg21
I85
sa(dp248
g2
(dp249
g2
(dp250
g2
(dp251
g2
(dp252
g2
(dp253
g2
(dp254
g2
(dp255
g2
(dp256
g2
(dp257
g2
(dp258
g2
(dp259
g2
(dp260
g2
(dp261
g2
(dp262
g2
(dp263
g2
g20
sg19
g18
sg21
I27
ssg19
g18
sg21
I145
ssg19
g18
sg21
I42
ssg19
g20
sg21
I173
ssg19
g22
sg21
I71
ssg19
g22
sg21
I114
ssg19
g18
sg21
I4
ssg19
g22
sg21
I140
ssg19
g23
sg21
I0
ssg19
g22
sg21
I43
ssg19
g20
sg21
I153
ssg19
g23
sg21
I151
ssg19
g18
sg21
I55
ssg19
g20
sg21
I152
ssg19
g23
sg21
I124
ssg19
g18
sg21
I44
sa(dp264
g2
(dp265
g2
(dp266
g2
(dp267
g2
(dp268
g2
(dp269
g2
(dp270
g2
(dp271
g2
(dp272
g2
(dp273
g2
(dp274
g2
(dp275
g2
(dp276
g2
(dp277
g2
(dp278
g2
(dp279
g2
g20
sg19
g18
sg21
I5
ssg19
g18
sg21
I47
ssg19
g22
sg21
I108
ssg19
g22
sg21
I81
ssg19
g18
sg21
I42
ssg19
g22
sg21
I113
ssg19
g22
sg21
I76
ssg19
g20
sg21
I144
ssg19
g23
sg21
I0
ssg19
g22
sg21
I118
ssg19
g23
sg21
I115
ssg19
g22
sg21
I20
ssg19
g20
sg21
I84
ssg19
g18
sg21
I62
ssg19
g18
sg21
I59
ssg19
g18
sg21
I16
sa(dp280
g2
(dp281
g2
(dp282
g2
(dp283
g2
(dp284
g2
(dp285
g2
(dp286
g2
(dp287
g2
(dp288
g2
(dp289
g2
(dp290
g2
(dp291
g2
(dp292
g2
(dp293
g2
(dp294
g2
(dp295
g2
g18
sg19
g22
sg21
I117
ssg19
g20
sg21
I159
ssg19
g22
sg21
I122
ssg19
g18
sg21
I18
ssg19
g23
sg21
I0
ssg19
g20
sg21
I176
ssg19
g23
sg21
I27
ssg19
g22
sg21
I114
ssg19
g20
sg21
I157
ssg19
g20
sg21
I106
ssg19
g18
sg21
I13
ssg19
g20
sg21
I166
ssg19
g23
sg21
I53
ssg19
g22
sg21
I120
ssg19
g20
sg21
I139
ssg19
g18
sg21
I38
sa(dp296
g2
(dp297
g2
(dp298
g2
(dp299
g2
(dp300
g2
(dp301
g2
(dp302
g2
(dp303
g2
(dp304
g2
(dp305
g2
(dp306
g2
(dp307
g2
(dp308
g2
(dp309
g2
(dp310
g2
(dp311
g2
g18
sg19
g20
sg21
I79
ssg19
g22
sg21
I19
ssg19
g22
sg21
I178
ssg19
g18
sg21
I23
ssg19
g20
sg21
I192
ssg19
g20
sg21
I166
ssg19
g18
sg21
I73
ssg19
g22
sg21
I120
ssg19
g20
sg21
I134
ssg19
g22
sg21
I131
ssg19
g22
sg21
I141
ssg19
g20
sg21
I174
ssg19
g20
sg21
I128
ssg19
g18
sg21
I61
ssg19
g18
sg21
I77
ssg19
g23
sg21
I0
sa(dp312
g2
(dp313
g2
(dp314
g2
(dp315
g2
(dp316
g2
(dp317
g2
(dp318
g2
(dp319
g2
(dp320
g2
(dp321
g2
(dp322
g2
(dp323
g2
(dp324
g2
(dp325
g2
(dp326
g2
(dp327
g2
g18
sg19
g20
sg21
I114
ssg19
g22
sg21
I158
ssg19
g22
sg21
I119
ssg19
g22
sg21
I56
ssg19
g22
sg21
I72
ssg19
g22
sg21
I169
ssg19
g22
sg21
I133
ssg19
g18
sg21
I39
ssg19
g20
sg21
I156
ssg19
g20
sg21
I141
ssg19
g20
sg21
I151
ssg19
g22
sg21
I120
ssg19
g18
sg21
I35
ssg19
g23
sg21
I0
ssg19
g18
sg21
I13
ssg19
g20
sg21
I108
sa(dp328
g2
(dp329
g2
(dp330
g2
(dp331
g2
(dp332
g2
(dp333
g2
(dp334
g2
(dp335
g2
(dp336
g2
(dp337
g2
(dp338
g2
(dp339
g2
(dp340
g2
(dp341
g2
(dp342
g2
(dp343
g2
g20
sg19
g23
sg21
I70
ssg19
g23
sg21
I107
ssg19
g18
sg21
I84
ssg19
g18
sg21
I71
ssg19
g22
sg21
I178
ssg19
g18
sg21
I53
ssg19
g20
sg21
I110
ssg19
g22
sg21
I41
ssg19
g23
sg21
I173
ssg19
g18
sg21
I37
ssg19
g20
sg21
I157
ssg19
g18
sg21
I87
ssg19
g23
sg21
I176
ssg19
g22
sg21
I158
ssg19
g20
sg21
I188
ssg19
g20
sg21
I164
sa(dp344
g2
(dp345
g2
(dp346
g2
(dp347
g2
(dp348
g2
(dp349
g2
(dp350
g2
(dp351
g2
(dp352
g2
(dp353
g2
(dp354
g2
(dp355
g2
(dp356
g2
(dp357
g2
(dp358
g2
(dp359
g2
g22
sg19
g18
sg21
I4
ssg19
g18
sg21
I33
ssg19
g20
sg21
I156
ssg19
g22
sg21
I161
ssg19
g18
sg21
I19
ssg19
g22
sg21
I141
ssg19
g20
sg21
I153
ssg19
g18
sg21
I3
ssg19
g23
sg21
I0
ssg19
g18
sg21
I91
ssg19
g22
sg21
I70
ssg19
g20
sg21
I139
ssg19
g23
sg21
I125
ssg19
g22
sg21
I64
ssg19
g23
sg21
I56
ssg19
g18
sg21
I60
sa(dp360
g2
(dp361
g2
(dp362
g2
(dp363
g2
(dp364
g2
(dp365
g2
(dp366
g2
(dp367
g2
(dp368
g2
(dp369
g2
(dp370
g2
(dp371
g2
(dp372
g2
(dp373
g2
(dp374
g2
(dp375
g2
g20
sg19
g22
sg21
I155
ssg19
g20
sg21
I159
ssg19
g18
sg21
I87
ssg19
g18
sg21
I32
ssg19
g22
sg21
I20
ssg19
g22
sg21
I24
ssg19
g18
sg21
I12
ssg19
g22
sg21
I142
ssg19
g20
sg21
I127
ssg19
g18
sg21
I51
ssg19
g23
sg21
I0
ssg19
g23
sg21
I169
ssg19
g18
sg21
I95
ssg19
g20
sg21
I103
ssg19
g22
sg21
I115
ssg19
g23
sg21
I121
sa(dp376
g2
(dp377
g2
(dp378
g2
(dp379
g2
(dp380
g2
(dp381
g2
(dp382
g2
(dp383
g2
(dp384
g2
(dp385
g2
(dp386
g2
(dp387
g2
(dp388
g2
(dp389
g2
(dp390
g2
(dp391
g2
g22
sg19
g23
sg21
I12
ssg19
g18
sg21
I175
ssg19
g22
sg21
I103
ssg19
g22
sg21
I154
ssg19
g22
sg21
I62
ssg19
g18
sg21
I26
ssg19
g22
sg21
I98
ssg19
g20
sg21
I16
ssg19
g18
sg21
I55
ssg19
g18
sg21
I34
ssg19
g20
sg21
I156
ssg19
g18
sg21
I9
ssg19
g23
sg21
I0
ssg19
g20
sg21
I181
ssg19
g23
sg21
I109
ssg19
g22
sg21
I112
sa(dp392
g2
(dp393
g2
(dp394
g2
(dp395
g2
(dp396
g2
(dp397
g2
(dp398
g2
(dp399
g2
(dp400
g2
(dp401
g2
(dp402
g2
(dp403
g2
(dp404
g2
(dp405
g2
(dp406
g2
(dp407
g2
g20
sg19
g22
sg21
I20
ssg19
g22
sg21
I69
ssg19
g18
sg21
I6
ssg19
g22
sg21
I45
ssg19
g18
sg21
I84
ssg19
g22
sg21
I143
ssg19
g20
sg21
I132
ssg19
g22
sg21
I161
ssg19
g20
sg21
I175
ssg19
g22
sg21
I34
ssg19
g22
sg21
I98
ssg19
g18
sg21
I36
ssg19
g20
sg21
I188
ssg19
g20
sg21
I107
ssg19
g18
sg21
I13
ssg19
g23
sg21
I0
sa(dp408
g2
(dp409
g2
(dp410
g2
(dp411
g2
(dp412
g2
(dp413
g2
(dp414
g2
(dp415
g2
(dp416
g2
(dp417
g2
(dp418
g2
(dp419
g2
(dp420
g2
(dp421
g2
(dp422
g2
(dp423
g2
g18
sg19
g23
sg21
I56
ssg19
g23
sg21
I87
ssg19
g23
sg21
I133
ssg19
g22
sg21
I142
ssg19
g22
sg21
I45
ssg19
g20
sg21
I156
ssg19
g18
sg21
I30
ssg19
g20
sg21
I53
ssg19
g20
sg21
I145
ssg19
g22
sg21
I167
ssg19
g18
sg21
I65
ssg19
g20
sg21
I185
ssg19
g22
sg21
I59
ssg19
g18
sg21
I29
ssg19
g23
sg21
I0
ssg19
g23
sg21
I110
sa(dp424
g2
(dp425
g2
(dp426
g2
(dp427
g2
(dp428
g2
(dp429
g2
(dp430
g2
(dp431
g2
(dp432
g2
(dp433
g2
(dp434
g2
(dp435
g2
(dp436
g2
(dp437
g2
(dp438
g2
(dp439
g2
g20
sg19
g22
sg21
I88
ssg19
g18
sg21
I31
ssg19
g22
sg21
I69
ssg19
g18
sg21
I87
ssg19
g18
sg21
I58
ssg19
g18
sg21
I21
ssg19
g22
sg21
I190
ssg19
g22
sg21
I181
ssg19
g20
sg21
I171
ssg19
g22
sg21
I67
ssg19
g22
sg21
I66
ssg19
g20
sg21
I124
ssg19
g18
sg21
I30
ssg19
g23
sg21
I0
ssg19
g23
sg21
I76
ssg19
g23
sg21
I80
sa(dp440
g2
(dp441
g2
(dp442
g2
(dp443
g2
(dp444
g2
(dp445
g2
(dp446
g2
(dp447
g2
(dp448
g2
(dp449
g2
(dp450
g2
(dp451
g2
(dp452
g2
(dp453
g2
(dp454
g2
(dp455
g2
g18
sg19
g23
sg21
I0
ssg19
g18
sg21
I15
ssg19
g20
sg21
I80
ssg19
g20
sg21
I69
ssg19
g22
sg21
I120
ssg19
g18
sg21
I29
ssg19
g18
sg21
I43
ssg19
g20
sg21
I83
ssg19
g22
sg21
I167
ssg19
g20
sg21
I176
ssg19
g18
sg21
I20
ssg19
g22
sg21
I116
ssg19
g20
sg21
I136
ssg19
g23
sg21
I78
ssg19
g23
sg21
I77
ssg19
g23
sg21
I130
sa(dp456
g2
(dp457
g2
(dp458
g2
(dp459
g2
(dp460
g2
(dp461
g2
(dp462
g2
(dp463
g2
(dp464
g2
(dp465
g2
(dp466
g2
(dp467
g2
(dp468
g2
(dp469
g2
(dp470
g2
(dp471
g2
g23
sg19
g23
sg21
I47
ssg19
g22
sg21
I72
ssg19
g18
sg21
I11
ssg19
g18
sg21
I85
ssg19
g22
sg21
I49
ssg19
g22
sg21
I60
ssg19
g20
sg21
I186
ssg19
g18
sg21
I35
ssg19
g22
sg21
I130
ssg19
g23
sg21
I101
ssg19
g18
sg21
I16
ssg19
g23
sg21
I131
ssg19
g23
sg21
I106
ssg19
g20
sg21
I89
ssg19
g22
sg21
I92
ssg19
g23
sg21
I88
sa(dp472
g2
(dp473
g2
(dp474
g2
(dp475
g2
(dp476
g2
(dp477
g2
(dp478
g2
(dp479
g2
(dp480
g2
(dp481
g2
(dp482
g2
(dp483
g2
(dp484
g2
(dp485
g2
(dp486
g2
(dp487
g2
g18
sg19
g23
sg21
I101
ssg19
g23
sg21
I102
ssg19
g22
sg21
I93
ssg19
g23
sg21
I178
ssg19
g20
sg21
I179
ssg19
g23
sg21
I104
ssg19
g23
sg21
I74
ssg19
g20
sg21
I156
ssg19
g20
sg21
I133
ssg19
g23
sg21
I2
ssg19
g18
sg21
I58
ssg19
g22
sg21
I17
ssg19
g23
sg21
I19
ssg19
g18
sg21
I7
ssg19
g22
sg21
I106
ssg19
g23
sg21
I109
sa(dp488
g2
(dp489
g2
(dp490
g2
(dp491
g2
(dp492
g2
(dp493
g2
(dp494
g2
(dp495
g2
(dp496
g2
(dp497
g2
(dp498
g2
(dp499
g2
(dp500
g2
(dp501
g2
(dp502
g2
(dp503
g2
g20
sg19
g18
sg21
I30
ssg19
g23
sg21
I101
ssg19
g20
sg21
I131
ssg19
g22
sg21
I117
ssg19
g20
sg21
I137
ssg19
g23
sg21
I105
ssg19
g22
sg21
I121
ssg19
g20
sg21
I108
ssg19
g18
sg21
I56
ssg19
g22
sg21
I89
ssg19
g23
sg21
I103
ssg19
g22
sg21
I85
ssg19
g23
sg21
I84
ssg19
g18
sg21
I82
ssg19
g20
sg21
I106
ssg19
g18
sg21
I25
sa(dp504
g2
(dp505
g2
(dp506
g2
(dp507
g2
(dp508
g2
(dp509
g2
(dp510
g2
(dp511
g2
(dp512
g2
(dp513
g2
(dp514
g2
(dp515
g2
(dp516
g2
(dp517
g2
(dp518
g2
(dp519
g2
g18
sg19
g23
sg21
I78
ssg19
g18
sg21
I93
ssg19
g20
sg21
I165
ssg19
g18
sg21
I56
ssg19
g22
sg21
I96
ssg19
g18
sg21
I140
ssg19
g22
sg21
I70
ssg19
g18
sg21
I14
ssg19
g20
sg21
I156
ssg19
g20
sg21
I149
ssg19
g23
sg21
I77
ssg19
g22
sg21
I114
ssg19
g18
sg21
I61
ssg19
g23
sg21
I105
ssg19
g18
sg21
I83
ssg19
g20
sg21
I130
sa(dp520
g2
(dp521
g2
(dp522
g2
(dp523
g2
(dp524
g2
(dp525
g2
(dp526
g2
(dp527
g2
(dp528
g2
(dp529
g2
(dp530
g2
(dp531
g2
(dp532
g2
(dp533
g2
(dp534
g2
(dp535
g2
g20
sg19
g18
sg21
I14
ssg19
g20
sg21
I150
ssg19
g22
sg21
I92
ssg19
g22
sg21
I94
ssg19
g20
sg21
I129
ssg19
g22
sg21
I91
ssg19
g22
sg21
I124
ssg19
g18
sg21
I56
ssg19
g18
sg21
I81
ssg19
g22
sg21
I77
ssg19
g18
sg21
I97
ssg19
g18
sg21
I30
ssg19
g22
sg21
I64
ssg19
g22
sg21
I79
ssg19
g23
sg21
I0
ssg19
g23
sg21
I55
sa(dp536
g2
(dp537
g2
(dp538
g2
(dp539
g2
(dp540
g2
(dp541
g2
(dp542
g2
(dp543
g2
(dp544
g2
(dp545
g2
(dp546
g2
(dp547
g2
(dp548
g2
(dp549
g2
(dp550
g2
(dp551
g2
g18
sg19
g22
sg21
I91
ssg19
g23
sg21
I77
ssg19
g18
sg21
I59
ssg19
g20
sg21
I55
ssg19
g20
sg21
I134
ssg19
g22
sg21
I10
ssg19
g18
sg21
I139
ssg19
g23
sg21
I64
ssg19
g18
sg21
I38
ssg19
g22
sg21
I161
ssg19
g23
sg21
I73
ssg19
g22
sg21
I13
ssg19
g23
sg21
I178
ssg19
g18
sg21
I2
ssg19
g20
sg21
I110
ssg19
g20
sg21
I167
sa(dp552
g2
(dp553
g2
(dp554
g2
(dp555
g2
(dp556
g2
(dp557
g2
(dp558
g2
(dp559
g2
(dp560
g2
(dp561
g2
(dp562
g2
(dp563
g2
(dp564
g2
(dp565
g2
(dp566
g2
(dp567
g2
g18
sg19
g20
sg21
I189
ssg19
g23
sg21
I30
ssg19
g18
sg21
I41
ssg19
g18
sg21
I45
ssg19
g22
sg21
I167
ssg19
g20
sg21
I113
ssg19
g23
sg21
I98
ssg19
g22
sg21
I190
ssg19
g22
sg21
I185
ssg19
g20
sg21
I108
ssg19
g20
sg21
I130
ssg19
g18
sg21
I40
ssg19
g22
sg21
I86
ssg19
g20
sg21
I179
ssg19
g23
sg21
I154
ssg19
g23
sg21
I52
sa(dp568
g2
(dp569
g2
(dp570
g2
(dp571
g2
(dp572
g2
(dp573
g2
(dp574
g2
(dp575
g2
(dp576
g2
(dp577
g2
(dp578
g2
(dp579
g2
(dp580
g2
(dp581
g2
(dp582
g2
(dp583
g2
g22
sg19
g18
sg21
I94
ssg19
g18
sg21
I42
ssg19
g20
sg21
I171
ssg19
g22
sg21
I66
ssg19
g18
sg21
I60
ssg19
g20
sg21
I150
ssg19
g23
sg21
I0
ssg19
g20
sg21
I98
ssg19
g22
sg21
I170
ssg19
g22
sg21
I137
ssg19
g20
sg21
I145
ssg19
g22
sg21
I65
ssg19
g18
sg21
I47
ssg19
g18
sg21
I167
ssg19
g18
sg21
I83
ssg19
g20
sg21
I115
sa(dp584
g2
(dp585
g2
(dp586
g2
(dp587
g2
(dp588
g2
(dp589
g2
(dp590
g2
(dp591
g2
(dp592
g2
(dp593
g2
(dp594
g2
(dp595
g2
(dp596
g2
(dp597
g2
(dp598
g2
(dp599
g2
g23
sg19
g18
sg21
I71
ssg19
g20
sg21
I25
ssg19
g20
sg21
I165
ssg19
g22
sg21
I162
ssg19
g22
sg21
I96
ssg19
g20
sg21
I180
ssg19
g18
sg21
I87
ssg19
g18
sg21
I39
ssg19
g22
sg21
I47
ssg19
g22
sg21
I113
ssg19
g20
sg21
I179
ssg19
g18
sg21
I11
ssg19
g20
sg21
I82
ssg19
g20
sg21
I94
ssg19
g18
sg21
I76
ssg19
g23
sg21
I100
sa(dp600
g2
(dp601
g2
(dp602
g2
(dp603
g2
(dp604
g2
(dp605
g2
(dp606
g2
(dp607
g2
(dp608
g2
(dp609
g2
(dp610
g2
(dp611
g2
(dp612
g2
(dp613
g2
(dp614
g2
(dp615
g2
g22
sg19
g20
sg21
I137
ssg19
g23
sg21
I149
ssg19
g23
sg21
I79
ssg19
g18
sg21
I35
ssg19
g20
sg21
I155
ssg19
g18
sg21
I71
ssg19
g22
sg21
I91
ssg19
g23
sg21
I103
ssg19
g22
sg21
I184
ssg19
g20
sg21
I119
ssg19
g23
sg21
I82
ssg19
g18
sg21
I85
ssg19
g23
sg21
I187
ssg19
g23
sg21
I172
ssg19
g20
sg21
I121
ssg19
g18
sg21
I178
sa(dp616
g2
(dp617
g2
(dp618
g2
(dp619
g2
(dp620
g2
(dp621
g2
(dp622
g2
(dp623
g2
(dp624
g2
(dp625
g2
(dp626
g2
(dp627
g2
(dp628
g2
(dp629
g2
(dp630
g2
(dp631
g2
g20
sg19
g23
sg21
I0
ssg19
g23
sg21
I37
ssg19
g18
sg21
I14
ssg19
g18
sg21
I82
ssg19
g23
sg21
I172
ssg19
g20
sg21
I112
ssg19
g23
sg21
I74
ssg19
g22
sg21
I119
ssg19
g22
sg21
I184
ssg19
g18
sg21
I187
ssg19
g20
sg21
I169
ssg19
g22
sg21
I94
ssg19
g23
sg21
I73
ssg19
g20
sg21
I157
ssg19
g22
sg21
I91
ssg19
g18
sg21
I61
sa(dp632
g2
(dp633
g2
(dp634
g2
(dp635
g2
(dp636
g2
(dp637
g2
(dp638
g2
(dp639
g2
(dp640
g2
(dp641
g2
(dp642
g2
(dp643
g2
(dp644
g2
(dp645
g2
(dp646
g2
(dp647
g2
g23
sg19
g18
sg21
I164
ssg19
g22
sg21
I136
ssg19
g18
sg21
I43
ssg19
g23
sg21
I183
ssg19
g18
sg21
I134
ssg19
g23
sg21
I90
ssg19
g22
sg21
I63
ssg19
g20
sg21
I192
ssg19
g18
sg21
I139
ssg19
g20
sg21
I94
ssg19
g22
sg21
I83
ssg19
g18
sg21
I65
ssg19
g23
sg21
I84
ssg19
g20
sg21
I64
ssg19
g23
sg21
I92
ssg19
g20
sg21
I166
sa(dp648
g2
(dp649
g2
(dp650
g2
(dp651
g2
(dp652
g2
(dp653
g2
(dp654
g2
(dp655
g2
(dp656
g2
(dp657
g2
(dp658
g2
(dp659
g2
(dp660
g2
(dp661
g2
(dp662
g2
(dp663
g2
g23
sg19
g22
sg21
I170
ssg19
g18
sg21
I45
ssg19
g20
sg21
I126
ssg19
g23
sg21
I75
ssg19
g22
sg21
I90
ssg19
g22
sg21
I89
ssg19
g18
sg21
I112
ssg19
g22
sg21
I185
ssg19
g23
sg21
I4
ssg19
g18
sg21
I13
ssg19
g22
sg21
I191
ssg19
g20
sg21
I183
ssg19
g20
sg21
I151
ssg19
g18
sg21
I63
ssg19
g22
sg21
I184
ssg19
g20
sg21
I175
sa(dp664
g2
(dp665
g2
(dp666
g2
(dp667
g2
(dp668
g2
(dp669
g2
(dp670
g2
(dp671
g2
(dp672
g2
(dp673
g2
(dp674
g2
(dp675
g2
(dp676
g2
(dp677
g2
(dp678
g2
(dp679
g2
g18
sg19
g23
sg21
I139
ssg19
g23
sg21
I128
ssg19
g23
sg21
I141
ssg19
g18
sg21
I131
ssg19
g23
sg21
I162
ssg19
g23
sg21
I68
ssg19
g20
sg21
I159
ssg19
g20
sg21
I153
ssg19
g22
sg21
I1
ssg19
g22
sg21
I95
ssg19
g20
sg21
I161
ssg19
g23
sg21
I0
ssg19
g22
sg21
I67
ssg19
g18
sg21
I13
ssg19
g18
sg21
I31
ssg19
g23
sg21
I83
sa(dp680
g2
(dp681
g2
(dp682
g2
(dp683
g2
(dp684
g2
(dp685
g2
(dp686
g2
(dp687
g2
(dp688
g2
(dp689
g2
(dp690
g2
(dp691
g2
(dp692
g2
(dp693
g2
(dp694
g2
(dp695
g2
g18
sg19
g20
sg21
I179
ssg19
g18
sg21
I119
ssg19
g22
sg21
I154
ssg19
g22
sg21
I96
ssg19
g20
sg21
I153
ssg19
g18
sg21
I6
ssg19
g23
sg21
I0
ssg19
g20
sg21
I184
ssg19
g20
sg21
I125
ssg19
g18
sg21
I53
ssg19
g20
sg21
I28
ssg19
g22
sg21
I166
ssg19
g23
sg21
I164
ssg19
g23
sg21
I29
ssg19
g23
sg21
I145
ssg19
g20
sg21
I155
sa(dp696
g2
(dp697
g2
(dp698
g2
(dp699
g2
(dp700
g2
(dp701
g2
(dp702
g2
(dp703
g2
(dp704
g2
(dp705
g2
(dp706
g2
(dp707
g2
(dp708
g2
(dp709
g2
(dp710
g2
(dp711
g2
g22
sg19
g20
sg21
I135
ssg19
g20
sg21
I64
ssg19
g18
sg21
I18
ssg19
g20
sg21
I170
ssg19
g20
sg21
I140
ssg19
g22
sg21
I112
ssg19
g18
sg21
I35
ssg19
g18
sg21
I36
ssg19
g18
sg21
I13
ssg19
g23
sg21
I0
ssg19
g22
sg21
I24
ssg19
g18
sg21
I78
ssg19
g20
sg21
I177
ssg19
g23
sg21
I99
ssg19
g22
sg21
I88
ssg19
g20
sg21
I110
sa(dp712
g2
(dp713
g2
(dp714
g2
(dp715
g2
(dp716
g2
(dp717
g2
(dp718
g2
(dp719
g2
(dp720
g2
(dp721
g2
(dp722
g2
(dp723
g2
(dp724
g2
(dp725
g2
(dp726
g2
(dp727
g2
g23
sg19
g18
sg21
I79
ssg19
g18
sg21
I178
ssg19
g22
sg21
I117
ssg19
g18
sg21
I3
ssg19
g20
sg21
I153
ssg19
g20
sg21
I127
ssg19
g22
sg21
I108
ssg19
g20
sg21
I176
ssg19
g23
sg21
I146
ssg19
g18
sg21
I12
ssg19
g18
sg21
I37
ssg19
g20
sg21
I167
ssg19
g18
sg21
I22
ssg19
g23
sg21
I77
ssg19
g18
sg21
I46
ssg19
g20
sg21
I65
sa(dp728
g2
(dp729
g2
(dp730
g2
(dp731
g2
(dp732
g2
(dp733
g2
(dp734
g2
(dp735
g2
(dp736
g2
(dp737
g2
(dp738
g2
(dp739
g2
(dp740
g2
(dp741
g2
(dp742
g2
(dp743
g2
g18
sg19
g23
sg21
I171
ssg19
g18
sg21
I26
ssg19
g22
sg21
I43
ssg19
g18
sg21
I29
ssg19
g18
sg21
I161
ssg19
g22
sg21
I155
ssg19
g18
sg21
I127
ssg19
g22
sg21
I70
ssg19
g20
sg21
I176
ssg19
g22
sg21
I115
ssg19
g20
sg21
I184
ssg19
g23
sg21
I50
ssg19
g18
sg21
I62
ssg19
g20
sg21
I104
ssg19
g18
sg21
I31
ssg19
g18
sg21
I82
sa(dp744
g2
(dp745
g2
(dp746
g2
(dp747
g2
(dp748
g2
(dp749
g2
(dp750
g2
(dp751
g2
(dp752
g2
(dp753
g2
(dp754
g2
(dp755
g2
(dp756
g2
(dp757
g2
(dp758
g2
(dp759
g2
g18
sg19
g22
sg21
I114
ssg19
g20
sg21
I190
ssg19
g18
sg21
I176
ssg19
g22
sg21
I117
ssg19
g20
sg21
I180
ssg19
g18
sg21
I12
ssg19
g23
sg21
I0
ssg19
g20
sg21
I62
ssg19
g22
sg21
I133
ssg19
g18
sg21
I52
ssg19
g23
sg21
I136
ssg19
g22
sg21
I170
ssg19
g23
sg21
I25
ssg19
g20
sg21
I173
ssg19
g20
sg21
I137
ssg19
g23
sg21
I124
sa(dp760
g2
(dp761
g2
(dp762
g2
(dp763
g2
(dp764
g2
(dp765
g2
(dp766
g2
(dp767
g2
(dp768
g2
(dp769
g2
(dp770
g2
(dp771
g2
(dp772
g2
(dp773
g2
(dp774
g2
(dp775
g2
g18
sg19
g23
sg21
I127
ssg19
g20
sg21
I155
ssg19
g22
sg21
I160
ssg19
g23
sg21
I73
ssg19
g22
sg21
I175
ssg19
g23
sg21
I106
ssg19
g20
sg21
I163
ssg19
g22
sg21
I23
ssg19
g20
sg21
I124
ssg19
g23
sg21
I5
ssg19
g20
sg21
I181
ssg19
g18
sg21
I14
ssg19
g22
sg21
I119
ssg19
g23
sg21
I110
ssg19
g22
sg21
I184
ssg19
g20
sg21
I157
sa(dp776
g2
(dp777
g2
(dp778
g2
(dp779
g2
(dp780
g2
(dp781
g2
(dp782
g2
(dp783
g2
(dp784
g2
(dp785
g2
(dp786
g2
(dp787
g2
(dp788
g2
(dp789
g2
(dp790
g2
(dp791
g2
g22
sg19
g20
sg21
I129
ssg19
g20
sg21
I184
ssg19
g20
sg21
I106
ssg19
g18
sg21
I33
ssg19
g20
sg21
I174
ssg19
g18
sg21
I57
ssg19
g22
sg21
I89
ssg19
g22
sg21
I86
ssg19
g23
sg21
I0
ssg19
g23
sg21
I77
ssg19
g22
sg21
I81
ssg19
g20
sg21
I154
ssg19
g23
sg21
I80
ssg19
g23
sg21
I76
ssg19
g20
sg21
I114
ssg19
g22
sg21
I112
sa(dp792
g2
(dp793
g2
(dp794
g2
(dp795
g2
(dp796
g2
(dp797
g2
(dp798
g2
(dp799
g2
(dp800
g2
(dp801
g2
(dp802
g2
(dp803
g2
(dp804
g2
(dp805
g2
(dp806
g2
(dp807
g2
g18
sg19
g23
sg21
I34
ssg19
g20
sg21
I180
ssg19
g22
sg21
I120
ssg19
g22
sg21
I178
ssg19
g23
sg21
I29
ssg19
g20
sg21
I77
ssg19
g18
sg21
I43
ssg19
g22
sg21
I187
ssg19
g20
sg21
I173
ssg19
g23
sg21
I26
ssg19
g22
sg21
I24
ssg19
g18
sg21
I9
ssg19
g20
sg21
I156
ssg19
g22
sg21
I89
ssg19
g23
sg21
I102
ssg19
g18
sg21
I59
sa(dp808
g2
(dp809
g2
(dp810
g2
(dp811
g2
(dp812
g2
(dp813
g2
(dp814
g2
(dp815
g2
(dp816
g2
(dp817
g2
(dp818
g2
(dp819
g2
(dp820
g2
(dp821
g2
(dp822
g2
(dp823
g2
g20
sg19
g23
sg21
I78
ssg19
g18
sg21
I18
ssg19
g20
sg21
I184
ssg19
g18
sg21
I8
ssg19
g22
sg21
I120
ssg19
g23
sg21
I124
ssg19
g20
sg21
I134
ssg19
g23
sg21
I169
ssg19
g22
sg21
I109
ssg19
g18
sg21
I64
ssg19
g18
sg21
I59
ssg19
g18
sg21
I37
ssg19
g18
sg21
I60
ssg19
g18
sg21
I112
ssg19
g18
sg21
I58
ssg19
g22
sg21
I139
sa(dp824
g2
(dp825
g2
(dp826
g2
(dp827
g2
(dp828
g2
(dp829
g2
(dp830
g2
(dp831
g2
(dp832
g2
(dp833
g2
(dp834
g2
(dp835
g2
(dp836
g2
(dp837
g2
(dp838
g2
(dp839
g2
g23
sg19
g18
sg21
I35
ssg19
g22
sg21
I93
ssg19
g23
sg21
I147
ssg19
g20
sg21
I107
ssg19
g20
sg21
I158
ssg19
g18
sg21
I127
ssg19
g20
sg21
I172
ssg19
g18
sg21
I91
ssg19
g22
sg21
I17
ssg19
g18
sg21
I19
ssg19
g22
sg21
I14
ssg19
g20
sg21
I163
ssg19
g23
sg21
I25
ssg19
g23
sg21
I83
ssg19
g18
sg21
I13
ssg19
g22
sg21
I46
sa(dp840
g2
(dp841
g2
(dp842
g2
(dp843
g2
(dp844
g2
(dp845
g2
(dp846
g2
(dp847
g2
(dp848
g2
(dp849
g2
(dp850
g2
(dp851
g2
(dp852
g2
(dp853
g2
(dp854
g2
(dp855
g2
g23
sg19
g20
sg21
I41
ssg19
g23
sg21
I16
ssg19
g18
sg21
I32
ssg19
g22
sg21
I127
ssg19
g22
sg21
I18
ssg19
g18
sg21
I15
ssg19
g20
sg21
I156
ssg19
g22
sg21
I167
ssg19
g20
sg21
I179
ssg19
g18
sg21
I65
ssg19
g20
sg21
I129
ssg19
g23
sg21
I78
ssg19
g23
sg21
I132
ssg19
g18
sg21
I60
ssg19
g22
sg21
I89
ssg19
g20
sg21
I130
sa(dp856
g2
(dp857
g2
(dp858
g2
(dp859
g2
(dp860
g2
(dp861
g2
(dp862
g2
(dp863
g2
(dp864
g2
(dp865
g2
(dp866
g2
(dp867
g2
(dp868
g2
(dp869
g2
(dp870
g2
(dp871
g2
g22
sg19
g18
sg21
I12
ssg19
g22
sg21
I98
ssg19
g20
sg21
I155
ssg19
g20
sg21
I103
ssg19
g23
sg21
I0
ssg19
g23
sg21
I26
ssg19
g20
sg21
I142
ssg19
g22
sg21
I139
ssg19
g23
sg21
I109
ssg19
g22
sg21
I116
ssg19
g20
sg21
I59
ssg19
g23
sg21
I50
ssg19
g20
sg21
I85
ssg19
g20
sg21
I160
ssg19
g23
sg21
I8
ssg19
g18
sg21
I4
sa(dp872
g2
(dp873
g2
(dp874
g2
(dp875
g2
(dp876
g2
(dp877
g2
(dp878
g2
(dp879
g2
(dp880
g2
(dp881
g2
(dp882
g2
(dp883
g2
(dp884
g2
(dp885
g2
(dp886
g2
(dp887
g2
g23
sg19
g22
sg21
I142
ssg19
g23
sg21
I137
ssg19
g23
sg21
I8
ssg19
g20
sg21
I98
ssg19
g18
sg21
I65
ssg19
g22
sg21
I21
ssg19
g23
sg21
I50
ssg19
g20
sg21
I133
ssg19
g22
sg21
I190
ssg19
g22
sg21
I14
ssg19
g20
sg21
I173
ssg19
g18
sg21
I15
ssg19
g23
sg21
I187
ssg19
g23
sg21
I108
ssg19
g22
sg21
I111
ssg19
g23
sg21
I58
sa(dp888
g2
(dp889
g2
(dp890
g2
(dp891
g2
(dp892
g2
(dp893
g2
(dp894
g2
(dp895
g2
(dp896
g2
(dp897
g2
(dp898
g2
(dp899
g2
(dp900
g2
(dp901
g2
(dp902
g2
(dp903
g2
g23
sg19
g22
sg21
I116
ssg19
g22
sg21
I158
ssg19
g22
sg21
I64
ssg19
g22
sg21
I47
ssg19
g23
sg21
I172
ssg19
g20
sg21
I167
ssg19
g18
sg21
I41
ssg19
g20
sg21
I187
ssg19
g18
sg21
I190
ssg19
g22
sg21
I166
ssg19
g20
sg21
I163
ssg19
g18
sg21
I19
ssg19
g20
sg21
I16
ssg19
g23
sg21
I119
ssg19
g22
sg21
I40
ssg19
g23
sg21
I136
sa(dp904
g2
(dp905
g2
(dp906
g2
(dp907
g2
(dp908
g2
(dp909
g2
(dp910
g2
(dp911
g2
(dp912
g2
(dp913
g2
(dp914
g2
(dp915
g2
(dp916
g2
(dp917
g2
(dp918
g2
(dp919
g2
g18
sg19
g20
sg21
I192
ssg19
g22
sg21
I85
ssg19
g20
sg21
I100
ssg19
g22
sg21
I76
ssg19
g20
sg21
I184
ssg19
g22
sg21
I117
ssg19
g22
sg21
I144
ssg19
g20
sg21
I122
ssg19
g18
sg21
I6
ssg19
g20
sg21
I174
ssg19
g18
sg21
I31
ssg19
g23
sg21
I0
ssg19
g23
sg21
I50
ssg19
g22
sg21
I92
ssg19
g18
sg21
I87
ssg19
g20
sg21
I160
sa(dp920
g2
(dp921
g2
(dp922
g2
(dp923
g2
(dp924
g2
(dp925
g2
(dp926
g2
(dp927
g2
(dp928
g2
(dp929
g2
(dp930
g2
(dp931
g2
(dp932
g2
(dp933
g2
(dp934
g2
(dp935
g2
g18
sg19
g22
sg21
I70
ssg19
g22
sg21
I114
ssg19
g20
sg21
I190
ssg19
g22
sg21
I64
ssg19
g18
sg21
I2
ssg19
g22
sg21
I120
ssg19
g20
sg21
I169
ssg19
g18
sg21
I49
ssg19
g18
sg21
I12
ssg19
g20
sg21
I183
ssg19
g23
sg21
I0
ssg19
g20
sg21
I153
ssg19
g23
sg21
I102
ssg19
g18
sg21
I86
ssg19
g20
sg21
I111
ssg19
g23
sg21
I83
sa(dp936
g2
(dp937
g2
(dp938
g2
(dp939
g2
(dp940
g2
(dp941
g2
(dp942
g2
(dp943
g2
(dp944
g2
(dp945
g2
(dp946
g2
(dp947
g2
(dp948
g2
(dp949
g2
(dp950
g2
(dp951
g2
g23
sg19
g20
sg21
I71
ssg19
g18
sg21
I32
ssg19
g22
sg21
I28
ssg19
g20
sg21
I188
ssg19
g23
sg21
I25
ssg19
g18
sg21
I10
ssg19
g18
sg21
I65
ssg19
g22
sg21
I47
ssg19
g22
sg21
I137
ssg19
g20
sg21
I38
ssg19
g23
sg21
I55
ssg19
g18
sg21
I17
ssg19
g20
sg21
I82
ssg19
g23
sg21
I80
ssg19
g18
sg21
I40
ssg19
g18
sg21
I110
sa(dp952
g2
(dp953
g2
(dp954
g2
(dp955
g2
(dp956
g2
(dp957
g2
(dp958
g2
(dp959
g2
(dp960
g2
(dp961
g2
(dp962
g2
(dp963
g2
(dp964
g2
(dp965
g2
(dp966
g2
(dp967
g2
g18
sg19
g23
sg21
I3
ssg19
g20
sg21
I71
ssg19
g23
sg21
I81
ssg19
g22
sg21
I168
ssg19
g23
sg21
I30
ssg19
g20
sg21
I183
ssg19
g22
sg21
I114
ssg19
g20
sg21
I135
ssg19
g23
sg21
I50
ssg19
g23
sg21
I36
ssg19
g23
sg21
I15
ssg19
g18
sg21
I39
ssg19
g22
sg21
I90
ssg19
g20
sg21
I107
ssg19
g23
sg21
I59
ssg19
g18
sg21
I86
sa(dp968
g2
(dp969
g2
(dp970
g2
(dp971
g2
(dp972
g2
(dp973
g2
(dp974
g2
(dp975
g2
(dp976
g2
(dp977
g2
(dp978
g2
(dp979
g2
(dp980
g2
(dp981
g2
(dp982
g2
(dp983
g2
g22
sg19
g20
sg21
I177
ssg19
g23
sg21
I0
ssg19
g23
sg21
I88
ssg19
g23
sg21
I50
ssg19
g18
sg21
I35
ssg19
g22
sg21
I89
ssg19
g23
sg21
I58
ssg19
g23
sg21
I17
ssg19
g22
sg21
I98
ssg19
g23
sg21
I77
ssg19
g20
sg21
I146
ssg19
g23
sg21
I169
ssg19
g23
sg21
I28
ssg19
g20
sg21
I82
ssg19
g18
sg21
I184
ssg19
g18
sg21
I40
sa(dp984
g2
(dp985
g2
(dp986
g2
(dp987
g2
(dp988
g2
(dp989
g2
(dp990
g2
(dp991
g2
(dp992
g2
(dp993
g2
(dp994
g2
(dp995
g2
(dp996
g2
(dp997
g2
(dp998
g2
(dp999
g2
g22
sg19
g18
sg21
I134
ssg19
g20
sg21
I129
ssg19
g22
sg21
I92
ssg19
g20
sg21
I123
ssg19
g20
sg21
I100
ssg19
g22
sg21
I53
ssg19
g20
sg21
I160
ssg19
g23
sg21
I0
ssg19
g18
sg21
I35
ssg19
g22
sg21
I16
ssg19
g23
sg21
I5
ssg19
g23
sg21
I88
ssg19
g22
sg21
I44
ssg19
g23
sg21
I56
ssg19
g18
sg21
I61
ssg19
g20
sg21
I85
sa(dp1000
g2
(dp1001
g2
(dp1002
g2
(dp1003
g2
(dp1004
g2
(dp1005
g2
(dp1006
g2
(dp1007
g2
(dp1008
g2
(dp1009
g2
(dp1010
g2
(dp1011
g2
(dp1012
g2
(dp1013
g2
(dp1014
g2
(dp1015
g2
g18
sg19
g22
sg21
I73
ssg19
g22
sg21
I114
ssg19
g23
sg21
I150
ssg19
g23
sg21
I162
ssg19
g20
sg21
I173
ssg19
g18
sg21
I152
ssg19
g20
sg21
I74
ssg19
g20
sg21
I160
ssg19
g18
sg21
I110
ssg19
g22
sg21
I44
ssg19
g23
sg21
I158
ssg19
g23
sg21
I59
ssg19
g20
sg21
I98
ssg19
g23
sg21
I122
ssg19
g23
sg21
I85
ssg19
g23
sg21
I121
sa(dp1016
g2
(dp1017
g2
(dp1018
g2
(dp1019
g2
(dp1020
g2
(dp1021
g2
(dp1022
g2
(dp1023
g2
(dp1024
g2
(dp1025
g2
(dp1026
g2
(dp1027
g2
(dp1028
g2
(dp1029
g2
(dp1030
g2
(dp1031
g2
g18
sg19
g22
sg21
I71
ssg19
g18
sg21
I3
ssg19
g23
sg21
I171
ssg19
g22
sg21
I188
ssg19
g23
sg21
I121
ssg19
g18
sg21
I59
ssg19
g22
sg21
I138
ssg19
g20
sg21
I183
ssg19
g22
sg21
I117
ssg19
g18
sg21
I114
ssg19
g23
sg21
I155
ssg19
g20
sg21
I159
ssg19
g20
sg21
I137
ssg19
g18
sg21
I62
ssg19
g20
sg21
I91
ssg19
g23
sg21
I101
sa(dp1032
g2
(dp1033
g2
(dp1034
g2
(dp1035
g2
(dp1036
g2
(dp1037
g2
(dp1038
g2
(dp1039
g2
(dp1040
g2
(dp1041
g2
(dp1042
g2
(dp1043
g2
(dp1044
g2
(dp1045
g2
(dp1046
g2
(dp1047
g2
g20
sg19
g22
sg21
I20
ssg19
g20
sg21
I150
ssg19
g18
sg21
I81
ssg19
g23
sg21
I0
ssg19
g20
sg21
I170
ssg19
g23
sg21
I146
ssg19
g22
sg21
I46
ssg19
g22
sg21
I16
ssg19
g23
sg21
I169
ssg19
g23
sg21
I151
ssg19
g22
sg21
I38
ssg19
g18
sg21
I37
ssg19
g23
sg21
I86
ssg19
g23
sg21
I176
ssg19
g18
sg21
I84
ssg19
g20
sg21
I178
sa(dp1048
g2
(dp1049
g2
(dp1050
g2
(dp1051
g2
(dp1052
g2
(dp1053
g2
(dp1054
g2
(dp1055
g2
(dp1056
g2
(dp1057
g2
(dp1058
g2
(dp1059
g2
(dp1060
g2
(dp1061
g2
(dp1062
g2
(dp1063
g2
g22
sg19
g18
sg21
I178
ssg19
g18
sg21
I9
ssg19
g22
sg21
I189
ssg19
g18
sg21
I52
ssg19
g20
sg21
I171
ssg19
g18
sg21
I118
ssg19
g18
sg21
I112
ssg19
g18
sg21
I33
ssg19
g20
sg21
I177
ssg19
g22
sg21
I20
ssg19
g18
sg21
I5
ssg19
g20
sg21
I160
ssg19
g23
sg21
I0
ssg19
g23
sg21
I56
ssg19
g22
sg21
I64
ssg19
g18
sg21
I38
sa(dp1064
g2
(dp1065
g2
(dp1066
g2
(dp1067
g2
(dp1068
g2
(dp1069
g2
(dp1070
g2
(dp1071
g2
(dp1072
g2
(dp1073
g2
(dp1074
g2
(dp1075
g2
(dp1076
g2
(dp1077
g2
(dp1078
g2
(dp1079
g2
g23
sg19
g22
sg21
I16
ssg19
g18
sg21
I137
ssg19
g18
sg21
I17
ssg19
g18
sg21
I88
ssg19
g22
sg21
I141
ssg19
g20
sg21
I186
ssg19
g22
sg21
I38
ssg19
g22
sg21
I69
ssg19
g22
sg21
I42
ssg19
g23
sg21
I146
ssg19
g20
sg21
I178
ssg19
g18
sg21
I133
ssg19
g20
sg21
I155
ssg19
g20
sg21
I154
ssg19
g18
sg21
I34
ssg19
g18
sg21
I37
sa(dp1080
g2
(dp1081
g2
(dp1082
g2
(dp1083
g2
(dp1084
g2
(dp1085
g2
(dp1086
g2
(dp1087
g2
(dp1088
g2
(dp1089
g2
(dp1090
g2
(dp1091
g2
(dp1092
g2
(dp1093
g2
(dp1094
g2
(dp1095
g2
g20
sg19
g23
sg21
I1
ssg19
g20
sg21
I103
ssg19
g22
sg21
I182
ssg19
g18
sg21
I30
ssg19
g22
sg21
I31
ssg19
g18
sg21
I14
ssg19
g20
sg21
I192
ssg19
g22
sg21
I96
ssg19
g18
sg21
I5
ssg19
g20
sg21
I97
ssg19
g18
sg21
I86
ssg19
g18
sg21
I27
ssg19
g20
sg21
I49
ssg19
g23
sg21
I0
ssg19
g23
sg21
I83
ssg19
g22
sg21
I85
sa(dp1096
g2
(dp1097
g2
(dp1098
g2
(dp1099
g2
(dp1100
g2
(dp1101
g2
(dp1102
g2
(dp1103
g2
(dp1104
g2
(dp1105
g2
(dp1106
g2
(dp1107
g2
(dp1108
g2
(dp1109
g2
(dp1110
g2
(dp1111
g2
g23
sg19
g18
sg21
I88
ssg19
g22
sg21
I165
ssg19
g20
sg21
I13
ssg19
g23
sg21
I163
ssg19
g23
sg21
I155
ssg19
g22
sg21
I167
ssg19
g20
sg21
I40
ssg19
g22
sg21
I160
ssg19
g20
sg21
I176
ssg19
g20
sg21
I119
ssg19
g23
sg21
I8
ssg19
g18
sg21
I20
ssg19
g18
sg21
I178
ssg19
g18
sg21
I16
ssg19
g20
sg21
I110
ssg19
g23
sg21
I83
sa(dp1112
g2
(dp1113
g2
(dp1114
g2
(dp1115
g2
(dp1116
g2
(dp1117
g2
(dp1118
g2
(dp1119
g2
(dp1120
g2
(dp1121
g2
(dp1122
g2
(dp1123
g2
(dp1124
g2
(dp1125
g2
(dp1126
g2
(dp1127
g2
g22
sg19
g18
sg21
I9
ssg19
g22
sg21
I14
ssg19
g20
sg21
I179
ssg19
g22
sg21
I153
ssg19
g20
sg21
I5
ssg19
g22
sg21
I17
ssg19
g18
sg21
I105
ssg19
g20
sg21
I126
ssg19
g22
sg21
I191
ssg19
g18
sg21
I29
ssg19
g20
sg21
I128
ssg19
g20
sg21
I100
ssg19
g22
sg21
I154
ssg19
g23
sg21
I0
ssg19
g18
sg21
I52
ssg19
g18
sg21
I124
sa(dp1128
g2
(dp1129
g2
(dp1130
g2
(dp1131
g2
(dp1132
g2
(dp1133
g2
(dp1134
g2
(dp1135
g2
(dp1136
g2
(dp1137
g2
(dp1138
g2
(dp1139
g2
(dp1140
g2
(dp1141
g2
(dp1142
g2
(dp1143
g2
g22
sg19
g23
sg21
I128
ssg19
g18
sg21
I52
ssg19
g20
sg21
I134
ssg19
g20
sg21
I142
ssg19
g22
sg21
I20
ssg19
g23
sg21
I154
ssg19
g20
sg21
I115
ssg19
g20
sg21
I110
ssg19
g18
sg21
I14
ssg19
g23
sg21
I127
ssg19
g20
sg21
I136
ssg19
g23
sg21
I49
ssg19
g18
sg21
I1
ssg19
g22
sg21
I91
ssg19
g23
sg21
I145
ssg19
g22
sg21
I166
sa(dp1144
g2
(dp1145
g2
(dp1146
g2
(dp1147
g2
(dp1148
g2
(dp1149
g2
(dp1150
g2
(dp1151
g2
(dp1152
g2
(dp1153
g2
(dp1154
g2
(dp1155
g2
(dp1156
g2
(dp1157
g2
(dp1158
g2
(dp1159
g2
g23
sg19
g20
sg21
I155
ssg19
g23
sg21
I105
ssg19
g18
sg21
I69
ssg19
g18
sg21
I61
ssg19
g22
sg21
I117
ssg19
g22
sg21
I115
ssg19
g20
sg21
I131
ssg19
g23
sg21
I173
ssg19
g18
sg21
I175
ssg19
g20
sg21
I130
ssg19
g18
sg21
I106
ssg19
g20
sg21
I103
ssg19
g18
sg21
I1
ssg19
g22
sg21
I112
ssg19
g18
sg21
I7
ssg19
g23
sg21
I98
sa(dp1160
g2
(dp1161
g2
(dp1162
g2
(dp1163
g2
(dp1164
g2
(dp1165
g2
(dp1166
g2
(dp1167
g2
(dp1168
g2
(dp1169
g2
(dp1170
g2
(dp1171
g2
(dp1172
g2
(dp1173
g2
(dp1174
g2
(dp1175
g2
g18
sg19
g23
sg21
I121
ssg19
g23
sg21
I19
ssg19
g20
sg21
I168
ssg19
g22
sg21
I90
ssg19
g23
sg21
I85
ssg19
g23
sg21
I78
ssg19
g23
sg21
I27
ssg19
g22
sg21
I113
ssg19
g22
sg21
I191
ssg19
g20
sg21
I188
ssg19
g18
sg21
I43
ssg19
g20
sg21
I86
ssg19
g18
sg21
I63
ssg19
g23
sg21
I79
ssg19
g18
sg21
I94
ssg19
g22
sg21
I70
sa(dp1176
g2
(dp1177
g2
(dp1178
g2
(dp1179
g2
(dp1180
g2
(dp1181
g2
(dp1182
g2
(dp1183
g2
(dp1184
g2
(dp1185
g2
(dp1186
g2
(dp1187
g2
(dp1188
g2
(dp1189
g2
(dp1190
g2
(dp1191
g2
g18
sg19
g22
sg21
I28
ssg19
g20
sg21
I172
ssg19
g18
sg21
I63
ssg19
g22
sg21
I114
ssg19
g20
sg21
I126
ssg19
g22
sg21
I94
ssg19
g18
sg21
I12
ssg19
g18
sg21
I78
ssg19
g23
sg21
I0
ssg19
g22
sg21
I17
ssg19
g22
sg21
I34
ssg19
g20
sg21
I116
ssg19
g20
sg21
I43
ssg19
g18
sg21
I55
ssg19
g23
sg21
I1
ssg19
g18
sg21
I5
sa(dp1192
g2
(dp1193
g2
(dp1194
g2
(dp1195
g2
(dp1196
g2
(dp1197
g2
(dp1198
g2
(dp1199
g2
(dp1200
g2
(dp1201
g2
(dp1202
g2
(dp1203
g2
(dp1204
g2
(dp1205
g2
(dp1206
g2
(dp1207
g2
g22
sg19
g20
sg21
I122
ssg19
g18
sg21
I23
ssg19
g18
sg21
I78
ssg19
g20
sg21
I148
ssg19
g20
sg21
I177
ssg19
g18
sg21
I157
ssg19
g20
sg21
I129
ssg19
g18
sg21
I35
ssg19
g22
sg21
I172
ssg19
g23
sg21
I0
ssg19
g23
sg21
I26
ssg19
g20
sg21
I143
ssg19
g18
sg21
I142
ssg19
g23
sg21
I94
ssg19
g20
sg21
I190
ssg19
g20
sg21
I110
sa(dp1208
g2
(dp1209
g2
(dp1210
g2
(dp1211
g2
(dp1212
g2
(dp1213
g2
(dp1214
g2
(dp1215
g2
(dp1216
g2
(dp1217
g2
(dp1218
g2
(dp1219
g2
(dp1220
g2
(dp1221
g2
(dp1222
g2
(dp1223
g2
g18
sg19
g22
sg21
I165
ssg19
g20
sg21
I67
ssg19
g20
sg21
I139
ssg19
g22
sg21
I130
ssg19
g20
sg21
I104
ssg19
g20
sg21
I173
ssg19
g22
sg21
I128
ssg19
g20
sg21
I73
ssg19
g22
sg21
I120
ssg19
g20
sg21
I177
ssg19
g23
sg21
I0
ssg19
g20
sg21
I156
ssg19
g22
sg21
I40
ssg19
g18
sg21
I32
ssg19
g20
sg21
I109
ssg19
g23
sg21
I85
sa(dp1224
g2
(dp1225
g2
(dp1226
g2
(dp1227
g2
(dp1228
g2
(dp1229
g2
(dp1230
g2
(dp1231
g2
(dp1232
g2
(dp1233
g2
(dp1234
g2
(dp1235
g2
(dp1236
g2
(dp1237
g2
(dp1238
g2
(dp1239
g2
g18
sg19
g23
sg21
I126
ssg19
g20
sg21
I37
ssg19
g22
sg21
I79
ssg19
g22
sg21
I47
ssg19
g20
sg21
I64
ssg19
g20
sg21
I156
ssg19
g18
sg21
I131
ssg19
g22
sg21
I110
ssg19
g18
sg21
I39
ssg19
g20
sg21
I106
ssg19
g22
sg21
I81
ssg19
g20
sg21
I153
ssg19
g22
sg21
I117
ssg19
g23
sg21
I0
ssg19
g18
sg21
I87
ssg19
g18
sg21
I34
sa(dp1240
g2
(dp1241
g2
(dp1242
g2
(dp1243
g2
(dp1244
g2
(dp1245
g2
(dp1246
g2
(dp1247
g2
(dp1248
g2
(dp1249
g2
(dp1250
g2
(dp1251
g2
(dp1252
g2
(dp1253
g2
(dp1254
g2
(dp1255
g2
g23
sg19
g23
sg21
I100
ssg19
g18
sg21
I45
ssg19
g22
sg21
I71
ssg19
g20
sg21
I17
ssg19
g22
sg21
I189
ssg19
g20
sg21
I156
ssg19
g18
sg21
I8
ssg19
g23
sg21
I54
ssg19
g20
sg21
I182
ssg19
g18
sg21
I68
ssg19
g22
sg21
I92
ssg19
g18
sg21
I61
ssg19
g18
sg21
I86
ssg19
g22
sg21
I91
ssg19
g23
sg21
I85
ssg19
g22
sg21
I88
sa(dp1256
g2
(dp1257
g2
(dp1258
g2
(dp1259
g2
(dp1260
g2
(dp1261
g2
(dp1262
g2
(dp1263
g2
(dp1264
g2
(dp1265
g2
(dp1266
g2
(dp1267
g2
(dp1268
g2
(dp1269
g2
(dp1270
g2
(dp1271
g2
g18
sg19
g20
sg21
I141
ssg19
g20
sg21
I170
ssg19
g18
sg21
I127
ssg19
g20
sg21
I26
ssg19
g18
sg21
I21
ssg19
g22
sg21
I86
ssg19
g20
sg21
I159
ssg19
g22
sg21
I164
ssg19
g22
sg21
I49
ssg19
g23
sg21
I0
ssg19
g23
sg21
I62
ssg19
g23
sg21
I79
ssg19
g23
sg21
I108
ssg19
g20
sg21
I155
ssg19
g18
sg21
I59
ssg19
g20
sg21
I133
sa(dp1272
g2
(dp1273
g2
(dp1274
g2
(dp1275
g2
(dp1276
g2
(dp1277
g2
(dp1278
g2
(dp1279
g2
(dp1280
g2
(dp1281
g2
(dp1282
g2
(dp1283
g2
(dp1284
g2
(dp1285
g2
(dp1286
g2
(dp1287
g2
g23
sg19
g18
sg21
I83
ssg19
g18
sg21
I48
ssg19
g22
sg21
I120
ssg19
g20
sg21
I58
ssg19
g20
sg21
I110
ssg19
g22
sg21
I115
ssg19
g18
sg21
I104
ssg19
g18
sg21
I14
ssg19
g20
sg21
I156
ssg19
g22
sg21
I41
ssg19
g23
sg21
I31
ssg19
g22
sg21
I65
ssg19
g23
sg21
I62
ssg19
g18
sg21
I13
ssg19
g23
sg21
I108
ssg19
g20
sg21
I154
sa(dp1288
g2
(dp1289
g2
(dp1290
g2
(dp1291
g2
(dp1292
g2
(dp1293
g2
(dp1294
g2
(dp1295
g2
(dp1296
g2
(dp1297
g2
(dp1298
g2
(dp1299
g2
(dp1300
g2
(dp1301
g2
(dp1302
g2
(dp1303
g2
g18
sg19
g22
sg21
I23
ssg19
g22
sg21
I140
ssg19
g22
sg21
I183
ssg19
g23
sg21
I134
ssg19
g18
sg21
I38
ssg19
g23
sg21
I9
ssg19
g18
sg21
I17
ssg19
g23
sg21
I6
ssg19
g18
sg21
I21
ssg19
g20
sg21
I132
ssg19
g22
sg21
I68
ssg19
g18
sg21
I59
ssg19
g23
sg21
I125
ssg19
g20
sg21
I176
ssg19
g20
sg21
I128
ssg19
g23
sg21
I101
sa(dp1304
g2
(dp1305
g2
(dp1306
g2
(dp1307
g2
(dp1308
g2
(dp1309
g2
(dp1310
g2
(dp1311
g2
(dp1312
g2
(dp1313
g2
(dp1314
g2
(dp1315
g2
(dp1316
g2
(dp1317
g2
(dp1318
g2
(dp1319
g2
g23
sg19
g20
sg21
I140
ssg19
g22
sg21
I187
ssg19
g18
sg21
I36
ssg19
g22
sg21
I96
ssg19
g23
sg21
I171
ssg19
g22
sg21
I94
ssg19
g20
sg21
I159
ssg19
g18
sg21
I46
ssg19
g22
sg21
I181
ssg19
g23
sg21
I4
ssg19
g20
sg21
I183
ssg19
g20
sg21
I86
ssg19
g18
sg21
I58
ssg19
g23
sg21
I25
ssg19
g18
sg21
I106
ssg19
g23
sg21
I110
sa(dp1320
g2
(dp1321
g2
(dp1322
g2
(dp1323
g2
(dp1324
g2
(dp1325
g2
(dp1326
g2
(dp1327
g2
(dp1328
g2
(dp1329
g2
(dp1330
g2
(dp1331
g2
(dp1332
g2
(dp1333
g2
(dp1334
g2
(dp1335
g2
g18
sg19
g22
sg21
I48
ssg19
g18
sg21
I18
ssg19
g22
sg21
I162
ssg19
g20
sg21
I190
ssg19
g20
sg21
I100
ssg19
g20
sg21
I180
ssg19
g23
sg21
I0
ssg19
g22
sg21
I163
ssg19
g20
sg21
I153
ssg19
g22
sg21
I118
ssg19
g18
sg21
I29
ssg19
g22
sg21
I139
ssg19
g20
sg21
I131
ssg19
g20
sg21
I129
ssg19
g22
sg21
I110
ssg19
g23
sg21
I76
sa(dp1336
g2
(dp1337
g2
(dp1338
g2
(dp1339
g2
(dp1340
g2
(dp1341
g2
(dp1342
g2
(dp1343
g2
(dp1344
g2
(dp1345
g2
(dp1346
g2
(dp1347
g2
(dp1348
g2
(dp1349
g2
(dp1350
g2
(dp1351
g2
g18
sg19
g23
sg21
I167
ssg19
g20
sg21
I129
ssg19
g22
sg21
I31
ssg19
g22
sg21
I166
ssg19
g18
sg21
I146
ssg19
g20
sg21
I178
ssg19
g22
sg21
I83
ssg19
g20
sg21
I114
ssg19
g18
sg21
I2
ssg19
g23
sg21
I0
ssg19
g20
sg21
I188
ssg19
g18
sg21
I36
ssg19
g23
sg21
I78
ssg19
g22
sg21
I90
ssg19
g23
sg21
I81
ssg19
g18
sg21
I87
sa(dp1352
g2
(dp1353
g2
(dp1354
g2
(dp1355
g2
(dp1356
g2
(dp1357
g2
(dp1358
g2
(dp1359
g2
(dp1360
g2
(dp1361
g2
(dp1362
g2
(dp1363
g2
(dp1364
g2
(dp1365
g2
(dp1366
g2
(dp1367
g2
g23
sg19
g22
sg21
I109
ssg19
g22
sg21
I90
ssg19
g20
sg21
I102
ssg19
g22
sg21
I127
ssg19
g18
sg21
I6
ssg19
g23
sg21
I177
ssg19
g20
sg21
I169
ssg19
g22
sg21
I67
ssg19
g20
sg21
I52
ssg19
g18
sg21
I173
ssg19
g20
sg21
I176
ssg19
g23
sg21
I129
ssg19
g23
sg21
I26
ssg19
g22
sg21
I97
ssg19
g23
sg21
I146
ssg19
g18
sg21
I133
sa(dp1368
g2
(dp1369
g2
(dp1370
g2
(dp1371
g2
(dp1372
g2
(dp1373
g2
(dp1374
g2
(dp1375
g2
(dp1376
g2
(dp1377
g2
(dp1378
g2
(dp1379
g2
(dp1380
g2
(dp1381
g2
(dp1382
g2
(dp1383
g2
g22
sg19
g18
sg21
I65
ssg19
g18
sg21
I70
ssg19
g18
sg21
I175
ssg19
g22
sg21
I181
ssg19
g18
sg21
I23
ssg19
g22
sg21
I143
ssg19
g20
sg21
I170
ssg19
g18
sg21
I44
ssg19
g23
sg21
I0
ssg19
g22
sg21
I139
ssg19
g20
sg21
I131
ssg19
g18
sg21
I98
ssg19
g23
sg21
I80
ssg19
g18
sg21
I64
ssg19
g23
sg21
I74
ssg19
g18
sg21
I103
sa(dp1384
g2
(dp1385
g2
(dp1386
g2
(dp1387
g2
(dp1388
g2
(dp1389
g2
(dp1390
g2
(dp1391
g2
(dp1392
g2
(dp1393
g2
(dp1394
g2
(dp1395
g2
(dp1396
g2
(dp1397
g2
(dp1398
g2
(dp1399
g2
g18
sg19
g22
sg21
I100
ssg19
g20
sg21
I55
ssg19
g18
sg21
I160
ssg19
g20
sg21
I150
ssg19
g22
sg21
I92
ssg19
g22
sg21
I96
ssg19
g22
sg21
I58
ssg19
g18
sg21
I103
ssg19
g23
sg21
I0
ssg19
g20
sg21
I129
ssg19
g20
sg21
I83
ssg19
g23
sg21
I56
ssg19
g18
sg21
I26
ssg19
g23
sg21
I175
ssg19
g22
sg21
I137
ssg19
g20
sg21
I87
sa(dp1400
g2
(dp1401
g2
(dp1402
g2
(dp1403
g2
(dp1404
g2
(dp1405
g2
(dp1406
g2
(dp1407
g2
(dp1408
g2
(dp1409
g2
(dp1410
g2
(dp1411
g2
(dp1412
g2
(dp1413
g2
(dp1414
g2
(dp1415
g2
g20
sg19
g23
sg21
I75
ssg19
g20
sg21
I114
ssg19
g18
sg21
I39
ssg19
g20
sg21
I64
ssg19
g22
sg21
I120
ssg19
g18
sg21
I23
ssg19
g20
sg21
I138
ssg19
g22
sg21
I47
ssg19
g20
sg21
I134
ssg19
g23
sg21
I16
ssg19
g18
sg21
I142
ssg19
g18
sg21
I43
ssg19
g23
sg21
I88
ssg19
g22
sg21
I139
ssg19
g18
sg21
I82
ssg19
g20
sg21
I19
sa(dp1416
g2
(dp1417
g2
(dp1418
g2
(dp1419
g2
(dp1420
g2
(dp1421
g2
(dp1422
g2
(dp1423
g2
(dp1424
g2
(dp1425
g2
(dp1426
g2
(dp1427
g2
(dp1428
g2
(dp1429
g2
(dp1430
g2
(dp1431
g2
g18
sg19
g20
sg21
I132
ssg19
g22
sg21
I136
ssg19
g23
sg21
I81
ssg19
g23
sg21
I27
ssg19
g20
sg21
I133
ssg19
g20
sg21
I127
ssg19
g23
sg21
I80
ssg19
g18
sg21
I69
ssg19
g18
sg21
I35
ssg19
g23
sg21
I19
ssg19
g20
sg21
I44
ssg19
g18
sg21
I68
ssg19
g22
sg21
I25
ssg19
g23
sg21
I85
ssg19
g22
sg21
I87
ssg19
g18
sg21
I46
sa(dp1432
g2
(dp1433
g2
(dp1434
g2
(dp1435
g2
(dp1436
g2
(dp1437
g2
(dp1438
g2
(dp1439
g2
(dp1440
g2
(dp1441
g2
(dp1442
g2
(dp1443
g2
(dp1444
g2
(dp1445
g2
(dp1446
g2
(dp1447
g2
g18
sg19
g23
sg21
I152
ssg19
g22
sg21
I158
ssg19
g20
sg21
I192
ssg19
g20
sg21
I180
ssg19
g22
sg21
I144
ssg19
g20
sg21
I129
ssg19
g20
sg21
I182
ssg19
g20
sg21
I118
ssg19
g22
sg21
I140
ssg19
g20
sg21
I188
ssg19
g22
sg21
I143
ssg19
g18
sg21
I30
ssg19
g20
sg21
I102
ssg19
g23
sg21
I0
ssg19
g20
sg21
I124
ssg19
g23
sg21
I110
sa(dp1448
g2
(dp1449
g2
(dp1450
g2
(dp1451
g2
(dp1452
g2
(dp1453
g2
(dp1454
g2
(dp1455
g2
(dp1456
g2
(dp1457
g2
(dp1458
g2
(dp1459
g2
(dp1460
g2
(dp1461
g2
(dp1462
g2
(dp1463
g2
g22
sg19
g23
sg21
I50
ssg19
g20
sg21
I16
ssg19
g18
sg21
I17
ssg19
g23
sg21
I56
ssg19
g22
sg21
I115
ssg19
g20
sg21
I185
ssg19
g20
sg21
I131
ssg19
g20
sg21
I109
ssg19
g23
sg21
I112
ssg19
g20
sg21
I94
ssg19
g22
sg21
I104
ssg19
g23
sg21
I58
ssg19
g23
sg21
I107
ssg19
g18
sg21
I83
ssg19
g23
sg21
I64
ssg19
g23
sg21
I134
sa(dp1464
g2
(dp1465
g2
(dp1466
g2
(dp1467
g2
(dp1468
g2
(dp1469
g2
(dp1470
g2
(dp1471
g2
(dp1472
g2
(dp1473
g2
(dp1474
g2
(dp1475
g2
(dp1476
g2
(dp1477
g2
(dp1478
g2
(dp1479
g2
g18
sg19
g20
sg21
I128
ssg19
g23
sg21
I0
ssg19
g18
sg21
I112
ssg19
g20
sg21
I14
ssg19
g18
sg21
I20
ssg19
g22
sg21
I25
ssg19
g23
sg21
I172
ssg19
g23
sg21
I29
ssg19
g23
sg21
I52
ssg19
g22
sg21
I152
ssg19
g20
sg21
I164
ssg19
g22
sg21
I139
ssg19
g23
sg21
I151
ssg19
g23
sg21
I97
ssg19
g18
sg21
I37
ssg19
g20
sg21
I154
sa(dp1480
g2
(dp1481
g2
(dp1482
g2
(dp1483
g2
(dp1484
g2
(dp1485
g2
(dp1486
g2
(dp1487
g2
(dp1488
g2
(dp1489
g2
(dp1490
g2
(dp1491
g2
(dp1492
g2
(dp1493
g2
(dp1494
g2
(dp1495
g2
g23
sg19
g22
sg21
I19
ssg19
g23
sg21
I104
ssg19
g18
sg21
I25
ssg19
g18
sg21
I62
ssg19
g23
sg21
I109
ssg19
g22
sg21
I114
ssg19
g20
sg21
I180
ssg19
g20
sg21
I135
ssg19
g23
sg21
I88
ssg19
g22
sg21
I111
ssg19
g23
sg21
I97
ssg19
g20
sg21
I82
ssg19
g20
sg21
I131
ssg19
g20
sg21
I108
ssg19
g18
sg21
I106
ssg19
g18
sg21
I133
sa(dp1496
g2
(dp1497
g2
(dp1498
g2
(dp1499
g2
(dp1500
g2
(dp1501
g2
(dp1502
g2
(dp1503
g2
(dp1504
g2
(dp1505
g2
(dp1506
g2
(dp1507
g2
(dp1508
g2
(dp1509
g2
(dp1510
g2
(dp1511
g2
g18
sg19
g22
sg21
I136
ssg19
g23
sg21
I0
ssg19
g20
sg21
I35
ssg19
g18
sg21
I48
ssg19
g22
sg21
I89
ssg19
g23
sg21
I73
ssg19
g20
sg21
I146
ssg19
g20
sg21
I133
ssg19
g23
sg21
I122
ssg19
g22
sg21
I88
ssg19
g18
sg21
I31
ssg19
g20
sg21
I128
ssg19
g23
sg21
I80
ssg19
g23
sg21
I55
ssg19
g22
sg21
I119
ssg19
g23
sg21
I103
sa(dp1512
g2
(dp1513
g2
(dp1514
g2
(dp1515
g2
(dp1516
g2
(dp1517
g2
(dp1518
g2
(dp1519
g2
(dp1520
g2
(dp1521
g2
(dp1522
g2
(dp1523
g2
(dp1524
g2
(dp1525
g2
(dp1526
g2
(dp1527
g2
g18
sg19
g23
sg21
I58
ssg19
g20
sg21
I189
ssg19
g22
sg21
I120
ssg19
g22
sg21
I190
ssg19
g20
sg21
I177
ssg19
g23
sg21
I0
ssg19
g18
sg21
I56
ssg19
g22
sg21
I100
ssg19
g20
sg21
I79
ssg19
g23
sg21
I104
ssg19
g22
sg21
I66
ssg19
g23
sg21
I148
ssg19
g22
sg21
I90
ssg19
g22
sg21
I65
ssg19
g18
sg21
I87
ssg19
g18
sg21
I106
sa(dp1528
g2
(dp1529
g2
(dp1530
g2
(dp1531
g2
(dp1532
g2
(dp1533
g2
(dp1534
g2
(dp1535
g2
(dp1536
g2
(dp1537
g2
(dp1538
g2
(dp1539
g2
(dp1540
g2
(dp1541
g2
(dp1542
g2
(dp1543
g2
g20
sg19
g18
sg21
I37
ssg19
g22
sg21
I42
ssg19
g22
sg21
I192
ssg19
g18
sg21
I99
ssg19
g22
sg21
I74
ssg19
g22
sg21
I163
ssg19
g20
sg21
I20
ssg19
g18
sg21
I8
ssg19
g20
sg21
I153
ssg19
g20
sg21
I138
ssg19
g18
sg21
I3
ssg19
g20
sg21
I76
ssg19
g18
sg21
I31
ssg19
g23
sg21
I0
ssg19
g22
sg21
I96
ssg19
g22
sg21
I167
sa(dp1544
g2
(dp1545
g2
(dp1546
g2
(dp1547
g2
(dp1548
g2
(dp1549
g2
(dp1550
g2
(dp1551
g2
(dp1552
g2
(dp1553
g2
(dp1554
g2
(dp1555
g2
(dp1556
g2
(dp1557
g2
(dp1558
g2
(dp1559
g2
g18
sg19
g23
sg21
I169
ssg19
g22
sg21
I37
ssg19
g20
sg21
I136
ssg19
g18
sg21
I191
ssg19
g22
sg21
I31
ssg19
g22
sg21
I81
ssg19
g20
sg21
I168
ssg19
g22
sg21
I96
ssg19
g20
sg21
I177
ssg19
g18
sg21
I9
ssg19
g22
sg21
I64
ssg19
g18
sg21
I91
ssg19
g22
sg21
I34
ssg19
g23
sg21
I0
ssg19
g20
sg21
I67
ssg19
g18
sg21
I46
sa(dp1560
g2
(dp1561
g2
(dp1562
g2
(dp1563
g2
(dp1564
g2
(dp1565
g2
(dp1566
g2
(dp1567
g2
(dp1568
g2
(dp1569
g2
(dp1570
g2
(dp1571
g2
(dp1572
g2
(dp1573
g2
(dp1574
g2
(dp1575
g2
g18
sg19
g20
sg21
I108
ssg19
g22
sg21
I189
ssg19
g22
sg21
I111
ssg19
g20
sg21
I76
ssg19
g20
sg21
I174
ssg19
g18
sg21
I78
ssg19
g23
sg21
I0
ssg19
g22
sg21
I143
ssg19
g18
sg21
I22
ssg19
g20
sg21
I182
ssg19
g23
sg21
I98
ssg19
g23
sg21
I124
ssg19
g20
sg21
I130
ssg19
g18
sg21
I46
ssg19
g18
sg21
I103
ssg19
g23
sg21
I128
sa(dp1576
g2
(dp1577
g2
(dp1578
g2
(dp1579
g2
(dp1580
g2
(dp1581
g2
(dp1582
g2
(dp1583
g2
(dp1584
g2
(dp1585
g2
(dp1586
g2
(dp1587
g2
(dp1588
g2
(dp1589
g2
(dp1590
g2
(dp1591
g2
g20
sg19
g18
sg21
I42
ssg19
g18
sg21
I55
ssg19
g23
sg21
I78
ssg19
g23
sg21
I149
ssg19
g18
sg21
I24
ssg19
g23
sg21
I98
ssg19
g20
sg21
I183
ssg19
g20
sg21
I167
ssg19
g22
sg21
I112
ssg19
g20
sg21
I118
ssg19
g18
sg21
I166
ssg19
g23
sg21
I115
ssg19
g22
sg21
I139
ssg19
g22
sg21
I88
ssg19
g23
sg21
I133
ssg19
g22
sg21
I106
sa(dp1592
g2
(dp1593
g2
(dp1594
g2
(dp1595
g2
(dp1596
g2
(dp1597
g2
(dp1598
g2
(dp1599
g2
(dp1600
g2
(dp1601
g2
(dp1602
g2
(dp1603
g2
(dp1604
g2
(dp1605
g2
(dp1606
g2
(dp1607
g2
g18
sg19
g23
sg21
I169
ssg19
g22
sg21
I114
ssg19
g23
sg21
I22
ssg19
g22
sg21
I41
ssg19
g20
sg21
I34
ssg19
g22
sg21
I173
ssg19
g20
sg21
I150
ssg19
g18
sg21
I72
ssg19
g18
sg21
I82
ssg19
g22
sg21
I143
ssg19
g20
sg21
I179
ssg19
g22
sg21
I14
ssg19
g22
sg21
I21
ssg19
g18
sg21
I6
ssg19
g20
sg21
I101
ssg19
g23
sg21
I0
sa(dp1608
g2
(dp1609
g2
(dp1610
g2
(dp1611
g2
(dp1612
g2
(dp1613
g2
(dp1614
g2
(dp1615
g2
(dp1616
g2
(dp1617
g2
(dp1618
g2
(dp1619
g2
(dp1620
g2
(dp1621
g2
(dp1622
g2
(dp1623
g2
g22
sg19
g23
sg21
I94
ssg19
g23
sg21
I159
ssg19
g23
sg21
I92
ssg19
g18
sg21
I46
ssg19
g20
sg21
I180
ssg19
g18
sg21
I105
ssg19
g20
sg21
I171
ssg19
g18
sg21
I9
ssg19
g20
sg21
I55
ssg19
g20
sg21
I174
ssg19
g20
sg21
I152
ssg19
g22
sg21
I117
ssg19
g18
sg21
I3
ssg19
g20
sg21
I172
ssg19
g23
sg21
I0
ssg19
g18
sg21
I61
sa(dp1624
g2
(dp1625
g2
(dp1626
g2
(dp1627
g2
(dp1628
g2
(dp1629
g2
(dp1630
g2
(dp1631
g2
(dp1632
g2
(dp1633
g2
(dp1634
g2
(dp1635
g2
(dp1636
g2
(dp1637
g2
(dp1638
g2
(dp1639
g2
g20
sg19
g18
sg21
I134
ssg19
g18
sg21
I52
ssg19
g18
sg21
I72
ssg19
g18
sg21
I55
ssg19
g20
sg21
I58
ssg19
g18
sg21
I48
ssg19
g18
sg21
I57
ssg19
g20
sg21
I149
ssg19
g22
sg21
I120
ssg19
g20
sg21
I177
ssg19
g20
sg21
I155
ssg19
g23
sg21
I0
ssg19
g20
sg21
I124
ssg19
g22
sg21
I112
ssg19
g23
sg21
I100
ssg19
g18
sg21
I87
sa(dp1640
g2
(dp1641
g2
(dp1642
g2
(dp1643
g2
(dp1644
g2
(dp1645
g2
(dp1646
g2
(dp1647
g2
(dp1648
g2
(dp1649
g2
(dp1650
g2
(dp1651
g2
(dp1652
g2
(dp1653
g2
(dp1654
g2
(dp1655
g2
g18
sg19
g20
sg21
I135
ssg19
g22
sg21
I63
ssg19
g20
sg21
I129
ssg19
g22
sg21
I120
ssg19
g23
sg21
I191
ssg19
g20
sg21
I177
ssg19
g23
sg21
I145
ssg19
g23
sg21
I78
ssg19
g20
sg21
I164
ssg19
g18
sg21
I15
ssg19
g20
sg21
I114
ssg19
g18
sg21
I66
ssg19
g23
sg21
I108
ssg19
g23
sg21
I104
ssg19
g22
sg21
I72
ssg19
g18
sg21
I86
sa(dp1656
g2
(dp1657
g2
(dp1658
g2
(dp1659
g2
(dp1660
g2
(dp1661
g2
(dp1662
g2
(dp1663
g2
(dp1664
g2
(dp1665
g2
(dp1666
g2
(dp1667
g2
(dp1668
g2
(dp1669
g2
(dp1670
g2
(dp1671
g2
g22
sg19
g18
sg21
I62
ssg19
g22
sg21
I85
ssg19
g22
sg21
I61
ssg19
g18
sg21
I121
ssg19
g20
sg21
I124
ssg19
g18
sg21
I12
ssg19
g18
sg21
I57
ssg19
g18
sg21
I31
ssg19
g18
sg21
I169
ssg19
g20
sg21
I56
ssg19
g23
sg21
I0
ssg19
g22
sg21
I128
ssg19
g20
sg21
I183
ssg19
g23
sg21
I29
ssg19
g22
sg21
I114
ssg19
g22
sg21
I110
sa(dp1672
g2
(dp1673
g2
(dp1674
g2
(dp1675
g2
(dp1676
g2
(dp1677
g2
(dp1678
g2
(dp1679
g2
(dp1680
g2
(dp1681
g2
(dp1682
g2
(dp1683
g2
(dp1684
g2
(dp1685
g2
(dp1686
g2
(dp1687
g2
g20
sg19
g22
sg21
I72
ssg19
g23
sg21
I9
ssg19
g22
sg21
I88
ssg19
g18
sg21
I40
ssg19
g22
sg21
I23
ssg19
g20
sg21
I178
ssg19
g18
sg21
I15
ssg19
g18
sg21
I33
ssg19
g20
sg21
I174
ssg19
g22
sg21
I93
ssg19
g23
sg21
I0
ssg19
g18
sg21
I87
ssg19
g23
sg21
I105
ssg19
g20
sg21
I135
ssg19
g18
sg21
I61
ssg19
g20
sg21
I110
sa(dp1688
g2
(dp1689
g2
(dp1690
g2
(dp1691
g2
(dp1692
g2
(dp1693
g2
(dp1694
g2
(dp1695
g2
(dp1696
g2
(dp1697
g2
(dp1698
g2
(dp1699
g2
(dp1700
g2
(dp1701
g2
(dp1702
g2
(dp1703
g2
g23
sg19
g22
sg21
I96
ssg19
g20
sg21
I164
ssg19
g22
sg21
I93
ssg19
g18
sg21
I172
ssg19
g22
sg21
I118
ssg19
g18
sg21
I5
ssg19
g22
sg21
I68
ssg19
g20
sg21
I95
ssg19
g22
sg21
I154
ssg19
g23
sg21
I179
ssg19
g23
sg21
I77
ssg19
g23
sg21
I4
ssg19
g20
sg21
I148
ssg19
g18
sg21
I85
ssg19
g23
sg21
I178
ssg19
g18
sg21
I64
sa(dp1704
g2
(dp1705
g2
(dp1706
g2
(dp1707
g2
(dp1708
g2
(dp1709
g2
(dp1710
g2
(dp1711
g2
(dp1712
g2
(dp1713
g2
(dp1714
g2
(dp1715
g2
(dp1716
g2
(dp1717
g2
(dp1718
g2
(dp1719
g2
g18
sg19
g23
sg21
I103
ssg19
g20
sg21
I108
ssg19
g22
sg21
I127
ssg19
g23
sg21
I81
ssg19
g20
sg21
I139
ssg19
g18
sg21
I87
ssg19
g22
sg21
I140
ssg19
g18
sg21
I18
ssg19
g23
sg21
I86
ssg19
g23
sg21
I92
ssg19
g20
sg21
I32
ssg19
g23
sg21
I8
ssg19
g20
sg21
I64
ssg19
g22
sg21
I40
ssg19
g18
sg21
I65
ssg19
g20
sg21
I136
sa(dp1720
g2
(dp1721
g2
(dp1722
g2
(dp1723
g2
(dp1724
g2
(dp1725
g2
(dp1726
g2
(dp1727
g2
(dp1728
g2
(dp1729
g2
(dp1730
g2
(dp1731
g2
(dp1732
g2
(dp1733
g2
(dp1734
g2
(dp1735
g2
g20
sg19
g22
sg21
I114
ssg19
g18
sg21
I160
ssg19
g18
sg21
I59
ssg19
g22
sg21
I125
ssg19
g20
sg21
I19
ssg19
g22
sg21
I121
ssg19
g18
sg21
I17
ssg19
g22
sg21
I112
ssg19
g18
sg21
I41
ssg19
g20
sg21
I101
ssg19
g23
sg21
I0
ssg19
g18
sg21
I67
ssg19
g23
sg21
I154
ssg19
g18
sg21
I106
ssg19
g23
sg21
I155
ssg19
g20
sg21
I184
sa(dp1736
g2
(dp1737
g2
(dp1738
g2
(dp1739
g2
(dp1740
g2
(dp1741
g2
(dp1742
g2
(dp1743
g2
(dp1744
g2
(dp1745
g2
(dp1746
g2
(dp1747
g2
(dp1748
g2
(dp1749
g2
(dp1750
g2
(dp1751
g2
g22
sg19
g18
sg21
I109
ssg19
g20
sg21
I67
ssg19
g20
sg21
I126
ssg19
g18
sg21
I63
ssg19
g18
sg21
I18
ssg19
g23
sg21
I158
ssg19
g22
sg21
I19
ssg19
g23
sg21
I102
ssg19
g20
sg21
I83
ssg19
g23
sg21
I152
ssg19
g18
sg21
I190
ssg19
g22
sg21
I160
ssg19
g23
sg21
I176
ssg19
g18
sg21
I133
ssg19
g18
sg21
I38
ssg19
g18
sg21
I22
sa(dp1752
g2
(dp1753
g2
(dp1754
g2
(dp1755
g2
(dp1756
g2
(dp1757
g2
(dp1758
g2
(dp1759
g2
(dp1760
g2
(dp1761
g2
(dp1762
g2
(dp1763
g2
(dp1764
g2
(dp1765
g2
(dp1766
g2
(dp1767
g2
g22
sg19
g20
sg21
I83
ssg19
g18
sg21
I172
ssg19
g22
sg21
I147
ssg19
g22
sg21
I13
ssg19
g20
sg21
I19
ssg19
g18
sg21
I12
ssg19
g20
sg21
I180
ssg19
g20
sg21
I57
ssg19
g22
sg21
I96
ssg19
g22
sg21
I135
ssg19
g18
sg21
I86
ssg19
g20
sg21
I185
ssg19
g20
sg21
I134
ssg19
g23
sg21
I0
ssg19
g18
sg21
I68
ssg19
g23
sg21
I88
sa(dp1768
g2
(dp1769
g2
(dp1770
g2
(dp1771
g2
(dp1772
g2
(dp1773
g2
(dp1774
g2
(dp1775
g2
(dp1776
g2
(dp1777
g2
(dp1778
g2
(dp1779
g2
(dp1780
g2
(dp1781
g2
(dp1782
g2
(dp1783
g2
g20
sg19
g22
sg21
I2
ssg19
g22
sg21
I177
ssg19
g18
sg21
I4
ssg19
g18
sg21
I57
ssg19
g22
sg21
I163
ssg19
g18
sg21
I15
ssg19
g22
sg21
I136
ssg19
g20
sg21
I101
ssg19
g23
sg21
I0
ssg19
g23
sg21
I170
ssg19
g20
sg21
I180
ssg19
g22
sg21
I167
ssg19
g23
sg21
I55
ssg19
g18
sg21
I87
ssg19
g23
sg21
I178
ssg19
g20
sg21
I169
sa(dp1784
g2
(dp1785
g2
(dp1786
g2
(dp1787
g2
(dp1788
g2
(dp1789
g2
(dp1790
g2
(dp1791
g2
(dp1792
g2
(dp1793
g2
(dp1794
g2
(dp1795
g2
(dp1796
g2
(dp1797
g2
(dp1798
g2
(dp1799
g2
g20
sg19
g23
sg21
I98
ssg19
g23
sg21
I160
ssg19
g18
sg21
I169
ssg19
g22
sg21
I97
ssg19
g22
sg21
I88
ssg19
g18
sg21
I30
ssg19
g18
sg21
I63
ssg19
g22
sg21
I24
ssg19
g18
sg21
I66
ssg19
g18
sg21
I94
ssg19
g22
sg21
I144
ssg19
g18
sg21
I12
ssg19
g23
sg21
I0
ssg19
g20
sg21
I157
ssg19
g22
sg21
I109
ssg19
g23
sg21
I84
sa(dp1800
g2
(dp1801
g2
(dp1802
g2
(dp1803
g2
(dp1804
g2
(dp1805
g2
(dp1806
g2
(dp1807
g2
(dp1808
g2
(dp1809
g2
(dp1810
g2
(dp1811
g2
(dp1812
g2
(dp1813
g2
(dp1814
g2
(dp1815
g2
g18
sg19
g22
sg21
I46
ssg19
g20
sg21
I85
ssg19
g18
sg21
I48
ssg19
g22
sg21
I141
ssg19
g20
sg21
I94
ssg19
g20
sg21
I180
ssg19
g23
sg21
I0
ssg19
g18
sg21
I32
ssg19
g23
sg21
I104
ssg19
g22
sg21
I163
ssg19
g23
sg21
I100
ssg19
g23
sg21
I98
ssg19
g20
sg21
I190
ssg19
g23
sg21
I83
ssg19
g23
sg21
I73
ssg19
g23
sg21
I97
sa(dp1816
g2
(dp1817
g2
(dp1818
g2
(dp1819
g2
(dp1820
g2
(dp1821
g2
(dp1822
g2
(dp1823
g2
(dp1824
g2
(dp1825
g2
(dp1826
g2
(dp1827
g2
(dp1828
g2
(dp1829
g2
(dp1830
g2
(dp1831
g2
g18
sg19
g20
sg21
I150
ssg19
g22
sg21
I86
ssg19
g22
sg21
I91
ssg19
g22
sg21
I68
ssg19
g22
sg21
I71
ssg19
g23
sg21
I0
ssg19
g20
sg21
I156
ssg19
g20
sg21
I115
ssg19
g23
sg21
I80
ssg19
g18
sg21
I39
ssg19
g20
sg21
I160
ssg19
g22
sg21
I10
ssg19
g18
sg21
I38
ssg19
g23
sg21
I100
ssg19
g18
sg21
I1
ssg19
g20
sg21
I106
sa(dp1832
g2
(dp1833
g2
(dp1834
g2
(dp1835
g2
(dp1836
g2
(dp1837
g2
(dp1838
g2
(dp1839
g2
(dp1840
g2
(dp1841
g2
(dp1842
g2
(dp1843
g2
(dp1844
g2
(dp1845
g2
(dp1846
g2
(dp1847
g2
g18
sg19
g23
sg21
I91
ssg19
g23
sg21
I107
ssg19
g22
sg21
I145
ssg19
g20
sg21
I176
ssg19
g23
sg21
I101
ssg19
g18
sg21
I35
ssg19
g22
sg21
I52
ssg19
g18
sg21
I31
ssg19
g22
sg21
I89
ssg19
g23
sg21
I125
ssg19
g20
sg21
I134
ssg19
g22
sg21
I70
ssg19
g20
sg21
I110
ssg19
g18
sg21
I59
ssg19
g18
sg21
I16
ssg19
g23
sg21
I56
sa(dp1848
g2
(dp1849
g2
(dp1850
g2
(dp1851
g2
(dp1852
g2
(dp1853
g2
(dp1854
g2
(dp1855
g2
(dp1856
g2
(dp1857
g2
(dp1858
g2
(dp1859
g2
(dp1860
g2
(dp1861
g2
(dp1862
g2
(dp1863
g2
g22
sg19
g20
sg21
I52
ssg19
g20
sg21
I174
ssg19
g18
sg21
I3
ssg19
g22
sg21
I92
ssg19
g18
sg21
I32
ssg19
g20
sg21
I123
ssg19
g20
sg21
I106
ssg19
g22
sg21
I115
ssg19
g20
sg21
I133
ssg19
g23
sg21
I0
ssg19
g22
sg21
I61
ssg19
g18
sg21
I77
ssg19
g20
sg21
I158
ssg19
g18
sg21
I49
ssg19
g23
sg21
I105
ssg19
g18
sg21
I34
sa(dp1864
g2
(dp1865
g2
(dp1866
g2
(dp1867
g2
(dp1868
g2
(dp1869
g2
(dp1870
g2
(dp1871
g2
(dp1872
g2
(dp1873
g2
(dp1874
g2
(dp1875
g2
(dp1876
g2
(dp1877
g2
(dp1878
g2
(dp1879
g2
g20
sg19
g22
sg21
I120
ssg19
g18
sg21
I82
ssg19
g20
sg21
I19
ssg19
g18
sg21
I9
ssg19
g20
sg21
I138
ssg19
g18
sg21
I8
ssg19
g20
sg21
I165
ssg19
g22
sg21
I69
ssg19
g20
sg21
I98
ssg19
g18
sg21
I107
ssg19
g23
sg21
I0
ssg19
g23
sg21
I61
ssg19
g22
sg21
I86
ssg19
g18
sg21
I16
ssg19
g23
sg21
I104
ssg19
g20
sg21
I65
sa(dp1880
g2
(dp1881
g2
(dp1882
g2
(dp1883
g2
(dp1884
g2
(dp1885
g2
(dp1886
g2
(dp1887
g2
(dp1888
g2
(dp1889
g2
(dp1890
g2
(dp1891
g2
(dp1892
g2
(dp1893
g2
(dp1894
g2
(dp1895
g2
g20
sg19
g23
sg21
I37
ssg19
g22
sg21
I47
ssg19
g18
sg21
I66
ssg19
g18
sg21
I45
ssg19
g22
sg21
I182
ssg19
g20
sg21
I76
ssg19
g23
sg21
I105
ssg19
g18
sg21
I40
ssg19
g23
sg21
I104
ssg19
g22
sg21
I17
ssg19
g23
sg21
I173
ssg19
g20
sg21
I170
ssg19
g23
sg21
I28
ssg19
g23
sg21
I149
ssg19
g18
sg21
I15
ssg19
g18
sg21
I87
sa(dp1896
g2
(dp1897
g2
(dp1898
g2
(dp1899
g2
(dp1900
g2
(dp1901
g2
(dp1902
g2
(dp1903
g2
(dp1904
g2
(dp1905
g2
(dp1906
g2
(dp1907
g2
(dp1908
g2
(dp1909
g2
(dp1910
g2
(dp1911
g2
g18
sg19
g22
sg21
I141
ssg19
g23
sg21
I0
ssg19
g18
sg21
I44
ssg19
g23
sg21
I88
ssg19
g23
sg21
I122
ssg19
g20
sg21
I76
ssg19
g20
sg21
I191
ssg19
g22
sg21
I107
ssg19
g18
sg21
I7
ssg19
g22
sg21
I136
ssg19
g18
sg21
I142
ssg19
g23
sg21
I126
ssg19
g20
sg21
I158
ssg19
g18
sg21
I22
ssg19
g22
sg21
I119
ssg19
g18
sg21
I110
sa(dp1912
g2
(dp1913
g2
(dp1914
g2
(dp1915
g2
(dp1916
g2
(dp1917
g2
(dp1918
g2
(dp1919
g2
(dp1920
g2
(dp1921
g2
(dp1922
g2
(dp1923
g2
(dp1924
g2
(dp1925
g2
(dp1926
g2
(dp1927
g2
g18
sg19
g20
sg21
I131
ssg19
g18
sg21
I59
ssg19
g22
sg21
I140
ssg19
g20
sg21
I128
ssg19
g22
sg21
I115
ssg19
g20
sg21
I104
ssg19
g23
sg21
I0
ssg19
g20
sg21
I130
ssg19
g23
sg21
I178
ssg19
g18
sg21
I181
ssg19
g18
sg21
I73
ssg19
g23
sg21
I34
ssg19
g22
sg21
I37
ssg19
g20
sg21
I175
ssg19
g23
sg21
I31
ssg19
g23
sg21
I97
sa(dp1928
g2
(dp1929
g2
(dp1930
g2
(dp1931
g2
(dp1932
g2
(dp1933
g2
(dp1934
g2
(dp1935
g2
(dp1936
g2
(dp1937
g2
(dp1938
g2
(dp1939
g2
(dp1940
g2
(dp1941
g2
(dp1942
g2
(dp1943
g2
g20
sg19
g18
sg21
I36
ssg19
g20
sg21
I20
ssg19
g22
sg21
I41
ssg19
g22
sg21
I84
ssg19
g18
sg21
I176
ssg19
g22
sg21
I49
ssg19
g18
sg21
I44
ssg19
g22
sg21
I164
ssg19
g18
sg21
I179
ssg19
g18
sg21
I34
ssg19
g20
sg21
I131
ssg19
g20
sg21
I149
ssg19
g20
sg21
I121
ssg19
g18
sg21
I76
ssg19
g23
sg21
I0
ssg19
g20
sg21
I108
sa(dp1944
g2
(dp1945
g2
(dp1946
g2
(dp1947
g2
(dp1948
g2
(dp1949
g2
(dp1950
g2
(dp1951
g2
(dp1952
g2
(dp1953
g2
(dp1954
g2
(dp1955
g2
(dp1956
g2
(dp1957
g2
(dp1958
g2
(dp1959
g2
g23
sg19
g18
sg21
I136
ssg19
g20
sg21
I161
ssg19
g18
sg21
I18
ssg19
g20
sg21
I79
ssg19
g22
sg21
I165
ssg19
g22
sg21
I166
ssg19
g20
sg21
I46
ssg19
g20
sg21
I80
ssg19
g20
sg21
I148
ssg19
g22
sg21
I65
ssg19
g18
sg21
I55
ssg19
g18
sg21
I19
ssg19
g22
sg21
I71
ssg19
g23
sg21
I52
ssg19
g20
sg21
I179
ssg19
g23
sg21
I151
sa(dp1960
g2
(dp1961
g2
(dp1962
g2
(dp1963
g2
(dp1964
g2
(dp1965
g2
(dp1966
g2
(dp1967
g2
(dp1968
g2
(dp1969
g2
(dp1970
g2
(dp1971
g2
(dp1972
g2
(dp1973
g2
(dp1974
g2
(dp1975
g2
g23
sg19
g20
sg21
I106
ssg19
g18
sg21
I10
ssg19
g22
sg21
I45
ssg19
g22
sg21
I46
ssg19
g22
sg21
I65
ssg19
g23
sg21
I128
ssg19
g23
sg21
I121
ssg19
g18
sg21
I57
ssg19
g20
sg21
I191
ssg19
g23
sg21
I125
ssg19
g22
sg21
I119
ssg19
g23
sg21
I111
ssg19
g23
sg21
I74
ssg19
g18
sg21
I36
ssg19
g18
sg21
I110
ssg19
g23
sg21
I124
sa(dp1976
g2
(dp1977
g2
(dp1978
g2
(dp1979
g2
(dp1980
g2
(dp1981
g2
(dp1982
g2
(dp1983
g2
(dp1984
g2
(dp1985
g2
(dp1986
g2
(dp1987
g2
(dp1988
g2
(dp1989
g2
(dp1990
g2
(dp1991
g2
g22
sg19
g20
sg21
I176
ssg19
g22
sg21
I93
ssg19
g20
sg21
I190
ssg19
g20
sg21
I174
ssg19
g22
sg21
I35
ssg19
g22
sg21
I27
ssg19
g18
sg21
I17
ssg19
g23
sg21
I0
ssg19
g18
sg21
I46
ssg19
g18
sg21
I109
ssg19
g23
sg21
I30
ssg19
g18
sg21
I114
ssg19
g22
sg21
I86
ssg19
g20
sg21
I135
ssg19
g23
sg21
I84
ssg19
g22
sg21
I22
sa(dp1992
g2
(dp1993
g2
(dp1994
g2
(dp1995
g2
(dp1996
g2
(dp1997
g2
(dp1998
g2
(dp1999
g2
(dp2000
g2
(dp2001
g2
(dp2002
g2
(dp2003
g2
(dp2004
g2
(dp2005
g2
(dp2006
g2
(dp2007
g2
g20
sg19
g18
sg21
I45
ssg19
g18
sg21
I39
ssg19
g23
sg21
I0
ssg19
g22
sg21
I47
ssg19
g22
sg21
I138
ssg19
g18
sg21
I15
ssg19
g18
sg21
I20
ssg19
g20
sg21
I188
ssg19
g23
sg21
I49
ssg19
g18
sg21
I91
ssg19
g20
sg21
I130
ssg19
g18
sg21
I68
ssg19
g18
sg21
I82
ssg19
g20
sg21
I90
ssg19
g22
sg21
I120
ssg19
g23
sg21
I106
sa(dp2008
g2
(dp2009
g2
(dp2010
g2
(dp2011
g2
(dp2012
g2
(dp2013
g2
(dp2014
g2
(dp2015
g2
(dp2016
g2
(dp2017
g2
(dp2018
g2
(dp2019
g2
(dp2020
g2
(dp2021
g2
(dp2022
g2
(dp2023
g2
g23
sg19
g22
sg21
I86
ssg19
g20
sg21
I85
ssg19
g23
sg21
I142
ssg19
g18
sg21
I62
ssg19
g20
sg21
I88
ssg19
g22
sg21
I46
ssg19
g20
sg21
I164
ssg19
g18
sg21
I34
ssg19
g18
sg21
I154
ssg19
g18
sg21
I29
ssg19
g22
sg21
I116
ssg19
g18
sg21
I4
ssg19
g23
sg21
I124
ssg19
g23
sg21
I173
ssg19
g23
sg21
I77
ssg19
g22
sg21
I73
sa(dp2024
g2
(dp2025
g2
(dp2026
g2
(dp2027
g2
(dp2028
g2
(dp2029
g2
(dp2030
g2
(dp2031
g2
(dp2032
g2
(dp2033
g2
(dp2034
g2
(dp2035
g2
(dp2036
g2
(dp2037
g2
(dp2038
g2
(dp2039
g2
g18
sg19
g22
sg21
I189
ssg19
g20
sg21
I66
ssg19
g22
sg21
I192
ssg19
g20
sg21
I177
ssg19
g18
sg21
I170
ssg19
g22
sg21
I37
ssg19
g22
sg21
I156
ssg19
g20
sg21
I158
ssg19
g22
sg21
I70
ssg19
g20
sg21
I138
ssg19
g20
sg21
I181
ssg19
g18
sg21
I5
ssg19
g23
sg21
I0
ssg19
g20
sg21
I82
ssg19
g23
sg21
I25
ssg19
g23
sg21
I111
sa(dp2040
g2
(dp2041
g2
(dp2042
g2
(dp2043
g2
(dp2044
g2
(dp2045
g2
(dp2046
g2
(dp2047
g2
(dp2048
g2
(dp2049
g2
(dp2050
g2
(dp2051
g2
(dp2052
g2
(dp2053
g2
(dp2054
g2
(dp2055
g2
g23
sg19
g18
sg21
I64
ssg19
g22
sg21
I76
ssg19
g20
sg21
I31
ssg19
g18
sg21
I188
ssg19
g23
sg21
I115
ssg19
g18
sg21
I9
ssg19
g20
sg21
I181
ssg19
g23
sg21
I156
ssg19
g23
sg21
I122
ssg19
g22
sg21
I48
ssg19
g18
sg21
I39
ssg19
g18
sg21
I109
ssg19
g20
sg21
I111
ssg19
g23
sg21
I16
ssg19
g18
sg21
I151
ssg19
g20
sg21
I175
sa(dp2056
g2
(dp2057
g2
(dp2058
g2
(dp2059
g2
(dp2060
g2
(dp2061
g2
(dp2062
g2
(dp2063
g2
(dp2064
g2
(dp2065
g2
(dp2066
g2
(dp2067
g2
(dp2068
g2
(dp2069
g2
(dp2070
g2
(dp2071
g2
g18
sg19
g20
sg21
I165
ssg19
g22
sg21
I167
ssg19
g22
sg21
I119
ssg19
g23
sg21
I0
ssg19
g18
sg21
I185
ssg19
g23
sg21
I31
ssg19
g20
sg21
I129
ssg19
g18
sg21
I64
ssg19
g20
sg21
I134
ssg19
g20
sg21
I114
ssg19
g23
sg21
I113
ssg19
g18
sg21
I131
ssg19
g23
sg21
I107
ssg19
g18
sg21
I111
ssg19
g22
sg21
I85
ssg19
g18
sg21
I82
sa(dp2072
g2
(dp2073
g2
(dp2074
g2
(dp2075
g2
(dp2076
g2
(dp2077
g2
(dp2078
g2
(dp2079
g2
(dp2080
g2
(dp2081
g2
(dp2082
g2
(dp2083
g2
(dp2084
g2
(dp2085
g2
(dp2086
g2
(dp2087
g2
g20
sg19
g22
sg21
I24
ssg19
g22
sg21
I58
ssg19
g18
sg21
I18
ssg19
g18
sg21
I43
ssg19
g18
sg21
I82
ssg19
g22
sg21
I60
ssg19
g20
sg21
I45
ssg19
g23
sg21
I0
ssg19
g23
sg21
I41
ssg19
g18
sg21
I44
ssg19
g22
sg21
I92
ssg19
g18
sg21
I36
ssg19
g23
sg21
I66
ssg19
g20
sg21
I57
ssg19
g18
sg21
I67
ssg19
g22
sg21
I89
sa(dp2088
g2
(dp2089
g2
(dp2090
g2
(dp2091
g2
(dp2092
g2
(dp2093
g2
(dp2094
g2
(dp2095
g2
(dp2096
g2
(dp2097
g2
(dp2098
g2
(dp2099
g2
(dp2100
g2
(dp2101
g2
(dp2102
g2
(dp2103
g2
g20
sg19
g22
sg21
I141
ssg19
g18
sg21
I7
ssg19
g18
sg21
I85
ssg19
g20
sg21
I124
ssg19
g22
sg21
I168
ssg19
g23
sg21
I0
ssg19
g22
sg21
I95
ssg19
g18
sg21
I31
ssg19
g18
sg21
I59
ssg19
g23
sg21
I129
ssg19
g18
sg21
I148
ssg19
g20
sg21
I153
ssg19
g23
sg21
I78
ssg19
g23
sg21
I80
ssg19
g20
sg21
I169
ssg19
g18
sg21
I28
sa(dp2104
g2
(dp2105
g2
(dp2106
g2
(dp2107
g2
(dp2108
g2
(dp2109
g2
(dp2110
g2
(dp2111
g2
(dp2112
g2
(dp2113
g2
(dp2114
g2
(dp2115
g2
(dp2116
g2
(dp2117
g2
(dp2118
g2
(dp2119
g2
g18
sg19
g18
sg21
I18
ssg19
g20
sg21
I100
ssg19
g23
sg21
I34
ssg19
g20
sg21
I167
ssg19
g22
sg21
I52
ssg19
g20
sg21
I171
ssg19
g20
sg21
I174
ssg19
g22
sg21
I144
ssg19
g20
sg21
I180
ssg19
g23
sg21
I0
ssg19
g22
sg21
I117
ssg19
g20
sg21
I116
ssg19
g22
sg21
I43
ssg19
g20
sg21
I55
ssg19
g23
sg21
I107
ssg19
g23
sg21
I85
sa(dp2120
g2
(dp2121
g2
(dp2122
g2
(dp2123
g2
(dp2124
g2
(dp2125
g2
(dp2126
g2
(dp2127
g2
(dp2128
g2
(dp2129
g2
(dp2130
g2
(dp2131
g2
(dp2132
g2
(dp2133
g2
(dp2134
g2
(dp2135
g2
g18
sg19
g22
sg21
I7
ssg19
g22
sg21
I167
ssg19
g22
sg21
I59
ssg19
g20
sg21
I64
ssg19
g18
sg21
I17
ssg19
g22
sg21
I110
ssg19
g20
sg21
I173
ssg19
g18
sg21
I51
ssg19
g20
sg21
I123
ssg19
g20
sg21
I99
ssg19
g22
sg21
I184
ssg19
g23
sg21
I0
ssg19
g18
sg21
I23
ssg19
g20
sg21
I107
ssg19
g18
sg21
I95
ssg19
g23
sg21
I131
sa(dp2136
g2
(dp2137
g2
(dp2138
g2
(dp2139
g2
(dp2140
g2
(dp2141
g2
(dp2142
g2
(dp2143
g2
(dp2144
g2
(dp2145
g2
(dp2146
g2
(dp2147
g2
(dp2148
g2
(dp2149
g2
(dp2150
g2
(dp2151
g2
g23
sg19
g22
sg21
I43
ssg19
g22
sg21
I46
ssg19
g20
sg21
I156
ssg19
g20
sg21
I191
ssg19
g18
sg21
I36
ssg19
g20
sg21
I64
ssg19
g22
sg21
I62
ssg19
g23
sg21
I29
ssg19
g23
sg21
I145
ssg19
g18
sg21
I31
ssg19
g20
sg21
I160
ssg19
g20
sg21
I133
ssg19
g18
sg21
I55
ssg19
g18
sg21
I127
ssg19
g20
sg21
I164
ssg19
g18
sg21
I59
sa(dp2152
g2
(dp2153
g2
(dp2154
g2
(dp2155
g2
(dp2156
g2
(dp2157
g2
(dp2158
g2
(dp2159
g2
(dp2160
g2
(dp2161
g2
(dp2162
g2
(dp2163
g2
(dp2164
g2
(dp2165
g2
(dp2166
g2
(dp2167
g2
g18
sg19
g23
sg21
I38
ssg19
g18
sg21
I68
ssg19
g20
sg21
I70
ssg19
g23
sg21
I150
ssg19
g20
sg21
I168
ssg19
g23
sg21
I139
ssg19
g22
sg21
I96
ssg19
g22
sg21
I84
ssg19
g22
sg21
I7
ssg19
g22
sg21
I40
ssg19
g18
sg21
I26
ssg19
g23
sg21
I88
ssg19
g23
sg21
I130
ssg19
g18
sg21
I107
ssg19
g23
sg21
I132
ssg19
g18
sg21
I97
sa(dp2168
g2
(dp2169
g2
(dp2170
g2
(dp2171
g2
(dp2172
g2
(dp2173
g2
(dp2174
g2
(dp2175
g2
(dp2176
g2
(dp2177
g2
(dp2178
g2
(dp2179
g2
(dp2180
g2
(dp2181
g2
(dp2182
g2
(dp2183
g2
g22
sg19
g23
sg21
I43
ssg19
g23
sg21
I20
ssg19
g18
sg21
I71
ssg19
g18
sg21
I67
ssg19
g20
sg21
I119
ssg19
g18
sg21
I9
ssg19
g18
sg21
I75
ssg19
g22
sg21
I164
ssg19
g18
sg21
I7
ssg19
g20
sg21
I171
ssg19
g20
sg21
I152
ssg19
g23
sg21
I0
ssg19
g22
sg21
I76
ssg19
g20
sg21
I97
ssg19
g22
sg21
I89
ssg19
g23
sg21
I73
sa(dp2184
g2
(dp2185
g2
(dp2186
g2
(dp2187
g2
(dp2188
g2
(dp2189
g2
(dp2190
g2
(dp2191
g2
(dp2192
g2
(dp2193
g2
(dp2194
g2
(dp2195
g2
(dp2196
g2
(dp2197
g2
(dp2198
g2
(dp2199
g2
g20
sg19
g18
sg21
I36
ssg19
g22
sg21
I62
ssg19
g22
sg21
I93
ssg19
g22
sg21
I148
ssg19
g20
sg21
I137
ssg19
g23
sg21
I126
ssg19
g20
sg21
I116
ssg19
g23
sg21
I85
ssg19
g18
sg21
I84
ssg19
g22
sg21
I115
ssg19
g20
sg21
I128
ssg19
g20
sg21
I169
ssg19
g18
sg21
I38
ssg19
g18
sg21
I65
ssg19
g22
sg21
I89
ssg19
g22
sg21
I87
sa(dp2200
g2
(dp2201
g2
(dp2202
g2
(dp2203
g2
(dp2204
g2
(dp2205
g2
(dp2206
g2
(dp2207
g2
(dp2208
g2
(dp2209
g2
(dp2210
g2
(dp2211
g2
(dp2212
g2
(dp2213
g2
(dp2214
g2
(dp2215
g2
g22
sg19
g18
sg21
I58
ssg19
g23
sg21
I171
ssg19
g23
sg21
I33
ssg19
g18
sg21
I6
ssg19
g22
sg21
I192
ssg19
g18
sg21
I14
ssg19
g23
sg21
I134
ssg19
g23
sg21
I74
ssg19
g23
sg21
I176
ssg19
g20
sg21
I174
ssg19
g23
sg21
I54
ssg19
g23
sg21
I53
ssg19
g23
sg21
I73
ssg19
g23
sg21
I79
ssg19
g23
sg21
I98
ssg19
g20
sg21
I84
sa(dp2216
g2
(dp2217
g2
(dp2218
g2
(dp2219
g2
(dp2220
g2
(dp2221
g2
(dp2222
g2
(dp2223
g2
(dp2224
g2
(dp2225
g2
(dp2226
g2
(dp2227
g2
(dp2228
g2
(dp2229
g2
(dp2230
g2
(dp2231
g2
g18
sg19
g20
sg21
I135
ssg19
g22
sg21
I46
ssg19
g22
sg21
I120
ssg19
g18
sg21
I42
ssg19
g22
sg21
I68
ssg19
g20
sg21
I179
ssg19
g18
sg21
I4
ssg19
g20
sg21
I187
ssg19
g22
sg21
I114
ssg19
g20
sg21
I176
ssg19
g18
sg21
I80
ssg19
g23
sg21
I0
ssg19
g20
sg21
I55
ssg19
g23
sg21
I54
ssg19
g23
sg21
I110
ssg19
g18
sg21
I56
sa(dp2232
g2
(dp2233
g2
(dp2234
g2
(dp2235
g2
(dp2236
g2
(dp2237
g2
(dp2238
g2
(dp2239
g2
(dp2240
g2
(dp2241
g2
(dp2242
g2
(dp2243
g2
(dp2244
g2
(dp2245
g2
(dp2246
g2
(dp2247
g2
g22
sg19
g23
sg21
I189
ssg19
g20
sg21
I130
ssg19
g20
sg21
I131
ssg19
g22
sg21
I180
ssg19
g20
sg21
I28
ssg19
g18
sg21
I15
ssg19
g22
sg21
I64
ssg19
g18
sg21
I39
ssg19
g18
sg21
I76
ssg19
g18
sg21
I34
ssg19
g20
sg21
I141
ssg19
g22
sg21
I165
ssg19
g18
sg21
I27
ssg19
g20
sg21
I150
ssg19
g23
sg21
I0
ssg19
g23
sg21
I80
sa(dp2248
g2
(dp2249
g2
(dp2250
g2
(dp2251
g2
(dp2252
g2
(dp2253
g2
(dp2254
g2
(dp2255
g2
(dp2256
g2
(dp2257
g2
(dp2258
g2
(dp2259
g2
(dp2260
g2
(dp2261
g2
(dp2262
g2
(dp2263
g2
g18
sg19
g20
sg21
I186
ssg19
g23
sg21
I99
ssg19
g23
sg21
I132
ssg19
g23
sg21
I52
ssg19
g22
sg21
I159
ssg19
g22
sg21
I120
ssg19
g23
sg21
I105
ssg19
g20
sg21
I135
ssg19
g23
sg21
I84
ssg19
g23
sg21
I118
ssg19
g22
sg21
I89
ssg19
g18
sg21
I88
ssg19
g20
sg21
I112
ssg19
g23
sg21
I74
ssg19
g20
sg21
I87
ssg19
g18
sg21
I86
sa(dp2264
g2
(dp2265
g2
(dp2266
g2
(dp2267
g2
(dp2268
g2
(dp2269
g2
(dp2270
g2
(dp2271
g2
(dp2272
g2
(dp2273
g2
(dp2274
g2
(dp2275
g2
(dp2276
g2
(dp2277
g2
(dp2278
g2
(dp2279
g2
g23
sg19
g18
sg21
I24
ssg19
g18
sg21
I16
ssg19
g22
sg21
I92
ssg19
g23
sg21
I78
ssg19
g18
sg21
I84
ssg19
g23
sg21
I79
ssg19
g18
sg21
I155
ssg19
g23
sg21
I107
ssg19
g23
sg21
I105
ssg19
g22
sg21
I186
ssg19
g20
sg21
I162
ssg19
g22
sg21
I88
ssg19
g18
sg21
I55
ssg19
g22
sg21
I137
ssg19
g23
sg21
I83
ssg19
g20
sg21
I131
sa(dp2280
g2
(dp2281
g2
(dp2282
g2
(dp2283
g2
(dp2284
g2
(dp2285
g2
(dp2286
g2
(dp2287
g2
(dp2288
g2
(dp2289
g2
(dp2290
g2
(dp2291
g2
(dp2292
g2
(dp2293
g2
(dp2294
g2
(dp2295
g2
g18
sg19
g23
sg21
I130
ssg19
g20
sg21
I164
ssg19
g23
sg21
I74
ssg19
g22
sg21
I120
ssg19
g22
sg21
I190
ssg19
g22
sg21
I69
ssg19
g18
sg21
I36
ssg19
g23
sg21
I91
ssg19
g22
sg21
I113
ssg19
g20
sg21
I162
ssg19
g18
sg21
I104
ssg19
g23
sg21
I79
ssg19
g20
sg21
I153
ssg19
g18
sg21
I63
ssg19
g22
sg21
I90
ssg19
g18
sg21
I59
sa(dp2296
g2
(dp2297
g2
(dp2298
g2
(dp2299
g2
(dp2300
g2
(dp2301
g2
(dp2302
g2
(dp2303
g2
(dp2304
g2
(dp2305
g2
(dp2306
g2
(dp2307
g2
(dp2308
g2
(dp2309
g2
(dp2310
g2
(dp2311
g2
g20
sg19
g18
sg21
I127
ssg19
g22
sg21
I122
ssg19
g20
sg21
I149
ssg19
g18
sg21
I62
ssg19
g22
sg21
I75
ssg19
g20
sg21
I99
ssg19
g18
sg21
I59
ssg19
g18
sg21
I81
ssg19
g20
sg21
I82
ssg19
g22
sg21
I89
ssg19
g18
sg21
I146
ssg19
g20
sg21
I128
ssg19
g23
sg21
I0
ssg19
g23
sg21
I103
ssg19
g23
sg21
I79
ssg19
g23
sg21
I80
sa(dp2312
g2
(dp2313
g2
(dp2314
g2
(dp2315
g2
(dp2316
g2
(dp2317
g2
(dp2318
g2
(dp2319
g2
(dp2320
g2
(dp2321
g2
(dp2322
g2
(dp2323
g2
(dp2324
g2
(dp2325
g2
(dp2326
g2
(dp2327
g2
g18
sg19
g22
sg21
I98
ssg19
g20
sg21
I63
ssg19
g20
sg21
I155
ssg19
g18
sg21
I109
ssg19
g18
sg21
I18
ssg19
g22
sg21
I34
ssg19
g20
sg21
I103
ssg19
g18
sg21
I16
ssg19
g22
sg21
I71
ssg19
g20
sg21
I4
ssg19
g22
sg21
I68
ssg19
g22
sg21
I80
ssg19
g20
sg21
I29
ssg19
g18
sg21
I53
ssg19
g23
sg21
I0
ssg19
g20
sg21
I83
sa(dp2328
g2
(dp2329
g2
(dp2330
g2
(dp2331
g2
(dp2332
g2
(dp2333
g2
(dp2334
g2
(dp2335
g2
(dp2336
g2
(dp2337
g2
(dp2338
g2
(dp2339
g2
(dp2340
g2
(dp2341
g2
(dp2342
g2
(dp2343
g2
g23
sg19
g22
sg21
I64
ssg19
g22
sg21
I56
ssg19
g20
sg21
I70
ssg19
g23
sg21
I68
ssg19
g18
sg21
I12
ssg19
g23
sg21
I150
ssg19
g20
sg21
I65
ssg19
g22
sg21
I82
ssg19
g22
sg21
I92
ssg19
g20
sg21
I180
ssg19
g18
sg21
I169
ssg19
g20
sg21
I192
ssg19
g22
sg21
I141
ssg19
g18
sg21
I87
ssg19
g23
sg21
I137
ssg19
g20
sg21
I135
sa(dp2344
g2
(dp2345
g2
(dp2346
g2
(dp2347
g2
(dp2348
g2
(dp2349
g2
(dp2350
g2
(dp2351
g2
(dp2352
g2
(dp2353
g2
(dp2354
g2
(dp2355
g2
(dp2356
g2
(dp2357
g2
(dp2358
g2
(dp2359
g2
g18
sg19
g18
sg21
I115
ssg19
g23
sg21
I178
ssg19
g23
sg21
I87
ssg19
g23
sg21
I145
ssg19
g20
sg21
I124
ssg19
g22
sg21
I130
ssg19
g22
sg21
I72
ssg19
g20
sg21
I184
ssg19
g20
sg21
I153
ssg19
g22
sg21
I160
ssg19
g22
sg21
I90
ssg19
g20
sg21
I186
ssg19
g18
sg21
I42
ssg19
g22
sg21
I120
ssg19
g18
sg21
I59
ssg19
g23
sg21
I0
sa(dp2360
g2
(dp2361
g2
(dp2362
g2
(dp2363
g2
(dp2364
g2
(dp2365
g2
(dp2366
g2
(dp2367
g2
(dp2368
g2
(dp2369
g2
(dp2370
g2
(dp2371
g2
(dp2372
g2
(dp2373
g2
(dp2374
g2
(dp2375
g2
g22
sg19
g20
sg21
I68
ssg19
g20
sg21
I181
ssg19
g18
sg21
I128
ssg19
g18
sg21
I71
ssg19
g18
sg21
I93
ssg19
g22
sg21
I144
ssg19
g18
sg21
I3
ssg19
g20
sg21
I129
ssg19
g23
sg21
I0
ssg19
g20
sg21
I191
ssg19
g22
sg21
I46
ssg19
g18
sg21
I1
ssg19
g20
sg21
I145
ssg19
g18
sg21
I83
ssg19
g23
sg21
I86
ssg19
g23
sg21
I101
sa(dp2376
g2
(dp2377
g2
(dp2378
g2
(dp2379
g2
(dp2380
g2
(dp2381
g2
(dp2382
g2
(dp2383
g2
(dp2384
g2
(dp2385
g2
(dp2386
g2
(dp2387
g2
(dp2388
g2
(dp2389
g2
(dp2390
g2
(dp2391
g2
g18
sg19
g23
sg21
I150
ssg19
g20
sg21
I183
ssg19
g23
sg21
I78
ssg19
g20
sg21
I151
ssg19
g23
sg21
I94
ssg19
g20
sg21
I10
ssg19
g23
sg21
I73
ssg19
g23
sg21
I19
ssg19
g20
sg21
I44
ssg19
g18
sg21
I23
ssg19
g20
sg21
I59
ssg19
g22
sg21
I124
ssg19
g23
sg21
I76
ssg19
g18
sg21
I66
ssg19
g20
sg21
I128
ssg19
g18
sg21
I87
sa(dp2392
g2
(dp2393
g2
(dp2394
g2
(dp2395
g2
(dp2396
g2
(dp2397
g2
(dp2398
g2
(dp2399
g2
(dp2400
g2
(dp2401
g2
(dp2402
g2
(dp2403
g2
(dp2404
g2
(dp2405
g2
(dp2406
g2
(dp2407
g2
g20
sg19
g22
sg21
I148
ssg19
g22
sg21
I10
ssg19
g23
sg21
I0
ssg19
g18
sg21
I32
ssg19
g22
sg21
I67
ssg19
g18
sg21
I15
ssg19
g22
sg21
I144
ssg19
g18
sg21
I100
ssg19
g23
sg21
I99
ssg19
g18
sg21
I106
ssg19
g18
sg21
I138
ssg19
g23
sg21
I124
ssg19
g18
sg21
I45
ssg19
g20
sg21
I183
ssg19
g22
sg21
I92
ssg19
g22
sg21
I111
sa(dp2408
g2
(dp2409
g2
(dp2410
g2
(dp2411
g2
(dp2412
g2
(dp2413
g2
(dp2414
g2
(dp2415
g2
(dp2416
g2
(dp2417
g2
(dp2418
g2
(dp2419
g2
(dp2420
g2
(dp2421
g2
(dp2422
g2
(dp2423
g2
g22
sg19
g20
sg21
I99
ssg19
g22
sg21
I23
ssg19
g20
sg21
I76
ssg19
g18
sg21
I151
ssg19
g18
sg21
I42
ssg19
g22
sg21
I173
ssg19
g20
sg21
I185
ssg19
g23
sg21
I0
ssg19
g22
sg21
I44
ssg19
g20
sg21
I62
ssg19
g23
sg21
I118
ssg19
g22
sg21
I142
ssg19
g18
sg21
I16
ssg19
g20
sg21
I61
ssg19
g18
sg21
I31
ssg19
g23
sg21
I130
sa(dp2424
g2
(dp2425
g2
(dp2426
g2
(dp2427
g2
(dp2428
g2
(dp2429
g2
(dp2430
g2
(dp2431
g2
(dp2432
g2
(dp2433
g2
(dp2434
g2
(dp2435
g2
(dp2436
g2
(dp2437
g2
(dp2438
g2
(dp2439
g2
g18
sg19
g20
sg21
I106
ssg19
g22
sg21
I147
ssg19
g22
sg21
I117
ssg19
g22
sg21
I95
ssg19
g18
sg21
I7
ssg19
g22
sg21
I115
ssg19
g23
sg21
I0
ssg19
g20
sg21
I156
ssg19
g20
sg21
I182
ssg19
g23
sg21
I100
ssg19
g23
sg21
I104
ssg19
g23
sg21
I105
ssg19
g20
sg21
I132
ssg19
g22
sg21
I108
ssg19
g23
sg21
I86
ssg19
g18
sg21
I110
sa(dp2440
g2
(dp2441
g2
(dp2442
g2
(dp2443
g2
(dp2444
g2
(dp2445
g2
(dp2446
g2
(dp2447
g2
(dp2448
g2
(dp2449
g2
(dp2450
g2
(dp2451
g2
(dp2452
g2
(dp2453
g2
(dp2454
g2
(dp2455
g2
g20
sg19
g23
sg21
I107
ssg19
g18
sg21
I93
ssg19
g22
sg21
I192
ssg19
g20
sg21
I67
ssg19
g22
sg21
I47
ssg19
g23
sg21
I75
ssg19
g18
sg21
I15
ssg19
g22
sg21
I87
ssg19
g20
sg21
I177
ssg19
g23
sg21
I81
ssg19
g23
sg21
I148
ssg19
g22
sg21
I113
ssg19
g18
sg21
I59
ssg19
g20
sg21
I158
ssg19
g18
sg21
I86
ssg19
g20
sg21
I130
sa(dp2456
g2
(dp2457
g2
(dp2458
g2
(dp2459
g2
(dp2460
g2
(dp2461
g2
(dp2462
g2
(dp2463
g2
(dp2464
g2
(dp2465
g2
(dp2466
g2
(dp2467
g2
(dp2468
g2
(dp2469
g2
(dp2470
g2
(dp2471
g2
g20
sg19
g22
sg21
I90
ssg19
g18
sg21
I36
ssg19
g22
sg21
I61
ssg19
g20
sg21
I150
ssg19
g18
sg21
I33
ssg19
g23
sg21
I0
ssg19
g22
sg21
I140
ssg19
g18
sg21
I43
ssg19
g22
sg21
I94
ssg19
g23
sg21
I25
ssg19
g23
sg21
I130
ssg19
g20
sg21
I58
ssg19
g23
sg21
I34
ssg19
g22
sg21
I91
ssg19
g23
sg21
I28
ssg19
g20
sg21
I137
sa(dp2472
g2
(dp2473
g2
(dp2474
g2
(dp2475
g2
(dp2476
g2
(dp2477
g2
(dp2478
g2
(dp2479
g2
(dp2480
g2
(dp2481
g2
(dp2482
g2
(dp2483
g2
(dp2484
g2
(dp2485
g2
(dp2486
g2
(dp2487
g2
g18
sg19
g22
sg21
I166
ssg19
g18
sg21
I52
ssg19
g20
sg21
I192
ssg19
g20
sg21
I180
ssg19
g20
sg21
I122
ssg19
g22
sg21
I170
ssg19
g22
sg21
I120
ssg19
g18
sg21
I39
ssg19
g20
sg21
I183
ssg19
g20
sg21
I176
ssg19
g18
sg21
I33
ssg19
g23
sg21
I0
ssg19
g23
sg21
I130
ssg19
g20
sg21
I152
ssg19
g22
sg21
I116
ssg19
g18
sg21
I81
sa(dp2488
g2
(dp2489
g2
(dp2490
g2
(dp2491
g2
(dp2492
g2
(dp2493
g2
(dp2494
g2
(dp2495
g2
(dp2496
g2
(dp2497
g2
(dp2498
g2
(dp2499
g2
(dp2500
g2
(dp2501
g2
(dp2502
g2
(dp2503
g2
g23
sg19
g22
sg21
I154
ssg19
g20
sg21
I135
ssg19
g18
sg21
I121
ssg19
g23
sg21
I110
ssg19
g18
sg21
I84
ssg19
g23
sg21
I158
ssg19
g18
sg21
I108
ssg19
g23
sg21
I184
ssg19
g22
sg21
I167
ssg19
g18
sg21
I43
ssg19
g22
sg21
I14
ssg19
g22
sg21
I166
ssg19
g20
sg21
I130
ssg19
g20
sg21
I170
ssg19
g18
sg21
I71
ssg19
g23
sg21
I56
sa(dp2504
g2
(dp2505
g2
(dp2506
g2
(dp2507
g2
(dp2508
g2
(dp2509
g2
(dp2510
g2
(dp2511
g2
(dp2512
g2
(dp2513
g2
(dp2514
g2
(dp2515
g2
(dp2516
g2
(dp2517
g2
(dp2518
g2
(dp2519
g2
g18
sg19
g20
sg21
I186
ssg19
g20
sg21
I92
ssg19
g22
sg21
I168
ssg19
g22
sg21
I72
ssg19
g22
sg21
I64
ssg19
g20
sg21
I119
ssg19
g22
sg21
I157
ssg19
g22
sg21
I110
ssg19
g20
sg21
I147
ssg19
g22
sg21
I191
ssg19
g18
sg21
I32
ssg19
g20
sg21
I145
ssg19
g18
sg21
I56
ssg19
g23
sg21
I0
ssg19
g20
sg21
I108
ssg19
g23
sg21
I83
sa(dp2520
g2
(dp2521
g2
(dp2522
g2
(dp2523
g2
(dp2524
g2
(dp2525
g2
(dp2526
g2
(dp2527
g2
(dp2528
g2
(dp2529
g2
(dp2530
g2
(dp2531
g2
(dp2532
g2
(dp2533
g2
(dp2534
g2
(dp2535
g2
g18
sg19
g18
sg21
I16
ssg19
g20
sg21
I162
ssg19
g20
sg21
I138
ssg19
g23
sg21
I118
ssg19
g23
sg21
I140
ssg19
g22
sg21
I97
ssg19
g23
sg21
I54
ssg19
g18
sg21
I179
ssg19
g23
sg21
I75
ssg19
g20
sg21
I188
ssg19
g18
sg21
I84
ssg19
g22
sg21
I69
ssg19
g18
sg21
I35
ssg19
g20
sg21
I132
ssg19
g18
sg21
I62
ssg19
g18
sg21
I61
sa(dp2536
g2
(dp2537
g2
(dp2538
g2
(dp2539
g2
(dp2540
g2
(dp2541
g2
(dp2542
g2
(dp2543
g2
(dp2544
g2
(dp2545
g2
(dp2546
g2
(dp2547
g2
(dp2548
g2
(dp2549
g2
(dp2550
g2
(dp2551
g2
g23
sg19
g20
sg21
I182
ssg19
g18
sg21
I157
ssg19
g18
sg21
I68
ssg19
g20
sg21
I143
ssg19
g18
sg21
I178
ssg19
g22
sg21
I16
ssg19
g20
sg21
I17
ssg19
g18
sg21
I59
ssg19
g23
sg21
I85
ssg19
g22
sg21
I116
ssg19
g23
sg21
I46
ssg19
g18
sg21
I22
ssg19
g23
sg21
I103
ssg19
g22
sg21
I106
ssg19
g20
sg21
I175
ssg19
g18
sg21
I115
sa(dp2552
g2
(dp2553
g2
(dp2554
g2
(dp2555
g2
(dp2556
g2
(dp2557
g2
(dp2558
g2
(dp2559
g2
(dp2560
g2
(dp2561
g2
(dp2562
g2
(dp2563
g2
(dp2564
g2
(dp2565
g2
(dp2566
g2
(dp2567
g2
g23
sg19
g20
sg21
I80
ssg19
g18
sg21
I53
ssg19
g22
sg21
I111
ssg19
g20
sg21
I126
ssg19
g23
sg21
I30
ssg19
g23
sg21
I29
ssg19
g22
sg21
I112
ssg19
g22
sg21
I45
ssg19
g23
sg21
I79
ssg19
g18
sg21
I12
ssg19
g18
sg21
I107
ssg19
g23
sg21
I149
ssg19
g18
sg21
I64
ssg19
g20
sg21
I158
ssg19
g22
sg21
I160
ssg19
g23
sg21
I28
sa(dp2568
g2
(dp2569
g2
(dp2570
g2
(dp2571
g2
(dp2572
g2
(dp2573
g2
(dp2574
g2
(dp2575
g2
(dp2576
g2
(dp2577
g2
(dp2578
g2
(dp2579
g2
(dp2580
g2
(dp2581
g2
(dp2582
g2
(dp2583
g2
g20
sg19
g23
sg21
I73
ssg19
g18
sg21
I31
ssg19
g18
sg21
I109
ssg19
g22
sg21
I115
ssg19
g20
sg21
I184
ssg19
g18
sg21
I35
ssg19
g22
sg21
I33
ssg19
g22
sg21
I23
ssg19
g18
sg21
I100
ssg19
g22
sg21
I8
ssg19
g18
sg21
I4
ssg19
g18
sg21
I50
ssg19
g18
sg21
I74
ssg19
g20
sg21
I59
ssg19
g23
sg21
I0
ssg19
g23
sg21
I85
sa(dp2584
g2
(dp2585
g2
(dp2586
g2
(dp2587
g2
(dp2588
g2
(dp2589
g2
(dp2590
g2
(dp2591
g2
(dp2592
g2
(dp2593
g2
(dp2594
g2
(dp2595
g2
(dp2596
g2
(dp2597
g2
(dp2598
g2
(dp2599
g2
g22
sg19
g23
sg21
I3
ssg19
g18
sg21
I153
ssg19
g20
sg21
I142
ssg19
g18
sg21
I17
ssg19
g20
sg21
I60
ssg19
g22
sg21
I143
ssg19
g23
sg21
I69
ssg19
g18
sg21
I29
ssg19
g23
sg21
I84
ssg19
g20
sg21
I114
ssg19
g20
sg21
I181
ssg19
g18
sg21
I62
ssg19
g23
sg21
I89
ssg19
g18
sg21
I82
ssg19
g22
sg21
I72
ssg19
g23
sg21
I53
sa(dp2600
g2
(dp2601
g2
(dp2602
g2
(dp2603
g2
(dp2604
g2
(dp2605
g2
(dp2606
g2
(dp2607
g2
(dp2608
g2
(dp2609
g2
(dp2610
g2
(dp2611
g2
(dp2612
g2
(dp2613
g2
(dp2614
g2
(dp2615
g2
g18
sg19
g23
sg21
I0
ssg19
g22
sg21
I174
ssg19
g23
sg21
I75
ssg19
g22
sg21
I72
ssg19
g20
sg21
I10
ssg19
g18
sg21
I17
ssg19
g23
sg21
I136
ssg19
g22
sg21
I140
ssg19
g18
sg21
I65
ssg19
g18
sg21
I127
ssg19
g23
sg21
I125
ssg19
g23
sg21
I98
ssg19
g20
sg21
I180
ssg19
g23
sg21
I105
ssg19
g23
sg21
I107
ssg19
g23
sg21
I122
sa(dp2616
g2
(dp2617
g2
(dp2618
g2
(dp2619
g2
(dp2620
g2
(dp2621
g2
(dp2622
g2
(dp2623
g2
(dp2624
g2
(dp2625
g2
(dp2626
g2
(dp2627
g2
(dp2628
g2
(dp2629
g2
(dp2630
g2
(dp2631
g2
g18
sg19
g22
sg21
I4
ssg19
g22
sg21
I164
ssg19
g20
sg21
I57
ssg19
g18
sg21
I74
ssg19
g22
sg21
I90
ssg19
g22
sg21
I141
ssg19
g18
sg21
I27
ssg19
g20
sg21
I171
ssg19
g18
sg21
I85
ssg19
g23
sg21
I0
ssg19
g20
sg21
I122
ssg19
g18
sg21
I97
ssg19
g20
sg21
I124
ssg19
g20
sg21
I70
ssg19
g23
sg21
I22
ssg19
g23
sg21
I82
sa(dp2632
g2
(dp2633
g2
(dp2634
g2
(dp2635
g2
(dp2636
g2
(dp2637
g2
(dp2638
g2
(dp2639
g2
(dp2640
g2
(dp2641
g2
(dp2642
g2
(dp2643
g2
(dp2644
g2
(dp2645
g2
(dp2646
g2
(dp2647
g2
g18
sg19
g20
sg21
I36
ssg19
g22
sg21
I166
ssg19
g20
sg21
I177
ssg19
g18
sg21
I6
ssg19
g22
sg21
I24
ssg19
g18
sg21
I12
ssg19
g18
sg21
I20
ssg19
g22
sg21
I45
ssg19
g20
sg21
I170
ssg19
g22
sg21
I95
ssg19
g23
sg21
I0
ssg19
g23
sg21
I145
ssg19
g22
sg21
I92
ssg19
g23
sg21
I110
ssg19
g18
sg21
I15
ssg19
g18
sg21
I38
sa(dp2648
g2
(dp2649
g2
(dp2650
g2
(dp2651
g2
(dp2652
g2
(dp2653
g2
(dp2654
g2
(dp2655
g2
(dp2656
g2
(dp2657
g2
(dp2658
g2
(dp2659
g2
(dp2660
g2
(dp2661
g2
(dp2662
g2
(dp2663
g2
g18
sg19
g22
sg21
I100
ssg19
g23
sg21
I75
ssg19
g18
sg21
I115
ssg19
g22
sg21
I138
ssg19
g18
sg21
I34
ssg19
g22
sg21
I96
ssg19
g20
sg21
I176
ssg19
g23
sg21
I79
ssg19
g20
sg21
I131
ssg19
g22
sg21
I20
ssg19
g18
sg21
I58
ssg19
g23
sg21
I57
ssg19
g20
sg21
I13
ssg19
g22
sg21
I88
ssg19
g18
sg21
I19
ssg19
g23
sg21
I106
sa(dp2664
g2
(dp2665
g2
(dp2666
g2
(dp2667
g2
(dp2668
g2
(dp2669
g2
(dp2670
g2
(dp2671
g2
(dp2672
g2
(dp2673
g2
(dp2674
g2
(dp2675
g2
(dp2676
g2
(dp2677
g2
(dp2678
g2
(dp2679
g2
g20
sg19
g22
sg21
I110
ssg19
g18
sg21
I33
ssg19
g22
sg21
I117
ssg19
g23
sg21
I0
ssg19
g20
sg21
I145
ssg19
g22
sg21
I103
ssg19
g18
sg21
I112
ssg19
g22
sg21
I139
ssg19
g18
sg21
I25
ssg19
g20
sg21
I98
ssg19
g18
sg21
I160
ssg19
g18
sg21
I28
ssg19
g20
sg21
I142
ssg19
g22
sg21
I46
ssg19
g23
sg21
I83
ssg19
g20
sg21
I146
sa(dp2680
g2
(dp2681
g2
(dp2682
g2
(dp2683
g2
(dp2684
g2
(dp2685
g2
(dp2686
g2
(dp2687
g2
(dp2688
g2
(dp2689
g2
(dp2690
g2
(dp2691
g2
(dp2692
g2
(dp2693
g2
(dp2694
g2
(dp2695
g2
g20
sg19
g22
sg21
I14
ssg19
g20
sg21
I110
ssg19
g23
sg21
I27
ssg19
g20
sg21
I49
ssg19
g22
sg21
I44
ssg19
g23
sg21
I10
ssg19
g18
sg21
I4
ssg19
g20
sg21
I52
ssg19
g18
sg21
I12
ssg19
g18
sg21
I46
ssg19
g23
sg21
I5
ssg19
g22
sg21
I119
ssg19
g18
sg21
I2
ssg19
g20
sg21
I190
ssg19
g22
sg21
I118
ssg19
g20
sg21
I136
sa(dp2696
g2
(dp2697
g2
(dp2698
g2
(dp2699
g2
(dp2700
g2
(dp2701
g2
(dp2702
g2
(dp2703
g2
(dp2704
g2
(dp2705
g2
(dp2706
g2
(dp2707
g2
(dp2708
g2
(dp2709
g2
(dp2710
g2
(dp2711
g2
g20
sg19
g18
sg21
I107
ssg19
g18
sg21
I61
ssg19
g18
sg21
I115
ssg19
g18
sg21
I163
ssg19
g22
sg21
I69
ssg19
g22
sg21
I67
ssg19
g22
sg21
I17
ssg19
g18
sg21
I21
ssg19
g22
sg21
I116
ssg19
g18
sg21
I71
ssg19
g18
sg21
I66
ssg19
g18
sg21
I50
ssg19
g18
sg21
I11
ssg19
g22
sg21
I120
ssg19
g20
sg21
I134
ssg19
g23
sg21
I0
sa(dp2712
g2
(dp2713
g2
(dp2714
g2
(dp2715
g2
(dp2716
g2
(dp2717
g2
(dp2718
g2
(dp2719
g2
(dp2720
g2
(dp2721
g2
(dp2722
g2
(dp2723
g2
(dp2724
g2
(dp2725
g2
(dp2726
g2
(dp2727
g2
g20
sg19
g18
sg21
I87
ssg19
g22
sg21
I135
ssg19
g22
sg21
I152
ssg19
g20
sg21
I97
ssg19
g23
sg21
I0
ssg19
g23
sg21
I37
ssg19
g20
sg21
I159
ssg19
g22
sg21
I62
ssg19
g23
sg21
I78
ssg19
g18
sg21
I3
ssg19
g23
sg21
I91
ssg19
g23
sg21
I155
ssg19
g18
sg21
I75
ssg19
g23
sg21
I26
ssg19
g20
sg21
I157
ssg19
g23
sg21
I1
sa(dp2728
g2
(dp2729
g2
(dp2730
g2
(dp2731
g2
(dp2732
g2
(dp2733
g2
(dp2734
g2
(dp2735
g2
(dp2736
g2
(dp2737
g2
(dp2738
g2
(dp2739
g2
(dp2740
g2
(dp2741
g2
(dp2742
g2
(dp2743
g2
g20
sg19
g18
sg21
I23
ssg19
g22
sg21
I94
ssg19
g23
sg21
I9
ssg19
g23
sg21
I103
ssg19
g22
sg21
I141
ssg19
g18
sg21
I32
ssg19
g20
sg21
I180
ssg19
g20
sg21
I132
ssg19
g20
sg21
I77
ssg19
g23
sg21
I149
ssg19
g23
sg21
I109
ssg19
g23
sg21
I81
ssg19
g22
sg21
I110
ssg19
g23
sg21
I106
ssg19
g23
sg21
I104
ssg19
g23
sg21
I83
sa(dp2744
g2
(dp2745
g2
(dp2746
g2
(dp2747
g2
(dp2748
g2
(dp2749
g2
(dp2750
g2
(dp2751
g2
(dp2752
g2
(dp2753
g2
(dp2754
g2
(dp2755
g2
(dp2756
g2
(dp2757
g2
(dp2758
g2
(dp2759
g2
g18
sg19
g23
sg21
I115
ssg19
g23
sg21
I155
ssg19
g22
sg21
I128
ssg19
g20
sg21
I174
ssg19
g22
sg21
I72
ssg19
g20
sg21
I123
ssg19
g18
sg21
I54
ssg19
g22
sg21
I143
ssg19
g18
sg21
I5
ssg19
g20
sg21
I173
ssg19
g20
sg21
I4
ssg19
g23
sg21
I0
ssg19
g20
sg21
I130
ssg19
g18
sg21
I46
ssg19
g22
sg21
I157
ssg19
g22
sg21
I118
sa(dp2760
g2
(dp2761
g2
(dp2762
g2
(dp2763
g2
(dp2764
g2
(dp2765
g2
(dp2766
g2
(dp2767
g2
(dp2768
g2
(dp2769
g2
(dp2770
g2
(dp2771
g2
(dp2772
g2
(dp2773
g2
(dp2774
g2
(dp2775
g2
g20
sg19
g23
sg21
I54
ssg19
g22
sg21
I69
ssg19
g23
sg21
I78
ssg19
g18
sg21
I36
ssg19
g20
sg21
I182
ssg19
g20
sg21
I155
ssg19
g18
sg21
I63
ssg19
g18
sg21
I181
ssg19
g22
sg21
I116
ssg19
g20
sg21
I157
ssg19
g18
sg21
I34
ssg19
g23
sg21
I55
ssg19
g23
sg21
I64
ssg19
g23
sg21
I84
ssg19
g23
sg21
I37
ssg19
g23
sg21
I57
sa(dp2776
g2
(dp2777
g2
(dp2778
g2
(dp2779
g2
(dp2780
g2
(dp2781
g2
(dp2782
g2
(dp2783
g2
(dp2784
g2
(dp2785
g2
(dp2786
g2
(dp2787
g2
(dp2788
g2
(dp2789
g2
(dp2790
g2
(dp2791
g2
g20
sg19
g22
sg21
I65
ssg19
g18
sg21
I59
ssg19
g20
sg21
I2
ssg19
g22
sg21
I163
ssg19
g18
sg21
I18
ssg19
g22
sg21
I155
ssg19
g23
sg21
I176
ssg19
g20
sg21
I131
ssg19
g18
sg21
I32
ssg19
g22
sg21
I17
ssg19
g20
sg21
I145
ssg19
g23
sg21
I73
ssg19
g20
sg21
I167
ssg19
g23
sg21
I104
ssg19
g18
sg21
I166
ssg19
g18
sg21
I13
sa(dp2792
g2
(dp2793
g2
(dp2794
g2
(dp2795
g2
(dp2796
g2
(dp2797
g2
(dp2798
g2
(dp2799
g2
(dp2800
g2
(dp2801
g2
(dp2802
g2
(dp2803
g2
(dp2804
g2
(dp2805
g2
(dp2806
g2
(dp2807
g2
g22
sg19
g23
sg21
I46
ssg19
g20
sg21
I56
ssg19
g18
sg21
I6
ssg19
g22
sg21
I189
ssg19
g20
sg21
I165
ssg19
g22
sg21
I127
ssg19
g22
sg21
I97
ssg19
g23
sg21
I47
ssg19
g20
sg21
I174
ssg19
g18
sg21
I145
ssg19
g18
sg21
I38
ssg19
g23
sg21
I99
ssg19
g22
sg21
I140
ssg19
g18
sg21
I104
ssg19
g23
sg21
I133
ssg19
g18
sg21
I151
sa(dp2808
g2
(dp2809
g2
(dp2810
g2
(dp2811
g2
(dp2812
g2
(dp2813
g2
(dp2814
g2
(dp2815
g2
(dp2816
g2
(dp2817
g2
(dp2818
g2
(dp2819
g2
(dp2820
g2
(dp2821
g2
(dp2822
g2
(dp2823
g2
g20
sg19
g22
sg21
I34
ssg19
g22
sg21
I103
ssg19
g18
sg21
I59
ssg19
g22
sg21
I19
ssg19
g18
sg21
I40
ssg19
g22
sg21
I85
ssg19
g22
sg21
I41
ssg19
g18
sg21
I6
ssg19
g23
sg21
I0
ssg19
g20
sg21
I161
ssg19
g22
sg21
I16
ssg19
g18
sg21
I11
ssg19
g20
sg21
I142
ssg19
g23
sg21
I26
ssg19
g22
sg21
I118
ssg19
g20
sg21
I109
sa(dp2824
g2
(dp2825
g2
(dp2826
g2
(dp2827
g2
(dp2828
g2
(dp2829
g2
(dp2830
g2
(dp2831
g2
(dp2832
g2
(dp2833
g2
(dp2834
g2
(dp2835
g2
(dp2836
g2
(dp2837
g2
(dp2838
g2
(dp2839
g2
g20
sg19
g22
sg21
I127
ssg19
g23
sg21
I0
ssg19
g18
sg21
I30
ssg19
g20
sg21
I98
ssg19
g22
sg21
I90
ssg19
g23
sg21
I83
ssg19
g23
sg21
I94
ssg19
g18
sg21
I71
ssg19
g20
sg21
I43
ssg19
g22
sg21
I108
ssg19
g18
sg21
I50
ssg19
g20
sg21
I107
ssg19
g23
sg21
I5
ssg19
g18
sg21
I19
ssg19
g20
sg21
I143
ssg19
g18
sg21
I25
sa(dp2840
g2
(dp2841
g2
(dp2842
g2
(dp2843
g2
(dp2844
g2
(dp2845
g2
(dp2846
g2
(dp2847
g2
(dp2848
g2
(dp2849
g2
(dp2850
g2
(dp2851
g2
(dp2852
g2
(dp2853
g2
(dp2854
g2
(dp2855
g2
g18
sg19
g23
sg21
I181
ssg19
g20
sg21
I182
ssg19
g20
sg21
I76
ssg19
g18
sg21
I160
ssg19
g22
sg21
I143
ssg19
g20
sg21
I173
ssg19
g18
sg21
I68
ssg19
g20
sg21
I190
ssg19
g22
sg21
I96
ssg19
g22
sg21
I162
ssg19
g23
sg21
I0
ssg19
g22
sg21
I22
ssg19
g18
sg21
I4
ssg19
g18
sg21
I11
ssg19
g18
sg21
I7
ssg19
g20
sg21
I159
sa(dp2856
g2
(dp2857
g2
(dp2858
g2
(dp2859
g2
(dp2860
g2
(dp2861
g2
(dp2862
g2
(dp2863
g2
(dp2864
g2
(dp2865
g2
(dp2866
g2
(dp2867
g2
(dp2868
g2
(dp2869
g2
(dp2870
g2
(dp2871
g2
g18
sg19
g22
sg21
I164
ssg19
g22
sg21
I96
ssg19
g20
sg21
I184
ssg19
g20
sg21
I130
ssg19
g22
sg21
I99
ssg19
g20
sg21
I152
ssg19
g18
sg21
I18
ssg19
g22
sg21
I72
ssg19
g20
sg21
I114
ssg19
g22
sg21
I93
ssg19
g20
sg21
I150
ssg19
g22
sg21
I82
ssg19
g20
sg21
I131
ssg19
g18
sg21
I33
ssg19
g23
sg21
I0
ssg19
g22
sg21
I85
sa(dp2872
g2
(dp2873
g2
(dp2874
g2
(dp2875
g2
(dp2876
g2
(dp2877
g2
(dp2878
g2
(dp2879
g2
(dp2880
g2
(dp2881
g2
(dp2882
g2
(dp2883
g2
(dp2884
g2
(dp2885
g2
(dp2886
g2
(dp2887
g2
g20
sg19
g23
sg21
I2
ssg19
g22
sg21
I155
ssg19
g20
sg21
I165
ssg19
g22
sg21
I182
ssg19
g23
sg21
I14
ssg19
g18
sg21
I44
ssg19
g18
sg21
I68
ssg19
g18
sg21
I64
ssg19
g18
sg21
I184
ssg19
g20
sg21
I152
ssg19
g23
sg21
I67
ssg19
g18
sg21
I89
ssg19
g18
sg21
I116
ssg19
g20
sg21
I132
ssg19
g18
sg21
I71
ssg19
g20
sg21
I137
sa(dp2888
g2
(dp2889
g2
(dp2890
g2
(dp2891
g2
(dp2892
g2
(dp2893
g2
(dp2894
g2
(dp2895
g2
(dp2896
g2
(dp2897
g2
(dp2898
g2
(dp2899
g2
(dp2900
g2
(dp2901
g2
(dp2902
g2
(dp2903
g2
g20
sg19
g23
sg21
I98
ssg19
g18
sg21
I14
ssg19
g20
sg21
I176
ssg19
g22
sg21
I132
ssg19
g18
sg21
I81
ssg19
g22
sg21
I90
ssg19
g18
sg21
I68
ssg19
g22
sg21
I119
ssg19
g18
sg21
I76
ssg19
g23
sg21
I0
ssg19
g18
sg21
I38
ssg19
g22
sg21
I37
ssg19
g18
sg21
I61
ssg19
g22
sg21
I135
ssg19
g23
sg21
I58
ssg19
g22
sg21
I55
sa(dp2904
g2
(dp2905
g2
(dp2906
g2
(dp2907
g2
(dp2908
g2
(dp2909
g2
(dp2910
g2
(dp2911
g2
(dp2912
g2
(dp2913
g2
(dp2914
g2
(dp2915
g2
(dp2916
g2
(dp2917
g2
(dp2918
g2
(dp2919
g2
g20
sg19
g22
sg21
I4
ssg19
g18
sg21
I132
ssg19
g20
sg21
I150
ssg19
g18
sg21
I26
ssg19
g23
sg21
I0
ssg19
g20
sg21
I159
ssg19
g22
sg21
I142
ssg19
g22
sg21
I24
ssg19
g22
sg21
I90
ssg19
g18
sg21
I12
ssg19
g23
sg21
I102
ssg19
g23
sg21
I101
ssg19
g23
sg21
I85
ssg19
g20
sg21
I158
ssg19
g23
sg21
I79
ssg19
g23
sg21
I106
sa(dp2920
g2
(dp2921
g2
(dp2922
g2
(dp2923
g2
(dp2924
g2
(dp2925
g2
(dp2926
g2
(dp2927
g2
(dp2928
g2
(dp2929
g2
(dp2930
g2
(dp2931
g2
(dp2932
g2
(dp2933
g2
(dp2934
g2
(dp2935
g2
g20
sg19
g22
sg21
I167
ssg19
g18
sg21
I38
ssg19
g22
sg21
I25
ssg19
g20
sg21
I147
ssg19
g18
sg21
I12
ssg19
g23
sg21
I123
ssg19
g20
sg21
I156
ssg19
g22
sg21
I93
ssg19
g20
sg21
I158
ssg19
g18
sg21
I57
ssg19
g23
sg21
I102
ssg19
g23
sg21
I105
ssg19
g18
sg21
I59
ssg19
g18
sg21
I62
ssg19
g23
sg21
I101
ssg19
g20
sg21
I111
sa(dp2936
g2
(dp2937
g2
(dp2938
g2
(dp2939
g2
(dp2940
g2
(dp2941
g2
(dp2942
g2
(dp2943
g2
(dp2944
g2
(dp2945
g2
(dp2946
g2
(dp2947
g2
(dp2948
g2
(dp2949
g2
(dp2950
g2
(dp2951
g2
g20
sg19
g18
sg21
I145
ssg19
g22
sg21
I60
ssg19
g22
sg21
I112
ssg19
g18
sg21
I147
ssg19
g23
sg21
I0
ssg19
g20
sg21
I151
ssg19
g22
sg21
I37
ssg19
g20
sg21
I100
ssg19
g23
sg21
I74
ssg19
g20
sg21
I22
ssg19
g22
sg21
I23
ssg19
g22
sg21
I43
ssg19
g18
sg21
I84
ssg19
g23
sg21
I178
ssg19
g20
sg21
I158
ssg19
g20
sg21
I182
sa(dp2952
g2
(dp2953
g2
(dp2954
g2
(dp2955
g2
(dp2956
g2
(dp2957
g2
(dp2958
g2
(dp2959
g2
(dp2960
g2
(dp2961
g2
(dp2962
g2
(dp2963
g2
(dp2964
g2
(dp2965
g2
(dp2966
g2
(dp2967
g2
g18
sg19
g23
sg21
I166
ssg19
g20
sg21
I140
ssg19
g22
sg21
I135
ssg19
g22
sg21
I41
ssg19
g23
sg21
I176
ssg19
g20
sg21
I188
ssg19
g18
sg21
I114
ssg19
g23
sg21
I147
ssg19
g18
sg21
I95
ssg19
g23
sg21
I111
ssg19
g18
sg21
I9
ssg19
g23
sg21
I129
ssg19
g18
sg21
I155
ssg19
g23
sg21
I156
ssg19
g18
sg21
I35
ssg19
g22
sg21
I71
sa(dp2968
g2
(dp2969
g2
(dp2970
g2
(dp2971
g2
(dp2972
g2
(dp2973
g2
(dp2974
g2
(dp2975
g2
(dp2976
g2
(dp2977
g2
(dp2978
g2
(dp2979
g2
(dp2980
g2
(dp2981
g2
(dp2982
g2
(dp2983
g2
g23
sg19
g18
sg21
I54
ssg19
g23
sg21
I173
ssg19
g22
sg21
I117
ssg19
g18
sg21
I28
ssg19
g20
sg21
I123
ssg19
g22
sg21
I109
ssg19
g23
sg21
I77
ssg19
g22
sg21
I181
ssg19
g22
sg21
I43
ssg19
g18
sg21
I37
ssg19
g18
sg21
I23
ssg19
g18
sg21
I106
ssg19
g20
sg21
I104
ssg19
g23
sg21
I128
ssg19
g20
sg21
I156
ssg19
g18
sg21
I121
sa(dp2984
g2
(dp2985
g2
(dp2986
g2
(dp2987
g2
(dp2988
g2
(dp2989
g2
(dp2990
g2
(dp2991
g2
(dp2992
g2
(dp2993
g2
(dp2994
g2
(dp2995
g2
(dp2996
g2
(dp2997
g2
(dp2998
g2
(dp2999
g2
g23
sg19
g20
sg21
I69
ssg19
g18
sg21
I60
ssg19
g20
sg21
I181
ssg19
g22
sg21
I111
ssg19
g22
sg21
I93
ssg19
g23
sg21
I130
ssg19
g23
sg21
I30
ssg19
g18
sg21
I12
ssg19
g20
sg21
I135
ssg19
g18
sg21
I10
ssg19
g18
sg21
I35
ssg19
g20
sg21
I146
ssg19
g23
sg21
I98
ssg19
g22
sg21
I112
ssg19
g20
sg21
I118
ssg19
g22
sg21
I94
sa(dp3000
g2
(dp3001
g2
(dp3002
g2
(dp3003
g2
(dp3004
g2
(dp3005
g2
(dp3006
g2
(dp3007
g2
(dp3008
g2
(dp3009
g2
(dp3010
g2
(dp3011
g2
(dp3012
g2
(dp3013
g2
(dp3014
g2
(dp3015
g2
g23
sg19
g22
sg21
I100
ssg19
g18
sg21
I44
ssg19
g20
sg21
I138
ssg19
g18
sg21
I6
ssg19
g22
sg21
I118
ssg19
g22
sg21
I23
ssg19
g23
sg21
I102
ssg19
g20
sg21
I34
ssg19
g18
sg21
I41
ssg19
g20
sg21
I132
ssg19
g18
sg21
I35
ssg19
g23
sg21
I80
ssg19
g20
sg21
I87
ssg19
g23
sg21
I67
ssg19
g18
sg21
I62
ssg19
g22
sg21
I88
sa(dp3016
g2
(dp3017
g2
(dp3018
g2
(dp3019
g2
(dp3020
g2
(dp3021
g2
(dp3022
g2
(dp3023
g2
(dp3024
g2
(dp3025
g2
(dp3026
g2
(dp3027
g2
(dp3028
g2
(dp3029
g2
(dp3030
g2
(dp3031
g2
g18
sg19
g22
sg21
I128
ssg19
g20
sg21
I84
ssg19
g22
sg21
I45
ssg19
g20
sg21
I119
ssg19
g22
sg21
I96
ssg19
g22
sg21
I167
ssg19
g22
sg21
I90
ssg19
g20
sg21
I174
ssg19
g22
sg21
I89
ssg19
g20
sg21
I150
ssg19
g18
sg21
I33
ssg19
g20
sg21
I152
ssg19
g22
sg21
I50
ssg19
g23
sg21
I0
ssg19
g23
sg21
I28
ssg19
g18
sg21
I38
sa(dp3032
g2
(dp3033
g2
(dp3034
g2
(dp3035
g2
(dp3036
g2
(dp3037
g2
(dp3038
g2
(dp3039
g2
(dp3040
g2
(dp3041
g2
(dp3042
g2
(dp3043
g2
(dp3044
g2
(dp3045
g2
(dp3046
g2
(dp3047
g2
g18
sg19
g22
sg21
I69
ssg19
g22
sg21
I126
ssg19
g23
sg21
I0
ssg19
g23
sg21
I56
ssg19
g23
sg21
I26
ssg19
g20
sg21
I58
ssg19
g23
sg21
I72
ssg19
g18
sg21
I24
ssg19
g18
sg21
I8
ssg19
g22
sg21
I167
ssg19
g18
sg21
I7
ssg19
g20
sg21
I141
ssg19
g23
sg21
I117
ssg19
g22
sg21
I120
ssg19
g20
sg21
I107
ssg19
g18
sg21
I131
sa(dp3048
g2
(dp3049
g2
(dp3050
g2
(dp3051
g2
(dp3052
g2
(dp3053
g2
(dp3054
g2
(dp3055
g2
(dp3056
g2
(dp3057
g2
(dp3058
g2
(dp3059
g2
(dp3060
g2
(dp3061
g2
(dp3062
g2
(dp3063
g2
g20
sg19
g18
sg21
I21
ssg19
g22
sg21
I165
ssg19
g22
sg21
I107
ssg19
g18
sg21
I34
ssg19
g20
sg21
I10
ssg19
g22
sg21
I121
ssg19
g22
sg21
I42
ssg19
g20
sg21
I174
ssg19
g22
sg21
I50
ssg19
g18
sg21
I12
ssg19
g23
sg21
I0
ssg19
g20
sg21
I110
ssg19
g22
sg21
I116
ssg19
g23
sg21
I154
ssg19
g23
sg21
I52
ssg19
g23
sg21
I1
sa(dp3064
g2
(dp3065
g2
(dp3066
g2
(dp3067
g2
(dp3068
g2
(dp3069
g2
(dp3070
g2
(dp3071
g2
(dp3072
g2
(dp3073
g2
(dp3074
g2
(dp3075
g2
(dp3076
g2
(dp3077
g2
(dp3078
g2
(dp3079
g2
g18
sg19
g23
sg21
I30
ssg19
g22
sg21
I93
ssg19
g23
sg21
I46
ssg19
g20
sg21
I35
ssg19
g18
sg21
I18
ssg19
g20
sg21
I138
ssg19
g23
sg21
I108
ssg19
g18
sg21
I87
ssg19
g18
sg21
I3
ssg19
g22
sg21
I125
ssg19
g22
sg21
I119
ssg19
g23
sg21
I51
ssg19
g20
sg21
I174
ssg19
g22
sg21
I65
ssg19
g20
sg21
I135
ssg19
g23
sg21
I172
sa(dp3080
g2
(dp3081
g2
(dp3082
g2
(dp3083
g2
(dp3084
g2
(dp3085
g2
(dp3086
g2
(dp3087
g2
(dp3088
g2
(dp3089
g2
(dp3090
g2
(dp3091
g2
(dp3092
g2
(dp3093
g2
(dp3094
g2
(dp3095
g2
g18
sg19
g22
sg21
I103
ssg19
g20
sg21
I150
ssg19
g22
sg21
I88
ssg19
g18
sg21
I30
ssg19
g20
sg21
I177
ssg19
g22
sg21
I143
ssg19
g20
sg21
I176
ssg19
g18
sg21
I52
ssg19
g23
sg21
I0
ssg19
g18
sg21
I10
ssg19
g23
sg21
I1
ssg19
g22
sg21
I114
ssg19
g20
sg21
I184
ssg19
g18
sg21
I111
ssg19
g20
sg21
I160
ssg19
g23
sg21
I65
sa(dp3096
g2
(dp3097
g2
(dp3098
g2
(dp3099
g2
(dp3100
g2
(dp3101
g2
(dp3102
g2
(dp3103
g2
(dp3104
g2
(dp3105
g2
(dp3106
g2
(dp3107
g2
(dp3108
g2
(dp3109
g2
(dp3110
g2
(dp3111
g2
g18
sg19
g20
sg21
I156
ssg19
g22
sg21
I140
ssg19
g22
sg21
I130
ssg19
g20
sg21
I150
ssg19
g22
sg21
I38
ssg19
g22
sg21
I47
ssg19
g18
sg21
I62
ssg19
g22
sg21
I46
ssg19
g22
sg21
I56
ssg19
g18
sg21
I44
ssg19
g22
sg21
I67
ssg19
g18
sg21
I32
ssg19
g23
sg21
I0
ssg19
g20
sg21
I158
ssg19
g23
sg21
I4
ssg19
g22
sg21
I142
sa(dp3112
g2
(dp3113
g2
(dp3114
g2
(dp3115
g2
(dp3116
g2
(dp3117
g2
(dp3118
g2
(dp3119
g2
(dp3120
g2
(dp3121
g2
(dp3122
g2
(dp3123
g2
(dp3124
g2
(dp3125
g2
(dp3126
g2
(dp3127
g2
g23
sg19
g22
sg21
I186
ssg19
g20
sg21
I40
ssg19
g18
sg21
I15
ssg19
g23
sg21
I8
ssg19
g18
sg21
I127
ssg19
g23
sg21
I98
ssg19
g23
sg21
I73
ssg19
g18
sg21
I85
ssg19
g23
sg21
I159
ssg19
g22
sg21
I191
ssg19
g18
sg21
I178
ssg19
g20
sg21
I149
ssg19
g20
sg21
I124
ssg19
g20
sg21
I172
ssg19
g23
sg21
I32
ssg19
g23
sg21
I100
sa(dp3128
g2
(dp3129
g2
(dp3130
g2
(dp3131
g2
(dp3132
g2
(dp3133
g2
(dp3134
g2
(dp3135
g2
(dp3136
g2
(dp3137
g2
(dp3138
g2
(dp3139
g2
(dp3140
g2
(dp3141
g2
(dp3142
g2
(dp3143
g2
g18
sg19
g23
sg21
I0
ssg19
g20
sg21
I183
ssg19
g20
sg21
I169
ssg19
g22
sg21
I96
ssg19
g18
sg21
I26
ssg19
g22
sg21
I137
ssg19
g23
sg21
I71
ssg19
g22
sg21
I119
ssg19
g18
sg21
I76
ssg19
g23
sg21
I54
ssg19
g23
sg21
I77
ssg19
g22
sg21
I46
ssg19
g18
sg21
I19
ssg19
g20
sg21
I136
ssg19
g23
sg21
I104
ssg19
g22
sg21
I115
sa(dp3144
g2
(dp3145
g2
(dp3146
g2
(dp3147
g2
(dp3148
g2
(dp3149
g2
(dp3150
g2
(dp3151
g2
(dp3152
g2
(dp3153
g2
(dp3154
g2
(dp3155
g2
(dp3156
g2
(dp3157
g2
(dp3158
g2
(dp3159
g2
g18
sg19
g22
sg21
I30
ssg19
g20
sg21
I45
ssg19
g22
sg21
I178
ssg19
g20
sg21
I136
ssg19
g22
sg21
I94
ssg19
g18
sg21
I52
ssg19
g18
sg21
I3
ssg19
g20
sg21
I174
ssg19
g18
sg21
I188
ssg19
g20
sg21
I176
ssg19
g18
sg21
I51
ssg19
g20
sg21
I155
ssg19
g18
sg21
I38
ssg19
g23
sg21
I0
ssg19
g22
sg21
I120
ssg19
g22
sg21
I114
sa(dp3160
g2
(dp3161
g2
(dp3162
g2
(dp3163
g2
(dp3164
g2
(dp3165
g2
(dp3166
g2
(dp3167
g2
(dp3168
g2
(dp3169
g2
(dp3170
g2
(dp3171
g2
(dp3172
g2
(dp3173
g2
(dp3174
g2
(dp3175
g2
g22
sg19
g18
sg21
I59
ssg19
g23
sg21
I105
ssg19
g22
sg21
I52
ssg19
g18
sg21
I74
ssg19
g22
sg21
I143
ssg19
g20
sg21
I94
ssg19
g18
sg21
I98
ssg19
g22
sg21
I133
ssg19
g18
sg21
I28
ssg19
g18
sg21
I25
ssg19
g18
sg21
I70
ssg19
g20
sg21
I145
ssg19
g20
sg21
I122
ssg19
g18
sg21
I1
ssg19
g23
sg21
I49
ssg19
g20
sg21
I118
sa(dp3176
g2
(dp3177
g2
(dp3178
g2
(dp3179
g2
(dp3180
g2
(dp3181
g2
(dp3182
g2
(dp3183
g2
(dp3184
g2
(dp3185
g2
(dp3186
g2
(dp3187
g2
(dp3188
g2
(dp3189
g2
(dp3190
g2
(dp3191
g2
g23
sg19
g18
sg21
I8
ssg19
g22
sg21
I120
ssg19
g18
sg21
I65
ssg19
g20
sg21
I122
ssg19
g23
sg21
I119
ssg19
g20
sg21
I22
ssg19
g23
sg21
I74
ssg19
g20
sg21
I35
ssg19
g18
sg21
I38
ssg19
g22
sg21
I113
ssg19
g20
sg21
I127
ssg19
g22
sg21
I70
ssg19
g20
sg21
I86
ssg19
g20
sg21
I109
ssg19
g23
sg21
I110
ssg19
g22
sg21
I114
sa(dp3192
g2
(dp3193
g2
(dp3194
g2
(dp3195
g2
(dp3196
g2
(dp3197
g2
(dp3198
g2
(dp3199
g2
(dp3200
g2
(dp3201
g2
(dp3202
g2
(dp3203
g2
(dp3204
g2
(dp3205
g2
(dp3206
g2
(dp3207
g2
g18
sg19
g20
sg21
I104
ssg19
g20
sg21
I192
ssg19
g22
sg21
I8
ssg19
g18
sg21
I179
ssg19
g18
sg21
I21
ssg19
g22
sg21
I23
ssg19
g22
sg21
I73
ssg19
g20
sg21
I171
ssg19
g20
sg21
I106
ssg19
g23
sg21
I0
ssg19
g22
sg21
I160
ssg19
g23
sg21
I84
ssg19
g20
sg21
I163
ssg19
g22
sg21
I34
ssg19
g23
sg21
I172
ssg19
g18
sg21
I85
sa(dp3208
g2
(dp3209
g2
(dp3210
g2
(dp3211
g2
(dp3212
g2
(dp3213
g2
(dp3214
g2
(dp3215
g2
(dp3216
g2
(dp3217
g2
(dp3218
g2
(dp3219
g2
(dp3220
g2
(dp3221
g2
(dp3222
g2
(dp3223
g2
g18
sg19
g23
sg21
I0
ssg19
g23
sg21
I75
ssg19
g23
sg21
I32
ssg19
g20
sg21
I153
ssg19
g23
sg21
I122
ssg19
g22
sg21
I66
ssg19
g23
sg21
I146
ssg19
g18
sg21
I89
ssg19
g23
sg21
I173
ssg19
g20
sg21
I137
ssg19
g22
sg21
I37
ssg19
g18
sg21
I87
ssg19
g18
sg21
I113
ssg19
g20
sg21
I65
ssg19
g22
sg21
I40
ssg19
g18
sg21
I35
sa(dp3224
g2
(dp3225
g2
(dp3226
g2
(dp3227
g2
(dp3228
g2
(dp3229
g2
(dp3230
g2
(dp3231
g2
(dp3232
g2
(dp3233
g2
(dp3234
g2
(dp3235
g2
(dp3236
g2
(dp3237
g2
(dp3238
g2
(dp3239
g2
g18
sg19
g22
sg21
I171
ssg19
g22
sg21
I168
ssg19
g20
sg21
I43
ssg19
g20
sg21
I56
ssg19
g18
sg21
I93
ssg19
g20
sg21
I185
ssg19
g22
sg21
I52
ssg19
g18
sg21
I46
ssg19
g20
sg21
I67
ssg19
g22
sg21
I144
ssg19
g18
sg21
I35
ssg19
g20
sg21
I126
ssg19
g22
sg21
I142
ssg19
g23
sg21
I0
ssg19
g22
sg21
I130
ssg19
g23
sg21
I86
sa(dp3240
g2
(dp3241
g2
(dp3242
g2
(dp3243
g2
(dp3244
g2
(dp3245
g2
(dp3246
g2
(dp3247
g2
(dp3248
g2
(dp3249
g2
(dp3250
g2
(dp3251
g2
(dp3252
g2
(dp3253
g2
(dp3254
g2
(dp3255
g2
g18
sg19
g20
sg21
I191
ssg19
g22
sg21
I24
ssg19
g20
sg21
I7
ssg19
g22
sg21
I162
ssg19
g20
sg21
I153
ssg19
g22
sg21
I108
ssg19
g22
sg21
I159
ssg19
g20
sg21
I102
ssg19
g20
sg21
I122
ssg19
g22
sg21
I119
ssg19
g18
sg21
I98
ssg19
g23
sg21
I0
ssg19
g22
sg21
I44
ssg19
g23
sg21
I5
ssg19
g20
sg21
I156
ssg19
g18
sg21
I39
sa(dp3256
g2
(dp3257
g2
(dp3258
g2
(dp3259
g2
(dp3260
g2
(dp3261
g2
(dp3262
g2
(dp3263
g2
(dp3264
g2
(dp3265
g2
(dp3266
g2
(dp3267
g2
(dp3268
g2
(dp3269
g2
(dp3270
g2
(dp3271
g2
g18
sg19
g22
sg21
I110
ssg19
g20
sg21
I99
ssg19
g18
sg21
I28
ssg19
g22
sg21
I127
ssg19
g18
sg21
I39
ssg19
g22
sg21
I169
ssg19
g22
sg21
I120
ssg19
g23
sg21
I0
ssg19
g23
sg21
I164
ssg19
g23
sg21
I185
ssg19
g22
sg21
I188
ssg19
g18
sg21
I176
ssg19
g23
sg21
I53
ssg19
g20
sg21
I177
ssg19
g23
sg21
I75
ssg19
g23
sg21
I56
sa(dp3272
g2
(dp3273
g2
(dp3274
g2
(dp3275
g2
(dp3276
g2
(dp3277
g2
(dp3278
g2
(dp3279
g2
(dp3280
g2
(dp3281
g2
(dp3282
g2
(dp3283
g2
(dp3284
g2
(dp3285
g2
(dp3286
g2
(dp3287
g2
g22
sg19
g18
sg21
I30
ssg19
g23
sg21
I75
ssg19
g20
sg21
I179
ssg19
g18
sg21
I22
ssg19
g20
sg21
I189
ssg19
g22
sg21
I96
ssg19
g23
sg21
I74
ssg19
g20
sg21
I157
ssg19
g22
sg21
I90
ssg19
g22
sg21
I136
ssg19
g18
sg21
I31
ssg19
g23
sg21
I55
ssg19
g23
sg21
I77
ssg19
g20
sg21
I181
ssg19
g22
sg21
I89
ssg19
g18
sg21
I87
sa(dp3288
g2
(dp3289
g2
(dp3290
g2
(dp3291
g2
(dp3292
g2
(dp3293
g2
(dp3294
g2
(dp3295
g2
(dp3296
g2
(dp3297
g2
(dp3298
g2
(dp3299
g2
(dp3300
g2
(dp3301
g2
(dp3302
g2
(dp3303
g2
g18
sg19
g20
sg21
I26
ssg19
g18
sg21
I179
ssg19
g22
sg21
I10
ssg19
g20
sg21
I180
ssg19
g22
sg21
I24
ssg19
g18
sg21
I71
ssg19
g20
sg21
I149
ssg19
g22
sg21
I141
ssg19
g20
sg21
I171
ssg19
g22
sg21
I46
ssg19
g18
sg21
I8
ssg19
g22
sg21
I160
ssg19
g18
sg21
I56
ssg19
g23
sg21
I0
ssg19
g22
sg21
I142
ssg19
g20
sg21
I108
sa(dp3304
g2
(dp3305
g2
(dp3306
g2
(dp3307
g2
(dp3308
g2
(dp3309
g2
(dp3310
g2
(dp3311
g2
(dp3312
g2
(dp3313
g2
(dp3314
g2
(dp3315
g2
(dp3316
g2
(dp3317
g2
(dp3318
g2
(dp3319
g2
g18
sg19
g22
sg21
I41
ssg19
g23
sg21
I98
ssg19
g22
sg21
I119
ssg19
g20
sg21
I139
ssg19
g20
sg21
I151
ssg19
g20
sg21
I86
ssg19
g20
sg21
I108
ssg19
g18
sg21
I106
ssg19
g18
sg21
I39
ssg19
g20
sg21
I163
ssg19
g23
sg21
I56
ssg19
g23
sg21
I62
ssg19
g22
sg21
I68
ssg19
g23
sg21
I65
ssg19
g18
sg21
I113
ssg19
g23
sg21
I59
sa(dp3320
g2
(dp3321
g2
(dp3322
g2
(dp3323
g2
(dp3324
g2
(dp3325
g2
(dp3326
g2
(dp3327
g2
(dp3328
g2
(dp3329
g2
(dp3330
g2
(dp3331
g2
(dp3332
g2
(dp3333
g2
(dp3334
g2
(dp3335
g2
g23
sg19
g18
sg21
I112
ssg19
g18
sg21
I18
ssg19
g23
sg21
I54
ssg19
g20
sg21
I148
ssg19
g18
sg21
I5
ssg19
g22
sg21
I144
ssg19
g23
sg21
I101
ssg19
g20
sg21
I155
ssg19
g22
sg21
I141
ssg19
g20
sg21
I158
ssg19
g20
sg21
I153
ssg19
g18
sg21
I38
ssg19
g23
sg21
I55
ssg19
g18
sg21
I66
ssg19
g22
sg21
I89
ssg19
g23
sg21
I82
sa(dp3336
g2
(dp3337
g2
(dp3338
g2
(dp3339
g2
(dp3340
g2
(dp3341
g2
(dp3342
g2
(dp3343
g2
(dp3344
g2
(dp3345
g2
(dp3346
g2
(dp3347
g2
(dp3348
g2
(dp3349
g2
(dp3350
g2
(dp3351
g2
g22
sg19
g18
sg21
I59
ssg19
g23
sg21
I125
ssg19
g18
sg21
I71
ssg19
g22
sg21
I148
ssg19
g20
sg21
I128
ssg19
g20
sg21
I188
ssg19
g22
sg21
I118
ssg19
g23
sg21
I104
ssg19
g18
sg21
I184
ssg19
g23
sg21
I163
ssg19
g18
sg21
I166
ssg19
g23
sg21
I103
ssg19
g20
sg21
I175
ssg19
g22
sg21
I85
ssg19
g23
sg21
I88
ssg19
g22
sg21
I46
sa(dp3352
g2
(dp3353
g2
(dp3354
g2
(dp3355
g2
(dp3356
g2
(dp3357
g2
(dp3358
g2
(dp3359
g2
(dp3360
g2
(dp3361
g2
(dp3362
g2
(dp3363
g2
(dp3364
g2
(dp3365
g2
(dp3366
g2
(dp3367
g2
g20
sg19
g23
sg21
I127
ssg19
g18
sg21
I35
ssg19
g22
sg21
I189
ssg19
g20
sg21
I111
ssg19
g20
sg21
I58
ssg19
g23
sg21
I81
ssg19
g18
sg21
I18
ssg19
g23
sg21
I88
ssg19
g18
sg21
I65
ssg19
g18
sg21
I181
ssg19
g22
sg21
I117
ssg19
g23
sg21
I118
ssg19
g22
sg21
I113
ssg19
g23
sg21
I112
ssg19
g18
sg21
I130
ssg19
g20
sg21
I11
sa(dp3368
g2
(dp3369
g2
(dp3370
g2
(dp3371
g2
(dp3372
g2
(dp3373
g2
(dp3374
g2
(dp3375
g2
(dp3376
g2
(dp3377
g2
(dp3378
g2
(dp3379
g2
(dp3380
g2
(dp3381
g2
(dp3382
g2
(dp3383
g2
g18
sg19
g20
sg21
I101
ssg19
g22
sg21
I156
ssg19
g22
sg21
I66
ssg19
g18
sg21
I9
ssg19
g20
sg21
I138
ssg19
g20
sg21
I164
ssg19
g22
sg21
I119
ssg19
g20
sg21
I170
ssg19
g23
sg21
I0
ssg19
g20
sg21
I118
ssg19
g18
sg21
I86
ssg19
g22
sg21
I94
ssg19
g23
sg21
I130
ssg19
g23
sg21
I124
ssg19
g22
sg21
I19
ssg19
g20
sg21
I106
sa(dp3384
g2
(dp3385
g2
(dp3386
g2
(dp3387
g2
(dp3388
g2
(dp3389
g2
(dp3390
g2
(dp3391
g2
(dp3392
g2
(dp3393
g2
(dp3394
g2
(dp3395
g2
(dp3396
g2
(dp3397
g2
(dp3398
g2
(dp3399
g2
g18
sg19
g23
sg21
I174
ssg19
g22
sg21
I187
ssg19
g20
sg21
I144
ssg19
g22
sg21
I133
ssg19
g20
sg21
I117
ssg19
g18
sg21
I88
ssg19
g22
sg21
I134
ssg19
g20
sg21
I135
ssg19
g18
sg21
I8
ssg19
g20
sg21
I175
ssg19
g23
sg21
I98
ssg19
g22
sg21
I95
ssg19
g18
sg21
I31
ssg19
g23
sg21
I80
ssg19
g20
sg21
I184
ssg19
g22
sg21
I86
sa(dp3400
g2
(dp3401
g2
(dp3402
g2
(dp3403
g2
(dp3404
g2
(dp3405
g2
(dp3406
g2
(dp3407
g2
(dp3408
g2
(dp3409
g2
(dp3410
g2
(dp3411
g2
(dp3412
g2
(dp3413
g2
(dp3414
g2
(dp3415
g2
g22
sg19
g18
sg21
I114
ssg19
g18
sg21
I60
ssg19
g18
sg21
I30
ssg19
g20
sg21
I135
ssg19
g18
sg21
I2
ssg19
g22
sg21
I138
ssg19
g20
sg21
I74
ssg19
g20
sg21
I122
ssg19
g20
sg21
I73
ssg19
g22
sg21
I178
ssg19
g18
sg21
I149
ssg19
g22
sg21
I124
ssg19
g20
sg21
I125
ssg19
g18
sg21
I53
ssg19
g23
sg21
I0
ssg19
g18
sg21
I85
sa(dp3416
g2
(dp3417
g2
(dp3418
g2
(dp3419
g2
(dp3420
g2
(dp3421
g2
(dp3422
g2
(dp3423
g2
(dp3424
g2
(dp3425
g2
(dp3426
g2
(dp3427
g2
(dp3428
g2
(dp3429
g2
(dp3430
g2
(dp3431
g2
g20
sg19
g18
sg21
I172
ssg19
g22
sg21
I63
ssg19
g18
sg21
I9
ssg19
g18
sg21
I53
ssg19
g18
sg21
I11
ssg19
g22
sg21
I26
ssg19
g22
sg21
I48
ssg19
g18
sg21
I33
ssg19
g20
sg21
I180
ssg19
g20
sg21
I152
ssg19
g23
sg21
I0
ssg19
g22
sg21
I95
ssg19
g18
sg21
I43
ssg19
g20
sg21
I110
ssg19
g20
sg21
I139
ssg19
g22
sg21
I91
sa(dp3432
g2
(dp3433
g2
(dp3434
g2
(dp3435
g2
(dp3436
g2
(dp3437
g2
(dp3438
g2
(dp3439
g2
(dp3440
g2
(dp3441
g2
(dp3442
g2
(dp3443
g2
(dp3444
g2
(dp3445
g2
(dp3446
g2
(dp3447
g2
g18
sg19
g22
sg21
I186
ssg19
g20
sg21
I179
ssg19
g23
sg21
I104
ssg19
g18
sg21
I87
ssg19
g23
sg21
I50
ssg19
g22
sg21
I144
ssg19
g18
sg21
I15
ssg19
g20
sg21
I173
ssg19
g23
sg21
I27
ssg19
g20
sg21
I147
ssg19
g22
sg21
I120
ssg19
g20
sg21
I131
ssg19
g23
sg21
I30
ssg19
g18
sg21
I65
ssg19
g20
sg21
I134
ssg19
g22
sg21
I89
sa(dp3448
g2
(dp3449
g2
(dp3450
g2
(dp3451
g2
(dp3452
g2
(dp3453
g2
(dp3454
g2
(dp3455
g2
(dp3456
g2
(dp3457
g2
(dp3458
g2
(dp3459
g2
(dp3460
g2
(dp3461
g2
(dp3462
g2
(dp3463
g2
g22
sg19
g20
sg21
I177
ssg19
g22
sg21
I68
ssg19
g23
sg21
I51
ssg19
g18
sg21
I12
ssg19
g20
sg21
I103
ssg19
g22
sg21
I140
ssg19
g20
sg21
I127
ssg19
g23
sg21
I84
ssg19
g18
sg21
I87
ssg19
g23
sg21
I52
ssg19
g18
sg21
I58
ssg19
g23
sg21
I91
ssg19
g22
sg21
I119
ssg19
g20
sg21
I178
ssg19
g20
sg21
I111
ssg19
g23
sg21
I55
sa(dp3464
g2
(dp3465
g2
(dp3466
g2
(dp3467
g2
(dp3468
g2
(dp3469
g2
(dp3470
g2
(dp3471
g2
(dp3472
g2
(dp3473
g2
(dp3474
g2
(dp3475
g2
(dp3476
g2
(dp3477
g2
(dp3478
g2
(dp3479
g2
g18
sg19
g20
sg21
I192
ssg19
g22
sg21
I131
ssg19
g18
sg21
I121
ssg19
g23
sg21
I0
ssg19
g23
sg21
I174
ssg19
g20
sg21
I166
ssg19
g22
sg21
I144
ssg19
g20
sg21
I140
ssg19
g18
sg21
I1
ssg19
g23
sg21
I170
ssg19
g22
sg21
I88
ssg19
g20
sg21
I94
ssg19
g20
sg21
I186
ssg19
g18
sg21
I109
ssg19
g20
sg21
I118
ssg19
g18
sg21
I84
sa(dp3480
g2
(dp3481
g2
(dp3482
g2
(dp3483
g2
(dp3484
g2
(dp3485
g2
(dp3486
g2
(dp3487
g2
(dp3488
g2
(dp3489
g2
(dp3490
g2
(dp3491
g2
(dp3492
g2
(dp3493
g2
(dp3494
g2
(dp3495
g2
g23
sg19
g20
sg21
I184
ssg19
g18
sg21
I36
ssg19
g22
sg21
I114
ssg19
g20
sg21
I149
ssg19
g18
sg21
I60
ssg19
g22
sg21
I67
ssg19
g23
sg21
I125
ssg19
g20
sg21
I118
ssg19
g23
sg21
I98
ssg19
g23
sg21
I121
ssg19
g22
sg21
I92
ssg19
g18
sg21
I65
ssg19
g20
sg21
I106
ssg19
g18
sg21
I115
ssg19
g18
sg21
I88
ssg19
g23
sg21
I84
sa(dp3496
g2
(dp3497
g2
(dp3498
g2
(dp3499
g2
(dp3500
g2
(dp3501
g2
(dp3502
g2
(dp3503
g2
(dp3504
g2
(dp3505
g2
(dp3506
g2
(dp3507
g2
(dp3508
g2
(dp3509
g2
(dp3510
g2
(dp3511
g2
g20
sg19
g18
sg21
I148
ssg19
g23
sg21
I127
ssg19
g22
sg21
I23
ssg19
g23
sg21
I15
ssg19
g20
sg21
I34
ssg19
g18
sg21
I45
ssg19
g23
sg21
I179
ssg19
g23
sg21
I133
ssg19
g22
sg21
I185
ssg19
g20
sg21
I173
ssg19
g23
sg21
I11
ssg19
g18
sg21
I18
ssg19
g20
sg21
I122
ssg19
g23
sg21
I5
ssg19
g18
sg21
I7
ssg19
g20
sg21
I172
sa(dp3512
g2
(dp3513
g2
(dp3514
g2
(dp3515
g2
(dp3516
g2
(dp3517
g2
(dp3518
g2
(dp3519
g2
(dp3520
g2
(dp3521
g2
(dp3522
g2
(dp3523
g2
(dp3524
g2
(dp3525
g2
(dp3526
g2
(dp3527
g2
g18
sg19
g20
sg21
I148
ssg19
g22
sg21
I168
ssg19
g18
sg21
I183
ssg19
g23
sg21
I0
ssg19
g23
sg21
I104
ssg19
g20
sg21
I156
ssg19
g23
sg21
I15
ssg19
g22
sg21
I90
ssg19
g18
sg21
I36
ssg19
g20
sg21
I135
ssg19
g18
sg21
I84
ssg19
g23
sg21
I54
ssg19
g22
sg21
I138
ssg19
g20
sg21
I102
ssg19
g18
sg21
I60
ssg19
g23
sg21
I78
sa(dp3528
g2
(dp3529
g2
(dp3530
g2
(dp3531
g2
(dp3532
g2
(dp3533
g2
(dp3534
g2
(dp3535
g2
(dp3536
g2
(dp3537
g2
(dp3538
g2
(dp3539
g2
(dp3540
g2
(dp3541
g2
(dp3542
g2
(dp3543
g2
g18
sg19
g23
sg21
I0
ssg19
g20
sg21
I111
ssg19
g18
sg21
I37
ssg19
g23
sg21
I157
ssg19
g20
sg21
I135
ssg19
g18
sg21
I190
ssg19
g22
sg21
I62
ssg19
g22
sg21
I71
ssg19
g20
sg21
I166
ssg19
g23
sg21
I134
ssg19
g22
sg21
I115
ssg19
g18
sg21
I160
ssg19
g20
sg21
I109
ssg19
g18
sg21
I161
ssg19
g20
sg21
I91
ssg19
g22
sg21
I43
sa(dp3544
g2
(dp3545
g2
(dp3546
g2
(dp3547
g2
(dp3548
g2
(dp3549
g2
(dp3550
g2
(dp3551
g2
(dp3552
g2
(dp3553
g2
(dp3554
g2
(dp3555
g2
(dp3556
g2
(dp3557
g2
(dp3558
g2
(dp3559
g2
g20
sg19
g18
sg21
I25
ssg19
g20
sg21
I180
ssg19
g22
sg21
I155
ssg19
g18
sg21
I36
ssg19
g20
sg21
I49
ssg19
g22
sg21
I70
ssg19
g20
sg21
I171
ssg19
g18
sg21
I19
ssg19
g22
sg21
I119
ssg19
g22
sg21
I111
ssg19
g18
sg21
I77
ssg19
g18
sg21
I82
ssg19
g22
sg21
I127
ssg19
g20
sg21
I132
ssg19
g20
sg21
I124
ssg19
g23
sg21
I0
sa(dp3560
g2
(dp3561
g2
(dp3562
g2
(dp3563
g2
(dp3564
g2
(dp3565
g2
(dp3566
g2
(dp3567
g2
(dp3568
g2
(dp3569
g2
(dp3570
g2
(dp3571
g2
(dp3572
g2
(dp3573
g2
(dp3574
g2
(dp3575
g2
g23
sg19
g18
sg21
I65
ssg19
g22
sg21
I53
ssg19
g18
sg21
I82
ssg19
g18
sg21
I92
ssg19
g22
sg21
I138
ssg19
g20
sg21
I185
ssg19
g18
sg21
I31
ssg19
g23
sg21
I101
ssg19
g22
sg21
I87
ssg19
g23
sg21
I98
ssg19
g18
sg21
I59
ssg19
g22
sg21
I91
ssg19
g20
sg21
I149
ssg19
g22
sg21
I73
ssg19
g23
sg21
I76
ssg19
g23
sg21
I103
sa(dp3576
g2
(dp3577
g2
(dp3578
g2
(dp3579
g2
(dp3580
g2
(dp3581
g2
(dp3582
g2
(dp3583
g2
(dp3584
g2
(dp3585
g2
(dp3586
g2
(dp3587
g2
(dp3588
g2
(dp3589
g2
(dp3590
g2
(dp3591
g2
g18
sg19
g22
sg21
I114
ssg19
g18
sg21
I30
ssg19
g20
sg21
I150
ssg19
g22
sg21
I97
ssg19
g20
sg21
I156
ssg19
g20
sg21
I116
ssg19
g22
sg21
I92
ssg19
g22
sg21
I160
ssg19
g20
sg21
I126
ssg19
g20
sg21
I124
ssg19
g23
sg21
I0
ssg19
g22
sg21
I133
ssg19
g23
sg21
I158
ssg19
g20
sg21
I155
ssg19
g23
sg21
I131
ssg19
g23
sg21
I148
sa(dp3592
g2
(dp3593
g2
(dp3594
g2
(dp3595
g2
(dp3596
g2
(dp3597
g2
(dp3598
g2
(dp3599
g2
(dp3600
g2
(dp3601
g2
(dp3602
g2
(dp3603
g2
(dp3604
g2
(dp3605
g2
(dp3606
g2
(dp3607
g2
g23
sg19
g23
sg21
I44
ssg19
g18
sg21
I101
ssg19
g23
sg21
I6
ssg19
g20
sg21
I186
ssg19
g22
sg21
I42
ssg19
g22
sg21
I58
ssg19
g20
sg21
I129
ssg19
g23
sg21
I130
ssg19
g20
sg21
I89
ssg19
g18
sg21
I18
ssg19
g22
sg21
I120
ssg19
g18
sg21
I36
ssg19
g23
sg21
I43
ssg19
g23
sg21
I31
ssg19
g23
sg21
I134
ssg19
g18
sg21
I86
sa(dp3608
g2
(dp3609
g2
(dp3610
g2
(dp3611
g2
(dp3612
g2
(dp3613
g2
(dp3614
g2
(dp3615
g2
(dp3616
g2
(dp3617
g2
(dp3618
g2
(dp3619
g2
(dp3620
g2
(dp3621
g2
(dp3622
g2
(dp3623
g2
g22
sg19
g18
sg21
I75
ssg19
g22
sg21
I168
ssg19
g18
sg21
I99
ssg19
g20
sg21
I123
ssg19
g18
sg21
I115
ssg19
g23
sg21
I0
ssg19
g23
sg21
I118
ssg19
g23
sg21
I142
ssg19
g23
sg21
I140
ssg19
g23
sg21
I3
ssg19
g20
sg21
I101
ssg19
g23
sg21
I5
ssg19
g18
sg21
I98
ssg19
g23
sg21
I19
ssg19
g20
sg21
I16
ssg19
g20
sg21
I25
sa(dp3624
g2
(dp3625
g2
(dp3626
g2
(dp3627
g2
(dp3628
g2
(dp3629
g2
(dp3630
g2
(dp3631
g2
(dp3632
g2
(dp3633
g2
(dp3634
g2
(dp3635
g2
(dp3636
g2
(dp3637
g2
(dp3638
g2
(dp3639
g2
g23
sg19
g18
sg21
I16
ssg19
g18
sg21
I158
ssg19
g20
sg21
I189
ssg19
g20
sg21
I125
ssg19
g22
sg21
I60
ssg19
g18
sg21
I20
ssg19
g23
sg21
I98
ssg19
g22
sg21
I120
ssg19
g20
sg21
I172
ssg19
g22
sg21
I139
ssg19
g18
sg21
I56
ssg19
g18
sg21
I136
ssg19
g18
sg21
I102
ssg19
g23
sg21
I77
ssg19
g22
sg21
I137
ssg19
g23
sg21
I31
sa(dp3640
g2
(dp3641
g2
(dp3642
g2
(dp3643
g2
(dp3644
g2
(dp3645
g2
(dp3646
g2
(dp3647
g2
(dp3648
g2
(dp3649
g2
(dp3650
g2
(dp3651
g2
(dp3652
g2
(dp3653
g2
(dp3654
g2
(dp3655
g2
g18
sg19
g18
sg21
I94
ssg19
g18
sg21
I107
ssg19
g18
sg21
I161
ssg19
g20
sg21
I103
ssg19
g22
sg21
I96
ssg19
g22
sg21
I168
ssg19
g20
sg21
I158
ssg19
g20
sg21
I182
ssg19
g20
sg21
I25
ssg19
g22
sg21
I69
ssg19
g22
sg21
I178
ssg19
g18
sg21
I39
ssg19
g22
sg21
I165
ssg19
g18
sg21
I51
ssg19
g20
sg21
I177
ssg19
g23
sg21
I0
sa(dp3656
g2
(dp3657
g2
(dp3658
g2
(dp3659
g2
(dp3660
g2
(dp3661
g2
(dp3662
g2
(dp3663
g2
(dp3664
g2
(dp3665
g2
(dp3666
g2
(dp3667
g2
(dp3668
g2
(dp3669
g2
(dp3670
g2
(dp3671
g2
g23
sg19
g20
sg21
I179
ssg19
g18
sg21
I7
ssg19
g20
sg21
I175
ssg19
g23
sg21
I86
ssg19
g23
sg21
I149
ssg19
g18
sg21
I57
ssg19
g18
sg21
I31
ssg19
g23
sg21
I105
ssg19
g22
sg21
I117
ssg19
g18
sg21
I115
ssg19
g20
sg21
I159
ssg19
g20
sg21
I89
ssg19
g22
sg21
I132
ssg19
g18
sg21
I136
ssg19
g20
sg21
I135
ssg19
g22
sg21
I90
sa(dp3672
g2
(dp3673
g2
(dp3674
g2
(dp3675
g2
(dp3676
g2
(dp3677
g2
(dp3678
g2
(dp3679
g2
(dp3680
g2
(dp3681
g2
(dp3682
g2
(dp3683
g2
(dp3684
g2
(dp3685
g2
(dp3686
g2
(dp3687
g2
g18
sg19
g23
sg21
I170
ssg19
g22
sg21
I86
ssg19
g22
sg21
I165
ssg19
g18
sg21
I6
ssg19
g20
sg21
I152
ssg19
g23
sg21
I28
ssg19
g22
sg21
I136
ssg19
g23
sg21
I98
ssg19
g18
sg21
I24
ssg19
g18
sg21
I190
ssg19
g22
sg21
I120
ssg19
g18
sg21
I36
ssg19
g23
sg21
I173
ssg19
g20
sg21
I180
ssg19
g22
sg21
I114
ssg19
g18
sg21
I59
sa(dp3688
g2
(dp3689
g2
(dp3690
g2
(dp3691
g2
(dp3692
g2
(dp3693
g2
(dp3694
g2
(dp3695
g2
(dp3696
g2
(dp3697
g2
(dp3698
g2
(dp3699
g2
(dp3700
g2
(dp3701
g2
(dp3702
g2
(dp3703
g2
g18
sg19
g18
sg21
I39
ssg19
g22
sg21
I165
ssg19
g22
sg21
I112
ssg19
g18
sg21
I36
ssg19
g20
sg21
I183
ssg19
g20
sg21
I153
ssg19
g20
sg21
I125
ssg19
g22
sg21
I191
ssg19
g20
sg21
I142
ssg19
g22
sg21
I188
ssg19
g18
sg21
I61
ssg19
g23
sg21
I0
ssg19
g22
sg21
I88
ssg19
g20
sg21
I181
ssg19
g23
sg21
I107
ssg19
g23
sg21
I109
sa(dp3704
g2
(dp3705
g2
(dp3706
g2
(dp3707
g2
(dp3708
g2
(dp3709
g2
(dp3710
g2
(dp3711
g2
(dp3712
g2
(dp3713
g2
(dp3714
g2
(dp3715
g2
(dp3716
g2
(dp3717
g2
(dp3718
g2
(dp3719
g2
g18
sg19
g23
sg21
I32
ssg19
g20
sg21
I123
ssg19
g18
sg21
I34
ssg19
g22
sg21
I177
ssg19
g20
sg21
I171
ssg19
g20
sg21
I37
ssg19
g20
sg21
I69
ssg19
g18
sg21
I17
ssg19
g20
sg21
I186
ssg19
g18
sg21
I39
ssg19
g20
sg21
I130
ssg19
g22
sg21
I120
ssg19
g18
sg21
I97
ssg19
g18
sg21
I80
ssg19
g23
sg21
I0
ssg19
g23
sg21
I108
sa(dp3720
g2
(dp3721
g2
(dp3722
g2
(dp3723
g2
(dp3724
g2
(dp3725
g2
(dp3726
g2
(dp3727
g2
(dp3728
g2
(dp3729
g2
(dp3730
g2
(dp3731
g2
(dp3732
g2
(dp3733
g2
(dp3734
g2
(dp3735
g2
g18
sg19
g20
sg21
I76
ssg19
g20
sg21
I127
ssg19
g22
sg21
I136
ssg19
g18
sg21
I39
ssg19
g22
sg21
I161
ssg19
g22
sg21
I44
ssg19
g20
sg21
I135
ssg19
g18
sg21
I27
ssg19
g20
sg21
I123
ssg19
g22
sg21
I120
ssg19
g20
sg21
I150
ssg19
g18
sg21
I104
ssg19
g18
sg21
I86
ssg19
g22
sg21
I145
ssg19
g23
sg21
I0
ssg19
g20
sg21
I110
sa(dp3736
g2
(dp3737
g2
(dp3738
g2
(dp3739
g2
(dp3740
g2
(dp3741
g2
(dp3742
g2
(dp3743
g2
(dp3744
g2
(dp3745
g2
(dp3746
g2
(dp3747
g2
(dp3748
g2
(dp3749
g2
(dp3750
g2
(dp3751
g2
g20
sg19
g22
sg21
I59
ssg19
g22
sg21
I144
ssg19
g20
sg21
I114
ssg19
g18
sg21
I53
ssg19
g22
sg21
I96
ssg19
g18
sg21
I101
ssg19
g22
sg21
I60
ssg19
g20
sg21
I102
ssg19
g18
sg21
I57
ssg19
g22
sg21
I42
ssg19
g18
sg21
I45
ssg19
g23
sg21
I0
ssg19
g20
sg21
I117
ssg19
g20
sg21
I50
ssg19
g23
sg21
I17
ssg19
g22
sg21
I65
sa(dp3752
g2
(dp3753
g2
(dp3754
g2
(dp3755
g2
(dp3756
g2
(dp3757
g2
(dp3758
g2
(dp3759
g2
(dp3760
g2
(dp3761
g2
(dp3762
g2
(dp3763
g2
(dp3764
g2
(dp3765
g2
(dp3766
g2
(dp3767
g2
g18
sg19
g22
sg21
I143
ssg19
g18
sg21
I20
ssg19
g20
sg21
I131
ssg19
g23
sg21
I60
ssg19
g20
sg21
I158
ssg19
g20
sg21
I1
ssg19
g23
sg21
I50
ssg19
g18
sg21
I55
ssg19
g22
sg21
I95
ssg19
g20
sg21
I176
ssg19
g22
sg21
I67
ssg19
g23
sg21
I82
ssg19
g20
sg21
I154
ssg19
g22
sg21
I64
ssg19
g23
sg21
I34
ssg19
g18
sg21
I35
sa(dp3768
g2
(dp3769
g2
(dp3770
g2
(dp3771
g2
(dp3772
g2
(dp3773
g2
(dp3774
g2
(dp3775
g2
(dp3776
g2
(dp3777
g2
(dp3778
g2
(dp3779
g2
(dp3780
g2
(dp3781
g2
(dp3782
g2
(dp3783
g2
g18
sg19
g23
sg21
I89
ssg19
g22
sg21
I147
ssg19
g20
sg21
I43
ssg19
g20
sg21
I180
ssg19
g22
sg21
I7
ssg19
g18
sg21
I3
ssg19
g18
sg21
I23
ssg19
g20
sg21
I165
ssg19
g20
sg21
I159
ssg19
g22
sg21
I120
ssg19
g20
sg21
I182
ssg19
g22
sg21
I76
ssg19
g18
sg21
I30
ssg19
g23
sg21
I0
ssg19
g18
sg21
I62
ssg19
g18
sg21
I131
sa(dp3784
g2
(dp3785
g2
(dp3786
g2
(dp3787
g2
(dp3788
g2
(dp3789
g2
(dp3790
g2
(dp3791
g2
(dp3792
g2
(dp3793
g2
(dp3794
g2
(dp3795
g2
(dp3796
g2
(dp3797
g2
(dp3798
g2
(dp3799
g2
g22
sg19
g23
sg21
I0
ssg19
g20
sg21
I28
ssg19
g22
sg21
I133
ssg19
g18
sg21
I51
ssg19
g23
sg21
I173
ssg19
g18
sg21
I27
ssg19
g23
sg21
I154
ssg19
g22
sg21
I146
ssg19
g20
sg21
I188
ssg19
g20
sg21
I77
ssg19
g18
sg21
I158
ssg19
g23
sg21
I50
ssg19
g20
sg21
I166
ssg19
g22
sg21
I142
ssg19
g23
sg21
I110
ssg19
g23
sg21
I25
sa(dp3800
g2
(dp3801
g2
(dp3802
g2
(dp3803
g2
(dp3804
g2
(dp3805
g2
(dp3806
g2
(dp3807
g2
(dp3808
g2
(dp3809
g2
(dp3810
g2
(dp3811
g2
(dp3812
g2
(dp3813
g2
(dp3814
g2
(dp3815
g2
g18
sg19
g20
sg21
I187
ssg19
g18
sg21
I133
ssg19
g20
sg21
I191
ssg19
g18
sg21
I117
ssg19
g22
sg21
I47
ssg19
g22
sg21
I148
ssg19
g20
sg21
I152
ssg19
g23
sg21
I0
ssg19
g18
sg21
I14
ssg19
g18
sg21
I29
ssg19
g23
sg21
I74
ssg19
g22
sg21
I138
ssg19
g23
sg21
I62
ssg19
g20
sg21
I135
ssg19
g22
sg21
I82
ssg19
g18
sg21
I134
sa(dp3816
g2
(dp3817
g2
(dp3818
g2
(dp3819
g2
(dp3820
g2
(dp3821
g2
(dp3822
g2
(dp3823
g2
(dp3824
g2
(dp3825
g2
(dp3826
g2
(dp3827
g2
(dp3828
g2
(dp3829
g2
(dp3830
g2
(dp3831
g2
g18
sg19
g20
sg21
I158
ssg19
g20
sg21
I76
ssg19
g22
sg21
I161
ssg19
g22
sg21
I109
ssg19
g18
sg21
I70
ssg19
g22
sg21
I190
ssg19
g18
sg21
I10
ssg19
g20
sg21
I132
ssg19
g22
sg21
I42
ssg19
g20
sg21
I150
ssg19
g18
sg21
I77
ssg19
g22
sg21
I97
ssg19
g18
sg21
I31
ssg19
g23
sg21
I0
ssg19
g20
sg21
I106
ssg19
g18
sg21
I107
sa(dp3832
g2
(dp3833
g2
(dp3834
g2
(dp3835
g2
(dp3836
g2
(dp3837
g2
(dp3838
g2
(dp3839
g2
(dp3840
g2
(dp3841
g2
(dp3842
g2
(dp3843
g2
(dp3844
g2
(dp3845
g2
(dp3846
g2
(dp3847
g2
g18
sg19
g20
sg21
I111
ssg19
g23
sg21
I0
ssg19
g22
sg21
I7
ssg19
g18
sg21
I6
ssg19
g18
sg21
I122
ssg19
g20
sg21
I101
ssg19
g22
sg21
I148
ssg19
g18
sg21
I51
ssg19
g22
sg21
I100
ssg19
g18
sg21
I124
ssg19
g23
sg21
I146
ssg19
g22
sg21
I165
ssg19
g23
sg21
I176
ssg19
g18
sg21
I175
ssg19
g20
sg21
I181
ssg19
g23
sg21
I10
sa(dp3848
g2
(dp3849
g2
(dp3850
g2
(dp3851
g2
(dp3852
g2
(dp3853
g2
(dp3854
g2
(dp3855
g2
(dp3856
g2
(dp3857
g2
(dp3858
g2
(dp3859
g2
(dp3860
g2
(dp3861
g2
(dp3862
g2
(dp3863
g2
g20
sg19
g18
sg21
I103
ssg19
g23
sg21
I0
ssg19
g20
sg21
I110
ssg19
g23
sg21
I52
ssg19
g18
sg21
I145
ssg19
g18
sg21
I9
ssg19
g20
sg21
I150
ssg19
g23
sg21
I105
ssg19
g22
sg21
I55
ssg19
g23
sg21
I121
ssg19
g20
sg21
I59
ssg19
g20
sg21
I138
ssg19
g23
sg21
I84
ssg19
g18
sg21
I60
ssg19
g23
sg21
I56
ssg19
g22
sg21
I184
sa(dp3864
g2
(dp3865
g2
(dp3866
g2
(dp3867
g2
(dp3868
g2
(dp3869
g2
(dp3870
g2
(dp3871
g2
(dp3872
g2
(dp3873
g2
(dp3874
g2
(dp3875
g2
(dp3876
g2
(dp3877
g2
(dp3878
g2
(dp3879
g2
g18
sg19
g23
sg21
I155
ssg19
g18
sg21
I82
ssg19
g23
sg21
I40
ssg19
g22
sg21
I117
ssg19
g23
sg21
I95
ssg19
g20
sg21
I153
ssg19
g22
sg21
I35
ssg19
g20
sg21
I43
ssg19
g23
sg21
I0
ssg19
g20
sg21
I180
ssg19
g23
sg21
I102
ssg19
g18
sg21
I24
ssg19
g20
sg21
I135
ssg19
g22
sg21
I120
ssg19
g23
sg21
I110
ssg19
g23
sg21
I56
sa(dp3880
g2
(dp3881
g2
(dp3882
g2
(dp3883
g2
(dp3884
g2
(dp3885
g2
(dp3886
g2
(dp3887
g2
(dp3888
g2
(dp3889
g2
(dp3890
g2
(dp3891
g2
(dp3892
g2
(dp3893
g2
(dp3894
g2
(dp3895
g2
g18
sg19
g22
sg21
I72
ssg19
g22
sg21
I180
ssg19
g22
sg21
I11
ssg19
g20
sg21
I140
ssg19
g20
sg21
I183
ssg19
g18
sg21
I3
ssg19
g23
sg21
I135
ssg19
g20
sg21
I124
ssg19
g22
sg21
I143
ssg19
g20
sg21
I122
ssg19
g22
sg21
I31
ssg19
g22
sg21
I13
ssg19
g18
sg21
I34
ssg19
g18
sg21
I83
ssg19
g23
sg21
I0
ssg19
g23
sg21
I37
sa(dp3896
g2
(dp3897
g2
(dp3898
g2
(dp3899
g2
(dp3900
g2
(dp3901
g2
(dp3902
g2
(dp3903
g2
(dp3904
g2
(dp3905
g2
(dp3906
g2
(dp3907
g2
(dp3908
g2
(dp3909
g2
(dp3910
g2
(dp3911
g2
g18
sg19
g22
sg21
I143
ssg19
g23
sg21
I144
ssg19
g20
sg21
I164
ssg19
g20
sg21
I182
ssg19
g22
sg21
I192
ssg19
g20
sg21
I159
ssg19
g20
sg21
I78
ssg19
g22
sg21
I95
ssg19
g22
sg21
I134
ssg19
g22
sg21
I76
ssg19
g23
sg21
I0
ssg19
g22
sg21
I116
ssg19
g20
sg21
I153
ssg19
g23
sg21
I79
ssg19
g20
sg21
I131
ssg19
g22
sg21
I119
sa(dp3912
g2
(dp3913
g2
(dp3914
g2
(dp3915
g2
(dp3916
g2
(dp3917
g2
(dp3918
g2
(dp3919
g2
(dp3920
g2
(dp3921
g2
(dp3922
g2
(dp3923
g2
(dp3924
g2
(dp3925
g2
(dp3926
g2
(dp3927
g2
g18
sg19
g22
sg21
I47
ssg19
g20
sg21
I43
ssg19
g20
sg21
I176
ssg19
g22
sg21
I72
ssg19
g20
sg21
I188
ssg19
g22
sg21
I141
ssg19
g20
sg21
I159
ssg19
g22
sg21
I143
ssg19
g18
sg21
I8
ssg19
g18
sg21
I124
ssg19
g18
sg21
I63
ssg19
g22
sg21
I110
ssg19
g18
sg21
I16
ssg19
g23
sg21
I0
ssg19
g23
sg21
I83
ssg19
g20
sg21
I79
sa(dp3928
g2
(dp3929
g2
(dp3930
g2
(dp3931
g2
(dp3932
g2
(dp3933
g2
(dp3934
g2
(dp3935
g2
(dp3936
g2
(dp3937
g2
(dp3938
g2
(dp3939
g2
(dp3940
g2
(dp3941
g2
(dp3942
g2
(dp3943
g2
g20
sg19
g23
sg21
I3
ssg19
g22
sg21
I120
ssg19
g22
sg21
I80
ssg19
g22
sg21
I45
ssg19
g23
sg21
I129
ssg19
g22
sg21
I143
ssg19
g23
sg21
I67
ssg19
g18
sg21
I15
ssg19
g18
sg21
I160
ssg19
g22
sg21
I68
ssg19
g23
sg21
I173
ssg19
g20
sg21
I180
ssg19
g23
sg21
I11
ssg19
g23
sg21
I83
ssg19
g18
sg21
I20
ssg19
g18
sg21
I44
sa(dp3944
g2
(dp3945
g2
(dp3946
g2
(dp3947
g2
(dp3948
g2
(dp3949
g2
(dp3950
g2
(dp3951
g2
(dp3952
g2
(dp3953
g2
(dp3954
g2
(dp3955
g2
(dp3956
g2
(dp3957
g2
(dp3958
g2
(dp3959
g2
g18
sg19
g22
sg21
I25
ssg19
g23
sg21
I56
ssg19
g20
sg21
I171
ssg19
g22
sg21
I82
ssg19
g20
sg21
I149
ssg19
g20
sg21
I153
ssg19
g22
sg21
I141
ssg19
g20
sg21
I129
ssg19
g20
sg21
I162
ssg19
g22
sg21
I136
ssg19
g20
sg21
I123
ssg19
g18
sg21
I53
ssg19
g18
sg21
I15
ssg19
g20
sg21
I108
ssg19
g18
sg21
I30
ssg19
g23
sg21
I0
sa(dp3960
g2
(dp3961
g2
(dp3962
g2
(dp3963
g2
(dp3964
g2
(dp3965
g2
(dp3966
g2
(dp3967
g2
(dp3968
g2
(dp3969
g2
(dp3970
g2
(dp3971
g2
(dp3972
g2
(dp3973
g2
(dp3974
g2
(dp3975
g2
g23
sg19
g20
sg21
I38
ssg19
g20
sg21
I144
ssg19
g18
sg21
I17
ssg19
g18
sg21
I188
ssg19
g22
sg21
I114
ssg19
g20
sg21
I135
ssg19
g18
sg21
I3
ssg19
g22
sg21
I96
ssg19
g20
sg21
I130
ssg19
g23
sg21
I98
ssg19
g23
sg21
I78
ssg19
g18
sg21
I89
ssg19
g18
sg21
I178
ssg19
g22
sg21
I175
ssg19
g20
sg21
I182
ssg19
g20
sg21
I113
sa(dp3976
g2
(dp3977
g2
(dp3978
g2
(dp3979
g2
(dp3980
g2
(dp3981
g2
(dp3982
g2
(dp3983
g2
(dp3984
g2
(dp3985
g2
(dp3986
g2
(dp3987
g2
(dp3988
g2
(dp3989
g2
(dp3990
g2
(dp3991
g2
g18
sg19
g20
sg21
I138
ssg19
g20
sg21
I59
ssg19
g20
sg21
I48
ssg19
g22
sg21
I69
ssg19
g20
sg21
I124
ssg19
g18
sg21
I136
ssg19
g22
sg21
I157
ssg19
g22
sg21
I46
ssg19
g20
sg21
I49
ssg19
g22
sg21
I160
ssg19
g22
sg21
I42
ssg19
g20
sg21
I121
ssg19
g20
sg21
I176
ssg19
g18
sg21
I50
ssg19
g18
sg21
I34
ssg19
g23
sg21
I0
sa(dp3992
g2
(dp3993
g2
(dp3994
g2
(dp3995
g2
(dp3996
g2
(dp3997
g2
(dp3998
g2
(dp3999
g2
(dp4000
g2
(dp4001
g2
(dp4002
g2
(dp4003
g2
(dp4004
g2
(dp4005
g2
(dp4006
g2
(dp4007
g2
g20
sg19
g22
sg21
I37
ssg19
g18
sg21
I98
ssg19
g18
sg21
I17
ssg19
g22
sg21
I80
ssg19
g22
sg21
I71
ssg19
g18
sg21
I157
ssg19
g20
sg21
I189
ssg19
g20
sg21
I182
ssg19
g22
sg21
I68
ssg19
g18
sg21
I27
ssg19
g23
sg21
I0
ssg19
g18
sg21
I13
ssg19
g20
sg21
I111
ssg19
g22
sg21
I85
ssg19
g22
sg21
I110
ssg19
g18
sg21
I82
sa(dp4008
g2
(dp4009
g2
(dp4010
g2
(dp4011
g2
(dp4012
g2
(dp4013
g2
(dp4014
g2
(dp4015
g2
(dp4016
g2
(dp4017
g2
(dp4018
g2
(dp4019
g2
(dp4020
g2
(dp4021
g2
(dp4022
g2
(dp4023
g2
g18
sg19
g18
sg21
I125
ssg19
g20
sg21
I50
ssg19
g20
sg21
I15
ssg19
g20
sg21
I62
ssg19
g22
sg21
I7
ssg19
g22
sg21
I44
ssg19
g20
sg21
I26
ssg19
g18
sg21
I6
ssg19
g22
sg21
I138
ssg19
g20
sg21
I147
ssg19
g20
sg21
I74
ssg19
g23
sg21
I0
ssg19
g23
sg21
I1
ssg19
g22
sg21
I46
ssg19
g22
sg21
I137
ssg19
g18
sg21
I13
sa(dp4024
g2
(dp4025
g2
(dp4026
g2
(dp4027
g2
(dp4028
g2
(dp4029
g2
(dp4030
g2
(dp4031
g2
(dp4032
g2
(dp4033
g2
(dp4034
g2
(dp4035
g2
(dp4036
g2
(dp4037
g2
(dp4038
g2
(dp4039
g2
g18
sg19
g22
sg21
I138
ssg19
g20
sg21
I180
ssg19
g23
sg21
I0
ssg19
g20
sg21
I22
ssg19
g20
sg21
I179
ssg19
g23
sg21
I146
ssg19
g20
sg21
I182
ssg19
g18
sg21
I14
ssg19
g18
sg21
I38
ssg19
g18
sg21
I46
ssg19
g20
sg21
I158
ssg19
g23
sg21
I155
ssg19
g22
sg21
I157
ssg19
g20
sg21
I151
ssg19
g20
sg21
I86
ssg19
g22
sg21
I191
sa(dp4040
g2
(dp4041
g2
(dp4042
g2
(dp4043
g2
(dp4044
g2
(dp4045
g2
(dp4046
g2
(dp4047
g2
(dp4048
g2
(dp4049
g2
(dp4050
g2
(dp4051
g2
(dp4052
g2
(dp4053
g2
(dp4054
g2
(dp4055
g2
g20
sg19
g22
sg21
I140
ssg19
g22
sg21
I67
ssg19
g22
sg21
I155
ssg19
g18
sg21
I3
ssg19
g23
sg21
I0
ssg19
g22
sg21
I85
ssg19
g20
sg21
I127
ssg19
g23
sg21
I91
ssg19
g20
sg21
I179
ssg19
g18
sg21
I73
ssg19
g22
sg21
I49
ssg19
g20
sg21
I170
ssg19
g22
sg21
I119
ssg19
g23
sg21
I52
ssg19
g23
sg21
I100
ssg19
g18
sg21
I104
sa(dp4056
g2
(dp4057
g2
(dp4058
g2
(dp4059
g2
(dp4060
g2
(dp4061
g2
(dp4062
g2
(dp4063
g2
(dp4064
g2
(dp4065
g2
(dp4066
g2
(dp4067
g2
(dp4068
g2
(dp4069
g2
(dp4070
g2
(dp4071
g2
g18
sg19
g22
sg21
I58
ssg19
g22
sg21
I93
ssg19
g22
sg21
I116
ssg19
g18
sg21
I54
ssg19
g20
sg21
I126
ssg19
g23
sg21
I0
ssg19
g22
sg21
I133
ssg19
g20
sg21
I137
ssg19
g23
sg21
I74
ssg19
g20
sg21
I125
ssg19
g23
sg21
I80
ssg19
g22
sg21
I88
ssg19
g23
sg21
I100
ssg19
g22
sg21
I136
ssg19
g18
sg21
I87
ssg19
g18
sg21
I61
sa(dp4072
g2
(dp4073
g2
(dp4074
g2
(dp4075
g2
(dp4076
g2
(dp4077
g2
(dp4078
g2
(dp4079
g2
(dp4080
g2
(dp4081
g2
(dp4082
g2
(dp4083
g2
(dp4084
g2
(dp4085
g2
(dp4086
g2
(dp4087
g2
g20
sg19
g23
sg21
I139
ssg19
g20
sg21
I32
ssg19
g22
sg21
I39
ssg19
g18
sg21
I136
ssg19
g23
sg21
I61
ssg19
g20
sg21
I137
ssg19
g23
sg21
I80
ssg19
g22
sg21
I96
ssg19
g22
sg21
I118
ssg19
g20
sg21
I117
ssg19
g22
sg21
I93
ssg19
g18
sg21
I36
ssg19
g18
sg21
I87
ssg19
g18
sg21
I106
ssg19
g23
sg21
I88
ssg19
g22
sg21
I66
sa(dp4088
g2
(dp4089
g2
(dp4090
g2
(dp4091
g2
(dp4092
g2
(dp4093
g2
(dp4094
g2
(dp4095
g2
(dp4096
g2
(dp4097
g2
(dp4098
g2
(dp4099
g2
(dp4100
g2
(dp4101
g2
(dp4102
g2
(dp4103
g2
g20
sg19
g18
sg21
I3
ssg19
g23
sg21
I96
ssg19
g23
sg21
I67
ssg19
g22
sg21
I77
ssg19
g23
sg21
I24
ssg19
g18
sg21
I90
ssg19
g23
sg21
I58
ssg19
g23
sg21
I94
ssg19
g23
sg21
I139
ssg19
g22
sg21
I55
ssg19
g23
sg21
I78
ssg19
g18
sg21
I39
ssg19
g22
sg21
I48
ssg19
g23
sg21
I75
ssg19
g18
sg21
I15
ssg19
g22
sg21
I85
sa(dp4104
g2
(dp4105
g2
(dp4106
g2
(dp4107
g2
(dp4108
g2
(dp4109
g2
(dp4110
g2
(dp4111
g2
(dp4112
g2
(dp4113
g2
(dp4114
g2
(dp4115
g2
(dp4116
g2
(dp4117
g2
(dp4118
g2
(dp4119
g2
g18
sg19
g20
sg21
I186
ssg19
g18
sg21
I103
ssg19
g20
sg21
I16
ssg19
g18
sg21
I5
ssg19
g20
sg21
I102
ssg19
g23
sg21
I32
ssg19
g18
sg21
I11
ssg19
g23
sg21
I98
ssg19
g20
sg21
I187
ssg19
g23
sg21
I105
ssg19
g20
sg21
I141
ssg19
g18
sg21
I23
ssg19
g22
sg21
I83
ssg19
g22
sg21
I94
ssg19
g22
sg21
I90
ssg19
g18
sg21
I87
sa(dp4120
g2
(dp4121
g2
(dp4122
g2
(dp4123
g2
(dp4124
g2
(dp4125
g2
(dp4126
g2
(dp4127
g2
(dp4128
g2
(dp4129
g2
(dp4130
g2
(dp4131
g2
(dp4132
g2
(dp4133
g2
(dp4134
g2
(dp4135
g2
g20
sg19
g23
sg21
I23
ssg19
g23
sg21
I73
ssg19
g20
sg21
I149
ssg19
g18
sg21
I70
ssg19
g18
sg21
I36
ssg19
g20
sg21
I25
ssg19
g22
sg21
I96
ssg19
g20
sg21
I171
ssg19
g18
sg21
I82
ssg19
g18
sg21
I38
ssg19
g22
sg21
I113
ssg19
g18
sg21
I64
ssg19
g18
sg21
I80
ssg19
g18
sg21
I166
ssg19
g22
sg21
I85
ssg19
g23
sg21
I0
sa(dp4136
g2
(dp4137
g2
(dp4138
g2
(dp4139
g2
(dp4140
g2
(dp4141
g2
(dp4142
g2
(dp4143
g2
(dp4144
g2
(dp4145
g2
(dp4146
g2
(dp4147
g2
(dp4148
g2
(dp4149
g2
(dp4150
g2
(dp4151
g2
g20
sg19
g22
sg21
I21
ssg19
g20
sg21
I156
ssg19
g20
sg21
I174
ssg19
g20
sg21
I180
ssg19
g22
sg21
I87
ssg19
g18
sg21
I27
ssg19
g23
sg21
I0
ssg19
g18
sg21
I38
ssg19
g22
sg21
I184
ssg19
g18
sg21
I16
ssg19
g23
sg21
I80
ssg19
g23
sg21
I175
ssg19
g20
sg21
I154
ssg19
g20
sg21
I134
ssg19
g18
sg21
I40
ssg19
g23
sg21
I58
sa(dp4152
g2
(dp4153
g2
(dp4154
g2
(dp4155
g2
(dp4156
g2
(dp4157
g2
(dp4158
g2
(dp4159
g2
(dp4160
g2
(dp4161
g2
(dp4162
g2
(dp4163
g2
(dp4164
g2
(dp4165
g2
(dp4166
g2
(dp4167
g2
g22
sg19
g18
sg21
I5
ssg19
g20
sg21
I171
ssg19
g22
sg21
I94
ssg19
g23
sg21
I0
ssg19
g18
sg21
I136
ssg19
g23
sg21
I58
ssg19
g22
sg21
I87
ssg19
g23
sg21
I83
ssg19
g20
sg21
I134
ssg19
g20
sg21
I111
ssg19
g18
sg21
I55
ssg19
g22
sg21
I124
ssg19
g22
sg21
I88
ssg19
g23
sg21
I85
ssg19
g23
sg21
I101
ssg19
g23
sg21
I100
sa(dp4168
g2
(dp4169
g2
(dp4170
g2
(dp4171
g2
(dp4172
g2
(dp4173
g2
(dp4174
g2
(dp4175
g2
(dp4176
g2
(dp4177
g2
(dp4178
g2
(dp4179
g2
(dp4180
g2
(dp4181
g2
(dp4182
g2
(dp4183
g2
g18
sg19
g20
sg21
I180
ssg19
g22
sg21
I114
ssg19
g20
sg21
I156
ssg19
g23
sg21
I0
ssg19
g20
sg21
I148
ssg19
g18
sg21
I4
ssg19
g20
sg21
I134
ssg19
g22
sg21
I92
ssg19
g23
sg21
I163
ssg19
g20
sg21
I127
ssg19
g18
sg21
I82
ssg19
g23
sg21
I101
ssg19
g22
sg21
I112
ssg19
g22
sg21
I89
ssg19
g18
sg21
I151
ssg19
g22
sg21
I85
sa(dp4184
g2
(dp4185
g2
(dp4186
g2
(dp4187
g2
(dp4188
g2
(dp4189
g2
(dp4190
g2
(dp4191
g2
(dp4192
g2
(dp4193
g2
(dp4194
g2
(dp4195
g2
(dp4196
g2
(dp4197
g2
(dp4198
g2
(dp4199
g2
g18
sg19
g22
sg21
I95
ssg19
g20
sg21
I67
ssg19
g22
sg21
I187
ssg19
g23
sg21
I0
ssg19
g20
sg21
I16
ssg19
g23
sg21
I59
ssg19
g22
sg21
I68
ssg19
g18
sg21
I8
ssg19
g23
sg21
I181
ssg19
g20
sg21
I152
ssg19
g18
sg21
I131
ssg19
g23
sg21
I29
ssg19
g18
sg21
I88
ssg19
g20
sg21
I157
ssg19
g20
sg21
I185
ssg19
g18
sg21
I31
sa(dp4200
g2
(dp4201
g2
(dp4202
g2
(dp4203
g2
(dp4204
g2
(dp4205
g2
(dp4206
g2
(dp4207
g2
(dp4208
g2
(dp4209
g2
(dp4210
g2
(dp4211
g2
(dp4212
g2
(dp4213
g2
(dp4214
g2
(dp4215
g2
g18
sg19
g20
sg21
I115
ssg19
g20
sg21
I155
ssg19
g22
sg21
I154
ssg19
g23
sg21
I0
ssg19
g23
sg21
I35
ssg19
g20
sg21
I74
ssg19
g23
sg21
I177
ssg19
g18
sg21
I92
ssg19
g22
sg21
I44
ssg19
g18
sg21
I26
ssg19
g20
sg21
I159
ssg19
g20
sg21
I98
ssg19
g20
sg21
I180
ssg19
g22
sg21
I23
ssg19
g23
sg21
I173
ssg19
g18
sg21
I2
sa(dp4216
g2
(dp4217
g2
(dp4218
g2
(dp4219
g2
(dp4220
g2
(dp4221
g2
(dp4222
g2
(dp4223
g2
(dp4224
g2
(dp4225
g2
(dp4226
g2
(dp4227
g2
(dp4228
g2
(dp4229
g2
(dp4230
g2
(dp4231
g2
g23
sg19
g22
sg21
I130
ssg19
g20
sg21
I177
ssg19
g22
sg21
I41
ssg19
g23
sg21
I105
ssg19
g20
sg21
I191
ssg19
g20
sg21
I156
ssg19
g20
sg21
I84
ssg19
g18
sg21
I52
ssg19
g18
sg21
I9
ssg19
g22
sg21
I121
ssg19
g23
sg21
I129
ssg19
g20
sg21
I158
ssg19
g18
sg21
I157
ssg19
g20
sg21
I28
ssg19
g20
sg21
I143
ssg19
g23
sg21
I108
sa(dp4232
g2
(dp4233
g2
(dp4234
g2
(dp4235
g2
(dp4236
g2
(dp4237
g2
(dp4238
g2
(dp4239
g2
(dp4240
g2
(dp4241
g2
(dp4242
g2
(dp4243
g2
(dp4244
g2
(dp4245
g2
(dp4246
g2
(dp4247
g2
g18
sg19
g23
sg21
I139
ssg19
g23
sg21
I74
ssg19
g22
sg21
I56
ssg19
g20
sg21
I167
ssg19
g22
sg21
I119
ssg19
g18
sg21
I42
ssg19
g23
sg21
I107
ssg19
g20
sg21
I110
ssg19
g23
sg21
I161
ssg19
g20
sg21
I155
ssg19
g23
sg21
I49
ssg19
g20
sg21
I135
ssg19
g23
sg21
I105
ssg19
g23
sg21
I101
ssg19
g22
sg21
I114
ssg19
g18
sg21
I83
sa(dp4248
g2
(dp4249
g2
(dp4250
g2
(dp4251
g2
(dp4252
g2
(dp4253
g2
(dp4254
g2
(dp4255
g2
(dp4256
g2
(dp4257
g2
(dp4258
g2
(dp4259
g2
(dp4260
g2
(dp4261
g2
(dp4262
g2
(dp4263
g2
g22
sg19
g18
sg21
I135
ssg19
g23
sg21
I43
ssg19
g23
sg21
I182
ssg19
g20
sg21
I167
ssg19
g23
sg21
I2
ssg19
g23
sg21
I102
ssg19
g20
sg21
I177
ssg19
g23
sg21
I88
ssg19
g18
sg21
I18
ssg19
g22
sg21
I48
ssg19
g22
sg21
I8
ssg19
g23
sg21
I32
ssg19
g18
sg21
I26
ssg19
g23
sg21
I125
ssg19
g20
sg21
I130
ssg19
g22
sg21
I112
sa(dp4264
g2
(dp4265
g2
(dp4266
g2
(dp4267
g2
(dp4268
g2
(dp4269
g2
(dp4270
g2
(dp4271
g2
(dp4272
g2
(dp4273
g2
(dp4274
g2
(dp4275
g2
(dp4276
g2
(dp4277
g2
(dp4278
g2
(dp4279
g2
g18
sg19
g22
sg21
I97
ssg19
g22
sg21
I115
ssg19
g20
sg21
I67
ssg19
g23
sg21
I168
ssg19
g20
sg21
I191
ssg19
g22
sg21
I54
ssg19
g22
sg21
I7
ssg19
g22
sg21
I38
ssg19
g22
sg21
I141
ssg19
g18
sg21
I6
ssg19
g20
sg21
I153
ssg19
g22
sg21
I119
ssg19
g23
sg21
I0
ssg19
g20
sg21
I158
ssg19
g18
sg21
I35
ssg19
g20
sg21
I127
sa(dp4280
g2
(dp4281
g2
(dp4282
g2
(dp4283
g2
(dp4284
g2
(dp4285
g2
(dp4286
g2
(dp4287
g2
(dp4288
g2
(dp4289
g2
(dp4290
g2
(dp4291
g2
(dp4292
g2
(dp4293
g2
(dp4294
g2
(dp4295
g2
g18
sg19
g22
sg21
I183
ssg19
g22
sg21
I88
ssg19
g20
sg21
I172
ssg19
g18
sg21
I95
ssg19
g18
sg21
I70
ssg19
g20
sg21
I162
ssg19
g20
sg21
I150
ssg19
g20
sg21
I22
ssg19
g22
sg21
I168
ssg19
g20
sg21
I129
ssg19
g20
sg21
I149
ssg19
g18
sg21
I29
ssg19
g18
sg21
I33
ssg19
g20
sg21
I123
ssg19
g23
sg21
I0
ssg19
g20
sg21
I121
sa(dp4296
g2
(dp4297
g2
(dp4298
g2
(dp4299
g2
(dp4300
g2
(dp4301
g2
(dp4302
g2
(dp4303
g2
(dp4304
g2
(dp4305
g2
(dp4306
g2
(dp4307
g2
(dp4308
g2
(dp4309
g2
(dp4310
g2
(dp4311
g2
g23
sg19
g20
sg21
I22
ssg19
g18
sg21
I47
ssg19
g22
sg21
I28
ssg19
g18
sg21
I145
ssg19
g23
sg21
I51
ssg19
g22
sg21
I67
ssg19
g18
sg21
I42
ssg19
g22
sg21
I144
ssg19
g23
sg21
I130
ssg19
g18
sg21
I60
ssg19
g20
sg21
I134
ssg19
g22
sg21
I139
ssg19
g23
sg21
I49
ssg19
g18
sg21
I58
ssg19
g20
sg21
I133
ssg19
g23
sg21
I83
sa(dp4312
g2
(dp4313
g2
(dp4314
g2
(dp4315
g2
(dp4316
g2
(dp4317
g2
(dp4318
g2
(dp4319
g2
(dp4320
g2
(dp4321
g2
(dp4322
g2
(dp4323
g2
(dp4324
g2
(dp4325
g2
(dp4326
g2
(dp4327
g2
g18
sg19
g20
sg21
I16
ssg19
g22
sg21
I48
ssg19
g18
sg21
I45
ssg19
g18
sg21
I160
ssg19
g22
sg21
I78
ssg19
g20
sg21
I159
ssg19
g22
sg21
I96
ssg19
g20
sg21
I143
ssg19
g23
sg21
I0
ssg19
g18
sg21
I6
ssg19
g23
sg21
I81
ssg19
g20
sg21
I123
ssg19
g18
sg21
I63
ssg19
g23
sg21
I74
ssg19
g18
sg21
I191
ssg19
g22
sg21
I114
sa(dp4328
g2
(dp4329
g2
(dp4330
g2
(dp4331
g2
(dp4332
g2
(dp4333
g2
(dp4334
g2
(dp4335
g2
(dp4336
g2
(dp4337
g2
(dp4338
g2
(dp4339
g2
(dp4340
g2
(dp4341
g2
(dp4342
g2
(dp4343
g2
g20
sg19
g18
sg21
I7
ssg19
g22
sg21
I157
ssg19
g20
sg21
I173
ssg19
g22
sg21
I23
ssg19
g20
sg21
I81
ssg19
g18
sg21
I148
ssg19
g20
sg21
I172
ssg19
g22
sg21
I66
ssg19
g20
sg21
I50
ssg19
g18
sg21
I127
ssg19
g20
sg21
I140
ssg19
g18
sg21
I27
ssg19
g20
sg21
I164
ssg19
g18
sg21
I57
ssg19
g20
sg21
I90
ssg19
g23
sg21
I0
sa(dp4344
g2
(dp4345
g2
(dp4346
g2
(dp4347
g2
(dp4348
g2
(dp4349
g2
(dp4350
g2
(dp4351
g2
(dp4352
g2
(dp4353
g2
(dp4354
g2
(dp4355
g2
(dp4356
g2
(dp4357
g2
(dp4358
g2
(dp4359
g2
g20
sg19
g18
sg21
I5
ssg19
g22
sg21
I72
ssg19
g20
sg21
I151
ssg19
g18
sg21
I100
ssg19
g20
sg21
I88
ssg19
g22
sg21
I16
ssg19
g20
sg21
I155
ssg19
g18
sg21
I57
ssg19
g20
sg21
I132
ssg19
g23
sg21
I0
ssg19
g22
sg21
I191
ssg19
g20
sg21
I154
ssg19
g23
sg21
I82
ssg19
g18
sg21
I85
ssg19
g20
sg21
I109
ssg19
g22
sg21
I22
sa(dp4360
g2
(dp4361
g2
(dp4362
g2
(dp4363
g2
(dp4364
g2
(dp4365
g2
(dp4366
g2
(dp4367
g2
(dp4368
g2
(dp4369
g2
(dp4370
g2
(dp4371
g2
(dp4372
g2
(dp4373
g2
(dp4374
g2
(dp4375
g2
g23
sg19
g22
sg21
I72
ssg19
g22
sg21
I43
ssg19
g23
sg21
I131
ssg19
g18
sg21
I86
ssg19
g18
sg21
I8
ssg19
g22
sg21
I71
ssg19
g20
sg21
I114
ssg19
g18
sg21
I14
ssg19
g23
sg21
I74
ssg19
g20
sg21
I17
ssg19
g20
sg21
I185
ssg19
g18
sg21
I18
ssg19
g23
sg21
I106
ssg19
g22
sg21
I119
ssg19
g22
sg21
I115
ssg19
g22
sg21
I112
sa(dp4376
g2
(dp4377
g2
(dp4378
g2
(dp4379
g2
(dp4380
g2
(dp4381
g2
(dp4382
g2
(dp4383
g2
(dp4384
g2
(dp4385
g2
(dp4386
g2
(dp4387
g2
(dp4388
g2
(dp4389
g2
(dp4390
g2
(dp4391
g2
g20
sg19
g23
sg21
I102
ssg19
g18
sg21
I67
ssg19
g20
sg21
I161
ssg19
g18
sg21
I36
ssg19
g18
sg21
I37
ssg19
g20
sg21
I124
ssg19
g23
sg21
I56
ssg19
g18
sg21
I42
ssg19
g22
sg21
I93
ssg19
g22
sg21
I117
ssg19
g22
sg21
I91
ssg19
g18
sg21
I55
ssg19
g22
sg21
I89
ssg19
g22
sg21
I160
ssg19
g18
sg21
I106
ssg19
g20
sg21
I133
sa(dp4392
g2
(dp4393
g2
(dp4394
g2
(dp4395
g2
(dp4396
g2
(dp4397
g2
(dp4398
g2
(dp4399
g2
(dp4400
g2
(dp4401
g2
(dp4402
g2
(dp4403
g2
(dp4404
g2
(dp4405
g2
(dp4406
g2
(dp4407
g2
g22
sg19
g18
sg21
I18
ssg19
g22
sg21
I92
ssg19
g20
sg21
I140
ssg19
g23
sg21
I0
ssg19
g23
sg21
I29
ssg19
g23
sg21
I105
ssg19
g23
sg21
I26
ssg19
g18
sg21
I86
ssg19
g22
sg21
I88
ssg19
g22
sg21
I62
ssg19
g20
sg21
I38
ssg19
g22
sg21
I111
ssg19
g22
sg21
I64
ssg19
g18
sg21
I133
ssg19
g20
sg21
I127
ssg19
g23
sg21
I55
sa(dp4408
g2
(dp4409
g2
(dp4410
g2
(dp4411
g2
(dp4412
g2
(dp4413
g2
(dp4414
g2
(dp4415
g2
(dp4416
g2
(dp4417
g2
(dp4418
g2
(dp4419
g2
(dp4420
g2
(dp4421
g2
(dp4422
g2
(dp4423
g2
g18
sg19
g20
sg21
I172
ssg19
g22
sg21
I141
ssg19
g20
sg21
I149
ssg19
g22
sg21
I21
ssg19
g18
sg21
I38
ssg19
g23
sg21
I124
ssg19
g23
sg21
I126
ssg19
g22
sg21
I80
ssg19
g20
sg21
I134
ssg19
g20
sg21
I129
ssg19
g23
sg21
I81
ssg19
g23
sg21
I50
ssg19
g23
sg21
I2
ssg19
g18
sg21
I14
ssg19
g23
sg21
I85
ssg19
g22
sg21
I137
sa(dp4424
g2
(dp4425
g2
(dp4426
g2
(dp4427
g2
(dp4428
g2
(dp4429
g2
(dp4430
g2
(dp4431
g2
(dp4432
g2
(dp4433
g2
(dp4434
g2
(dp4435
g2
(dp4436
g2
(dp4437
g2
(dp4438
g2
(dp4439
g2
g18
sg19
g18
sg21
I55
ssg19
g20
sg21
I180
ssg19
g18
sg21
I112
ssg19
g20
sg21
I43
ssg19
g20
sg21
I93
ssg19
g20
sg21
I4
ssg19
g22
sg21
I71
ssg19
g20
sg21
I177
ssg19
g22
sg21
I63
ssg19
g18
sg21
I29
ssg19
g23
sg21
I0
ssg19
g22
sg21
I161
ssg19
g18
sg21
I81
ssg19
g23
sg21
I173
ssg19
g20
sg21
I155
ssg19
g22
sg21
I145
sa(dp4440
g2
(dp4441
g2
(dp4442
g2
(dp4443
g2
(dp4444
g2
(dp4445
g2
(dp4446
g2
(dp4447
g2
(dp4448
g2
(dp4449
g2
(dp4450
g2
(dp4451
g2
(dp4452
g2
(dp4453
g2
(dp4454
g2
(dp4455
g2
g18
sg19
g20
sg21
I191
ssg19
g20
sg21
I160
ssg19
g22
sg21
I103
ssg19
g22
sg21
I132
ssg19
g22
sg21
I73
ssg19
g20
sg21
I58
ssg19
g22
sg21
I165
ssg19
g20
sg21
I170
ssg19
g18
sg21
I60
ssg19
g20
sg21
I99
ssg19
g22
sg21
I118
ssg19
g23
sg21
I0
ssg19
g20
sg21
I140
ssg19
g23
sg21
I126
ssg19
g22
sg21
I143
ssg19
g23
sg21
I83
sa(dp4456
g2
(dp4457
g2
(dp4458
g2
(dp4459
g2
(dp4460
g2
(dp4461
g2
(dp4462
g2
(dp4463
g2
(dp4464
g2
(dp4465
g2
(dp4466
g2
(dp4467
g2
(dp4468
g2
(dp4469
g2
(dp4470
g2
(dp4471
g2
g23
sg19
g18
sg21
I164
ssg19
g22
sg21
I90
ssg19
g18
sg21
I37
ssg19
g20
sg21
I4
ssg19
g23
sg21
I27
ssg19
g18
sg21
I68
ssg19
g18
sg21
I12
ssg19
g22
sg21
I120
ssg19
g22
sg21
I169
ssg19
g23
sg21
I177
ssg19
g20
sg21
I138
ssg19
g18
sg21
I41
ssg19
g20
sg21
I71
ssg19
g20
sg21
I85
ssg19
g18
sg21
I108
ssg19
g23
sg21
I19
sa(dp4472
g2
(dp4473
g2
(dp4474
g2
(dp4475
g2
(dp4476
g2
(dp4477
g2
(dp4478
g2
(dp4479
g2
(dp4480
g2
(dp4481
g2
(dp4482
g2
(dp4483
g2
(dp4484
g2
(dp4485
g2
(dp4486
g2
(dp4487
g2
g23
sg19
g22
sg21
I73
ssg19
g18
sg21
I142
ssg19
g22
sg21
I96
ssg19
g23
sg21
I30
ssg19
g18
sg21
I18
ssg19
g22
sg21
I13
ssg19
g20
sg21
I185
ssg19
g22
sg21
I25
ssg19
g20
sg21
I149
ssg19
g23
sg21
I4
ssg19
g23
sg21
I22
ssg19
g18
sg21
I35
ssg19
g22
sg21
I47
ssg19
g23
sg21
I122
ssg19
g18
sg21
I62
ssg19
g18
sg21
I61
sa(dp4488
g2
(dp4489
g2
(dp4490
g2
(dp4491
g2
(dp4492
g2
(dp4493
g2
(dp4494
g2
(dp4495
g2
(dp4496
g2
(dp4497
g2
(dp4498
g2
(dp4499
g2
(dp4500
g2
(dp4501
g2
(dp4502
g2
(dp4503
g2
g18
sg19
g23
sg21
I111
ssg19
g20
sg21
I99
ssg19
g22
sg21
I13
ssg19
g18
sg21
I169
ssg19
g20
sg21
I191
ssg19
g18
sg21
I56
ssg19
g23
sg21
I0
ssg19
g23
sg21
I3
ssg19
g20
sg21
I116
ssg19
g18
sg21
I18
ssg19
g22
sg21
I143
ssg19
g18
sg21
I71
ssg19
g22
sg21
I141
ssg19
g22
sg21
I43
ssg19
g20
sg21
I133
ssg19
g22
sg21
I109
sa(dp4504
g2
(dp4505
g2
(dp4506
g2
(dp4507
g2
(dp4508
g2
(dp4509
g2
(dp4510
g2
(dp4511
g2
(dp4512
g2
(dp4513
g2
(dp4514
g2
(dp4515
g2
(dp4516
g2
(dp4517
g2
(dp4518
g2
(dp4519
g2
g23
sg19
g22
sg21
I95
ssg19
g20
sg21
I36
ssg19
g23
sg21
I158
ssg19
g22
sg21
I117
ssg19
g18
sg21
I57
ssg19
g20
sg21
I152
ssg19
g23
sg21
I79
ssg19
g22
sg21
I89
ssg19
g22
sg21
I116
ssg19
g18
sg21
I38
ssg19
g18
sg21
I60
ssg19
g22
sg21
I61
ssg19
g20
sg21
I137
ssg19
g23
sg21
I77
ssg19
g18
sg21
I84
ssg19
g23
sg21
I56
sa(dp4520
g2
(dp4521
g2
(dp4522
g2
(dp4523
g2
(dp4524
g2
(dp4525
g2
(dp4526
g2
(dp4527
g2
(dp4528
g2
(dp4529
g2
(dp4530
g2
(dp4531
g2
(dp4532
g2
(dp4533
g2
(dp4534
g2
(dp4535
g2
g22
sg19
g20
sg21
I165
ssg19
g18
sg21
I70
ssg19
g20
sg21
I147
ssg19
g22
sg21
I72
ssg19
g18
sg21
I2
ssg19
g23
sg21
I0
ssg19
g20
sg21
I122
ssg19
g23
sg21
I104
ssg19
g20
sg21
I179
ssg19
g23
sg21
I35
ssg19
g18
sg21
I14
ssg19
g23
sg21
I73
ssg19
g20
sg21
I135
ssg19
g18
sg21
I10
ssg19
g18
sg21
I15
ssg19
g23
sg21
I109
sa(dp4536
g2
(dp4537
g2
(dp4538
g2
(dp4539
g2
(dp4540
g2
(dp4541
g2
(dp4542
g2
(dp4543
g2
(dp4544
g2
(dp4545
g2
(dp4546
g2
(dp4547
g2
(dp4548
g2
(dp4549
g2
(dp4550
g2
(dp4551
g2
g20
sg19
g22
sg21
I139
ssg19
g18
sg21
I24
ssg19
g23
sg21
I27
ssg19
g20
sg21
I142
ssg19
g18
sg21
I68
ssg19
g18
sg21
I82
ssg19
g18
sg21
I36
ssg19
g22
sg21
I92
ssg19
g22
sg21
I138
ssg19
g20
sg21
I146
ssg19
g22
sg21
I37
ssg19
g20
sg21
I132
ssg19
g18
sg21
I6
ssg19
g23
sg21
I0
ssg19
g20
sg21
I178
ssg19
g22
sg21
I71
sa(dp4552
g2
(dp4553
g2
(dp4554
g2
(dp4555
g2
(dp4556
g2
(dp4557
g2
(dp4558
g2
(dp4559
g2
(dp4560
g2
(dp4561
g2
(dp4562
g2
(dp4563
g2
(dp4564
g2
(dp4565
g2
(dp4566
g2
(dp4567
g2
g20
sg19
g23
sg21
I133
ssg19
g22
sg21
I176
ssg19
g22
sg21
I110
ssg19
g18
sg21
I160
ssg19
g20
sg21
I150
ssg19
g22
sg21
I108
ssg19
g23
sg21
I73
ssg19
g18
sg21
I69
ssg19
g20
sg21
I190
ssg19
g23
sg21
I9
ssg19
g18
sg21
I23
ssg19
g18
sg21
I48
ssg19
g22
sg21
I120
ssg19
g18
sg21
I140
ssg19
g23
sg21
I116
ssg19
g22
sg21
I163
sa(dp4568
g2
(dp4569
g2
(dp4570
g2
(dp4571
g2
(dp4572
g2
(dp4573
g2
(dp4574
g2
(dp4575
g2
(dp4576
g2
(dp4577
g2
(dp4578
g2
(dp4579
g2
(dp4580
g2
(dp4581
g2
(dp4582
g2
(dp4583
g2
g20
sg19
g22
sg21
I93
ssg19
g18
sg21
I108
ssg19
g18
sg21
I56
ssg19
g20
sg21
I123
ssg19
g22
sg21
I106
ssg19
g18
sg21
I9
ssg19
g22
sg21
I154
ssg19
g20
sg21
I10
ssg19
g23
sg21
I0
ssg19
g18
sg21
I71
ssg19
g18
sg21
I16
ssg19
g20
sg21
I118
ssg19
g18
sg21
I166
ssg19
g22
sg21
I95
ssg19
g20
sg21
I178
ssg19
g18
sg21
I86
sa(dp4584
g2
(dp4585
g2
(dp4586
g2
(dp4587
g2
(dp4588
g2
(dp4589
g2
(dp4590
g2
(dp4591
g2
(dp4592
g2
(dp4593
g2
(dp4594
g2
(dp4595
g2
(dp4596
g2
(dp4597
g2
(dp4598
g2
(dp4599
g2
g23
sg19
g20
sg21
I183
ssg19
g18
sg21
I184
ssg19
g20
sg21
I68
ssg19
g18
sg21
I45
ssg19
g20
sg21
I114
ssg19
g18
sg21
I36
ssg19
g23
sg21
I96
ssg19
g18
sg21
I60
ssg19
g22
sg21
I93
ssg19
g23
sg21
I106
ssg19
g23
sg21
I134
ssg19
g22
sg21
I61
ssg19
g22
sg21
I110
ssg19
g20
sg21
I159
ssg19
g23
sg21
I83
ssg19
g22
sg21
I59
sa(dp4600
g2
(dp4601
g2
(dp4602
g2
(dp4603
g2
(dp4604
g2
(dp4605
g2
(dp4606
g2
(dp4607
g2
(dp4608
g2
(dp4609
g2
(dp4610
g2
(dp4611
g2
(dp4612
g2
(dp4613
g2
(dp4614
g2
(dp4615
g2
g23
sg19
g20
sg21
I157
ssg19
g18
sg21
I10
ssg19
g22
sg21
I144
ssg19
g18
sg21
I12
ssg19
g20
sg21
I186
ssg19
g20
sg21
I134
ssg19
g18
sg21
I49
ssg19
g23
sg21
I152
ssg19
g22
sg21
I89
ssg19
g23
sg21
I4
ssg19
g23
sg21
I27
ssg19
g18
sg21
I71
ssg19
g20
sg21
I124
ssg19
g22
sg21
I92
ssg19
g23
sg21
I122
ssg19
g20
sg21
I121
sa(dp4616
g2
(dp4617
g2
(dp4618
g2
(dp4619
g2
(dp4620
g2
(dp4621
g2
(dp4622
g2
(dp4623
g2
(dp4624
g2
(dp4625
g2
(dp4626
g2
(dp4627
g2
(dp4628
g2
(dp4629
g2
(dp4630
g2
(dp4631
g2
g22
sg19
g20
sg21
I154
ssg19
g22
sg21
I34
ssg19
g18
sg21
I53
ssg19
g18
sg21
I37
ssg19
g22
sg21
I46
ssg19
g20
sg21
I67
ssg19
g20
sg21
I25
ssg19
g20
sg21
I160
ssg19
g23
sg21
I0
ssg19
g23
sg21
I73
ssg19
g20
sg21
I181
ssg19
g20
sg21
I43
ssg19
g18
sg21
I20
ssg19
g22
sg21
I187
ssg19
g18
sg21
I28
ssg19
g18
sg21
I148
sa(dp4632
g2
(dp4633
g2
(dp4634
g2
(dp4635
g2
(dp4636
g2
(dp4637
g2
(dp4638
g2
(dp4639
g2
(dp4640
g2
(dp4641
g2
(dp4642
g2
(dp4643
g2
(dp4644
g2
(dp4645
g2
(dp4646
g2
(dp4647
g2
g18
sg19
g20
sg21
I25
ssg19
g20
sg21
I29
ssg19
g22
sg21
I130
ssg19
g22
sg21
I47
ssg19
g18
sg21
I129
ssg19
g20
sg21
I66
ssg19
g20
sg21
I180
ssg19
g18
sg21
I19
ssg19
g20
sg21
I185
ssg19
g22
sg21
I117
ssg19
g18
sg21
I6
ssg19
g23
sg21
I0
ssg19
g22
sg21
I95
ssg19
g23
sg21
I28
ssg19
g22
sg21
I124
ssg19
g23
sg21
I57
sa(dp4648
g2
(dp4649
g2
(dp4650
g2
(dp4651
g2
(dp4652
g2
(dp4653
g2
(dp4654
g2
(dp4655
g2
(dp4656
g2
(dp4657
g2
(dp4658
g2
(dp4659
g2
(dp4660
g2
(dp4661
g2
(dp4662
g2
(dp4663
g2
g18
sg19
g22
sg21
I36
ssg19
g20
sg21
I177
ssg19
g22
sg21
I178
ssg19
g18
sg21
I41
ssg19
g20
sg21
I1
ssg19
g22
sg21
I134
ssg19
g22
sg21
I113
ssg19
g20
sg21
I132
ssg19
g18
sg21
I87
ssg19
g22
sg21
I59
ssg19
g18
sg21
I53
ssg19
g18
sg21
I76
ssg19
g20
sg21
I81
ssg19
g18
sg21
I80
ssg19
g23
sg21
I0
ssg19
g23
sg21
I84
sa(dp4664
g2
(dp4665
g2
(dp4666
g2
(dp4667
g2
(dp4668
g2
(dp4669
g2
(dp4670
g2
(dp4671
g2
(dp4672
g2
(dp4673
g2
(dp4674
g2
(dp4675
g2
(dp4676
g2
(dp4677
g2
(dp4678
g2
(dp4679
g2
g18
sg19
g23
sg21
I105
ssg19
g22
sg21
I182
ssg19
g20
sg21
I173
ssg19
g22
sg21
I119
ssg19
g22
sg21
I113
ssg19
g20
sg21
I82
ssg19
g23
sg21
I80
ssg19
g22
sg21
I50
ssg19
g20
sg21
I143
ssg19
g20
sg21
I104
ssg19
g23
sg21
I2
ssg19
g22
sg21
I46
ssg19
g18
sg21
I85
ssg19
g23
sg21
I108
ssg19
g22
sg21
I184
ssg19
g20
sg21
I175
sa(dp4680
g2
(dp4681
g2
(dp4682
g2
(dp4683
g2
(dp4684
g2
(dp4685
g2
(dp4686
g2
(dp4687
g2
(dp4688
g2
(dp4689
g2
(dp4690
g2
(dp4691
g2
(dp4692
g2
(dp4693
g2
(dp4694
g2
(dp4695
g2
g22
sg19
g20
sg21
I119
ssg19
g22
sg21
I20
ssg19
g20
sg21
I166
ssg19
g22
sg21
I117
ssg19
g18
sg21
I74
ssg19
g20
sg21
I177
ssg19
g23
sg21
I121
ssg19
g22
sg21
I69
ssg19
g23
sg21
I152
ssg19
g23
sg21
I172
ssg19
g22
sg21
I10
ssg19
g20
sg21
I155
ssg19
g22
sg21
I65
ssg19
g23
sg21
I35
ssg19
g18
sg21
I12
ssg19
g23
sg21
I84
sa(dp4696
g2
(dp4697
g2
(dp4698
g2
(dp4699
g2
(dp4700
g2
(dp4701
g2
(dp4702
g2
(dp4703
g2
(dp4704
g2
(dp4705
g2
(dp4706
g2
(dp4707
g2
(dp4708
g2
(dp4709
g2
(dp4710
g2
(dp4711
g2
g23
sg19
g20
sg21
I189
ssg19
g22
sg21
I149
ssg19
g20
sg21
I54
ssg19
g18
sg21
I41
ssg19
g23
sg21
I51
ssg19
g18
sg21
I65
ssg19
g18
sg21
I114
ssg19
g20
sg21
I161
ssg19
g22
sg21
I72
ssg19
g22
sg21
I70
ssg19
g23
sg21
I82
ssg19
g20
sg21
I136
ssg19
g23
sg21
I127
ssg19
g20
sg21
I107
ssg19
g18
sg21
I86
ssg19
g23
sg21
I106
sa(dp4712
g2
(dp4713
g2
(dp4714
g2
(dp4715
g2
(dp4716
g2
(dp4717
g2
(dp4718
g2
(dp4719
g2
(dp4720
g2
(dp4721
g2
(dp4722
g2
(dp4723
g2
(dp4724
g2
(dp4725
g2
(dp4726
g2
(dp4727
g2
g18
sg19
g22
sg21
I168
ssg19
g20
sg21
I32
ssg19
g22
sg21
I130
ssg19
g22
sg21
I91
ssg19
g18
sg21
I6
ssg19
g22
sg21
I24
ssg19
g20
sg21
I180
ssg19
g18
sg21
I172
ssg19
g23
sg21
I0
ssg19
g23
sg21
I41
ssg19
g22
sg21
I70
ssg19
g18
sg21
I38
ssg19
g23
sg21
I53
ssg19
g20
sg21
I167
ssg19
g18
sg21
I71
ssg19
g20
sg21
I191
sa(dp4728
g2
(dp4729
g2
(dp4730
g2
(dp4731
g2
(dp4732
g2
(dp4733
g2
(dp4734
g2
(dp4735
g2
(dp4736
g2
(dp4737
g2
(dp4738
g2
(dp4739
g2
(dp4740
g2
(dp4741
g2
(dp4742
g2
(dp4743
g2
g22
sg19
g23
sg21
I130
ssg19
g18
sg21
I42
ssg19
g20
sg21
I98
ssg19
g20
sg21
I192
ssg19
g20
sg21
I168
ssg19
g22
sg21
I144
ssg19
g18
sg21
I11
ssg19
g20
sg21
I190
ssg19
g22
sg21
I23
ssg19
g22
sg21
I106
ssg19
g23
sg21
I0
ssg19
g20
sg21
I124
ssg19
g18
sg21
I2
ssg19
g23
sg21
I81
ssg19
g18
sg21
I118
ssg19
g22
sg21
I136
sa(dp4744
g2
(dp4745
g2
(dp4746
g2
(dp4747
g2
(dp4748
g2
(dp4749
g2
(dp4750
g2
(dp4751
g2
(dp4752
g2
(dp4753
g2
(dp4754
g2
(dp4755
g2
(dp4756
g2
(dp4757
g2
(dp4758
g2
(dp4759
g2
g20
sg19
g22
sg21
I24
ssg19
g22
sg21
I36
ssg19
g18
sg21
I33
ssg19
g18
sg21
I64
ssg19
g18
sg21
I27
ssg19
g22
sg21
I133
ssg19
g18
sg21
I78
ssg19
g23
sg21
I0
ssg19
g22
sg21
I95
ssg19
g20
sg21
I6
ssg19
g23
sg21
I124
ssg19
g20
sg21
I179
ssg19
g18
sg21
I12
ssg19
g23
sg21
I111
ssg19
g20
sg21
I160
ssg19
g22
sg21
I112
sa(dp4760
g2
(dp4761
g2
(dp4762
g2
(dp4763
g2
(dp4764
g2
(dp4765
g2
(dp4766
g2
(dp4767
g2
(dp4768
g2
(dp4769
g2
(dp4770
g2
(dp4771
g2
(dp4772
g2
(dp4773
g2
(dp4774
g2
(dp4775
g2
g22
sg19
g18
sg21
I157
ssg19
g20
sg21
I150
ssg19
g23
sg21
I5
ssg19
g18
sg21
I13
ssg19
g20
sg21
I155
ssg19
g22
sg21
I118
ssg19
g18
sg21
I172
ssg19
g23
sg21
I81
ssg19
g20
sg21
I184
ssg19
g22
sg21
I62
ssg19
g22
sg21
I88
ssg19
g18
sg21
I32
ssg19
g23
sg21
I124
ssg19
g18
sg21
I61
ssg19
g23
sg21
I148
ssg19
g18
sg21
I82
sa(dp4776
g2
(dp4777
g2
(dp4778
g2
(dp4779
g2
(dp4780
g2
(dp4781
g2
(dp4782
g2
(dp4783
g2
(dp4784
g2
(dp4785
g2
(dp4786
g2
(dp4787
g2
(dp4788
g2
(dp4789
g2
(dp4790
g2
(dp4791
g2
g18
sg19
g18
sg21
I156
ssg19
g20
sg21
I159
ssg19
g20
sg21
I126
ssg19
g22
sg21
I69
ssg19
g22
sg21
I119
ssg19
g20
sg21
I162
ssg19
g22
sg21
I2
ssg19
g20
sg21
I92
ssg19
g20
sg21
I144
ssg19
g20
sg21
I115
ssg19
g18
sg21
I12
ssg19
g18
sg21
I32
ssg19
g18
sg21
I47
ssg19
g23
sg21
I0
ssg19
g18
sg21
I23
ssg19
g23
sg21
I35
sa(dp4792
g2
(dp4793
g2
(dp4794
g2
(dp4795
g2
(dp4796
g2
(dp4797
g2
(dp4798
g2
(dp4799
g2
(dp4800
g2
(dp4801
g2
(dp4802
g2
(dp4803
g2
(dp4804
g2
(dp4805
g2
(dp4806
g2
(dp4807
g2
g18
sg19
g23
sg21
I29
ssg19
g18
sg21
I28
ssg19
g22
sg21
I93
ssg19
g22
sg21
I44
ssg19
g18
sg21
I170
ssg19
g20
sg21
I58
ssg19
g20
sg21
I154
ssg19
g23
sg21
I134
ssg19
g18
sg21
I60
ssg19
g23
sg21
I126
ssg19
g23
sg21
I82
ssg19
g23
sg21
I155
ssg19
g20
sg21
I133
ssg19
g20
sg21
I156
ssg19
g23
sg21
I125
ssg19
g18
sg21
I59
sa(dp4808
g2
(dp4809
g2
(dp4810
g2
(dp4811
g2
(dp4812
g2
(dp4813
g2
(dp4814
g2
(dp4815
g2
(dp4816
g2
(dp4817
g2
(dp4818
g2
(dp4819
g2
(dp4820
g2
(dp4821
g2
(dp4822
g2
(dp4823
g2
g20
sg19
g23
sg21
I144
ssg19
g18
sg21
I70
ssg19
g22
sg21
I116
ssg19
g20
sg21
I146
ssg19
g18
sg21
I175
ssg19
g23
sg21
I0
ssg19
g22
sg21
I111
ssg19
g23
sg21
I30
ssg19
g18
sg21
I127
ssg19
g22
sg21
I160
ssg19
g20
sg21
I132
ssg19
g23
sg21
I81
ssg19
g18
sg21
I36
ssg19
g20
sg21
I140
ssg19
g23
sg21
I25
ssg19
g18
sg21
I1
sa(dp4824
g2
(dp4825
g2
(dp4826
g2
(dp4827
g2
(dp4828
g2
(dp4829
g2
(dp4830
g2
(dp4831
g2
(dp4832
g2
(dp4833
g2
(dp4834
g2
(dp4835
g2
(dp4836
g2
(dp4837
g2
(dp4838
g2
(dp4839
g2
g20
sg19
g18
sg21
I41
ssg19
g22
sg21
I59
ssg19
g22
sg21
I136
ssg19
g18
sg21
I63
ssg19
g22
sg21
I140
ssg19
g18
sg21
I122
ssg19
g20
sg21
I58
ssg19
g18
sg21
I104
ssg19
g22
sg21
I85
ssg19
g18
sg21
I151
ssg19
g23
sg21
I0
ssg19
g23
sg21
I92
ssg19
g22
sg21
I134
ssg19
g23
sg21
I101
ssg19
g23
sg21
I125
ssg19
g18
sg21
I111
sa(dp4840
g2
(dp4841
g2
(dp4842
g2
(dp4843
g2
(dp4844
g2
(dp4845
g2
(dp4846
g2
(dp4847
g2
(dp4848
g2
(dp4849
g2
(dp4850
g2
(dp4851
g2
(dp4852
g2
(dp4853
g2
(dp4854
g2
(dp4855
g2
g22
sg19
g18
sg21
I6
ssg19
g20
sg21
I149
ssg19
g20
sg21
I157
ssg19
g23
sg21
I0
ssg19
g20
sg21
I186
ssg19
g22
sg21
I122
ssg19
g18
sg21
I67
ssg19
g20
sg21
I133
ssg19
g22
sg21
I161
ssg19
g23
sg21
I182
ssg19
g23
sg21
I175
ssg19
g20
sg21
I94
ssg19
g22
sg21
I164
ssg19
g20
sg21
I191
ssg19
g18
sg21
I181
ssg19
g23
sg21
I190
sa(dp4856
g2
(dp4857
g2
(dp4858
g2
(dp4859
g2
(dp4860
g2
(dp4861
g2
(dp4862
g2
(dp4863
g2
(dp4864
g2
(dp4865
g2
(dp4866
g2
(dp4867
g2
(dp4868
g2
(dp4869
g2
(dp4870
g2
(dp4871
g2
g18
sg19
g22
sg21
I122
ssg19
g22
sg21
I167
ssg19
g22
sg21
I78
ssg19
g20
sg21
I121
ssg19
g22
sg21
I36
ssg19
g20
sg21
I191
ssg19
g20
sg21
I186
ssg19
g22
sg21
I42
ssg19
g18
sg21
I32
ssg19
g22
sg21
I27
ssg19
g18
sg21
I39
ssg19
g23
sg21
I0
ssg19
g23
sg21
I71
ssg19
g20
sg21
I164
ssg19
g22
sg21
I70
ssg19
g23
sg21
I73
sa(dp4872
g2
(dp4873
g2
(dp4874
g2
(dp4875
g2
(dp4876
g2
(dp4877
g2
(dp4878
g2
(dp4879
g2
(dp4880
g2
(dp4881
g2
(dp4882
g2
(dp4883
g2
(dp4884
g2
(dp4885
g2
(dp4886
g2
(dp4887
g2
g22
sg19
g18
sg21
I12
ssg19
g20
sg21
I153
ssg19
g22
sg21
I89
ssg19
g20
sg21
I4
ssg19
g18
sg21
I176
ssg19
g23
sg21
I0
ssg19
g23
sg21
I26
ssg19
g22
sg21
I86
ssg19
g22
sg21
I140
ssg19
g20
sg21
I152
ssg19
g18
sg21
I43
ssg19
g20
sg21
I131
ssg19
g22
sg21
I68
ssg19
g20
sg21
I134
ssg19
g18
sg21
I62
ssg19
g23
sg21
I80
sa(dp4888
g2
(dp4889
g2
(dp4890
g2
(dp4891
g2
(dp4892
g2
(dp4893
g2
(dp4894
g2
(dp4895
g2
(dp4896
g2
(dp4897
g2
(dp4898
g2
(dp4899
g2
(dp4900
g2
(dp4901
g2
(dp4902
g2
(dp4903
g2
g23
sg19
g20
sg21
I161
ssg19
g18
sg21
I44
ssg19
g18
sg21
I21
ssg19
g23
sg21
I79
ssg19
g22
sg21
I106
ssg19
g20
sg21
I65
ssg19
g20
sg21
I42
ssg19
g23
sg21
I28
ssg19
g22
sg21
I143
ssg19
g23
sg21
I133
ssg19
g18
sg21
I109
ssg19
g23
sg21
I12
ssg19
g20
sg21
I111
ssg19
g18
sg21
I61
ssg19
g23
sg21
I83
ssg19
g20
sg21
I136
sa(dp4904
g2
(dp4905
g2
(dp4906
g2
(dp4907
g2
(dp4908
g2
(dp4909
g2
(dp4910
g2
(dp4911
g2
(dp4912
g2
(dp4913
g2
(dp4914
g2
(dp4915
g2
(dp4916
g2
(dp4917
g2
(dp4918
g2
(dp4919
g2
g18
sg19
g23
sg21
I87
ssg19
g22
sg21
I46
ssg19
g22
sg21
I24
ssg19
g20
sg21
I123
ssg19
g22
sg21
I141
ssg19
g18
sg21
I9
ssg19
g20
sg21
I171
ssg19
g23
sg21
I0
ssg19
g23
sg21
I59
ssg19
g20
sg21
I176
ssg19
g22
sg21
I64
ssg19
g23
sg21
I50
ssg19
g18
sg21
I25
ssg19
g20
sg21
I151
ssg19
g18
sg21
I81
ssg19
g22
sg21
I181
sa(dp4920
g2
(dp4921
g2
(dp4922
g2
(dp4923
g2
(dp4924
g2
(dp4925
g2
(dp4926
g2
(dp4927
g2
(dp4928
g2
(dp4929
g2
(dp4930
g2
(dp4931
g2
(dp4932
g2
(dp4933
g2
(dp4934
g2
(dp4935
g2
g22
sg19
g18
sg21
I155
ssg19
g20
sg21
I22
ssg19
g20
sg21
I186
ssg19
g23
sg21
I0
ssg19
g18
sg21
I17
ssg19
g20
sg21
I74
ssg19
g18
sg21
I55
ssg19
g22
sg21
I141
ssg19
g23
sg21
I123
ssg19
g20
sg21
I178
ssg19
g18
sg21
I85
ssg19
g23
sg21
I121
ssg19
g20
sg21
I110
ssg19
g18
sg21
I43
ssg19
g23
sg21
I136
ssg19
g22
sg21
I133
sa(dp4936
g2
(dp4937
g2
(dp4938
g2
(dp4939
g2
(dp4940
g2
(dp4941
g2
(dp4942
g2
(dp4943
g2
(dp4944
g2
(dp4945
g2
(dp4946
g2
(dp4947
g2
(dp4948
g2
(dp4949
g2
(dp4950
g2
(dp4951
g2
g20
sg19
g23
sg21
I104
ssg19
g18
sg21
I169
ssg19
g18
sg21
I11
ssg19
g23
sg21
I109
ssg19
g18
sg21
I47
ssg19
g23
sg21
I106
ssg19
g22
sg21
I58
ssg19
g23
sg21
I49
ssg19
g23
sg21
I55
ssg19
g22
sg21
I52
ssg19
g18
sg21
I103
ssg19
g20
sg21
I88
ssg19
g23
sg21
I19
ssg19
g23
sg21
I76
ssg19
g20
sg21
I13
ssg19
g18
sg21
I112
sa(dp4952
g2
(dp4953
g2
(dp4954
g2
(dp4955
g2
(dp4956
g2
(dp4957
g2
(dp4958
g2
(dp4959
g2
(dp4960
g2
(dp4961
g2
(dp4962
g2
(dp4963
g2
(dp4964
g2
(dp4965
g2
(dp4966
g2
(dp4967
g2
g18
sg19
g20
sg21
I162
ssg19
g22
sg21
I131
ssg19
g22
sg21
I166
ssg19
g22
sg21
I45
ssg19
g18
sg21
I21
ssg19
g22
sg21
I52
ssg19
g20
sg21
I8
ssg19
g18
sg21
I39
ssg19
g18
sg21
I11
ssg19
g23
sg21
I0
ssg19
g20
sg21
I124
ssg19
g18
sg21
I58
ssg19
g18
sg21
I56
ssg19
g23
sg21
I62
ssg19
g18
sg21
I113
ssg19
g20
sg21
I83
sa(dp4968
g2
(dp4969
g2
(dp4970
g2
(dp4971
g2
(dp4972
g2
(dp4973
g2
(dp4974
g2
(dp4975
g2
(dp4976
g2
(dp4977
g2
(dp4978
g2
(dp4979
g2
(dp4980
g2
(dp4981
g2
(dp4982
g2
(dp4983
g2
g20
sg19
g18
sg21
I95
ssg19
g18
sg21
I5
ssg19
g20
sg21
I134
ssg19
g18
sg21
I12
ssg19
g22
sg21
I96
ssg19
g22
sg21
I90
ssg19
g22
sg21
I65
ssg19
g22
sg21
I45
ssg19
g22
sg21
I47
ssg19
g20
sg21
I153
ssg19
g18
sg21
I53
ssg19
g20
sg21
I171
ssg19
g18
sg21
I39
ssg19
g20
sg21
I147
ssg19
g22
sg21
I116
ssg19
g23
sg21
I0
sa(dp4984
g2
(dp4985
g2
(dp4986
g2
(dp4987
g2
(dp4988
g2
(dp4989
g2
(dp4990
g2
(dp4991
g2
(dp4992
g2
(dp4993
g2
(dp4994
g2
(dp4995
g2
(dp4996
g2
(dp4997
g2
(dp4998
g2
(dp4999
g2
g18
sg19
g20
sg21
I147
ssg19
g22
sg21
I18
ssg19
g18
sg21
I5
ssg19
g22
sg21
I138
ssg19
g20
sg21
I89
ssg19
g22
sg21
I56
ssg19
g22
sg21
I116
ssg19
g18
sg21
I54
ssg19
g22
sg21
I110
ssg19
g20
sg21
I165
ssg19
g23
sg21
I0
ssg19
g18
sg21
I36
ssg19
g23
sg21
I108
ssg19
g20
sg21
I104
ssg19
g23
sg21
I99
ssg19
g18
sg21
I35
sa(dp5000
g2
(dp5001
g2
(dp5002
g2
(dp5003
g2
(dp5004
g2
(dp5005
g2
(dp5006
g2
(dp5007
g2
(dp5008
g2
(dp5009
g2
(dp5010
g2
(dp5011
g2
(dp5012
g2
(dp5013
g2
(dp5014
g2
(dp5015
g2
g18
sg19
g23
sg21
I163
ssg19
g20
sg21
I180
ssg19
g22
sg21
I42
ssg19
g20
sg21
I30
ssg19
g20
sg21
I114
ssg19
g22
sg21
I44
ssg19
g20
sg21
I162
ssg19
g22
sg21
I157
ssg19
g18
sg21
I27
ssg19
g20
sg21
I184
ssg19
g22
sg21
I64
ssg19
g20
sg21
I141
ssg19
g22
sg21
I70
ssg19
g20
sg21
I146
ssg19
g18
sg21
I2
ssg19
g23
sg21
I0
sa(dp5016
g2
(dp5017
g2
(dp5018
g2
(dp5019
g2
(dp5020
g2
(dp5021
g2
(dp5022
g2
(dp5023
g2
(dp5024
g2
(dp5025
g2
(dp5026
g2
(dp5027
g2
(dp5028
g2
(dp5029
g2
(dp5030
g2
(dp5031
g2
g18
sg19
g20
sg21
I151
ssg19
g22
sg21
I130
ssg19
g20
sg21
I183
ssg19
g22
sg21
I144
ssg19
g20
sg21
I188
ssg19
g20
sg21
I153
ssg19
g20
sg21
I93
ssg19
g20
sg21
I116
ssg19
g22
sg21
I60
ssg19
g22
sg21
I68
ssg19
g20
sg21
I158
ssg19
g18
sg21
I76
ssg19
g18
sg21
I81
ssg19
g23
sg21
I0
ssg19
g20
sg21
I119
ssg19
g18
sg21
I14
sa(dp5032
g2
(dp5033
g2
(dp5034
g2
(dp5035
g2
(dp5036
g2
(dp5037
g2
(dp5038
g2
(dp5039
g2
(dp5040
g2
(dp5041
g2
(dp5042
g2
(dp5043
g2
(dp5044
g2
(dp5045
g2
(dp5046
g2
(dp5047
g2
g20
sg19
g18
sg21
I50
ssg19
g18
sg21
I60
ssg19
g22
sg21
I38
ssg19
g18
sg21
I45
ssg19
g22
sg21
I78
ssg19
g22
sg21
I58
ssg19
g22
sg21
I47
ssg19
g18
sg21
I97
ssg19
g18
sg21
I9
ssg19
g23
sg21
I0
ssg19
g22
sg21
I164
ssg19
g23
sg21
I125
ssg19
g18
sg21
I65
ssg19
g20
sg21
I161
ssg19
g22
sg21
I90
ssg19
g18
sg21
I81
sa(dp5048
g2
(dp5049
g2
(dp5050
g2
(dp5051
g2
(dp5052
g2
(dp5053
g2
(dp5054
g2
(dp5055
g2
(dp5056
g2
(dp5057
g2
(dp5058
g2
(dp5059
g2
(dp5060
g2
(dp5061
g2
(dp5062
g2
(dp5063
g2
g22
sg19
g20
sg21
I177
ssg19
g23
sg21
I35
ssg19
g20
sg21
I105
ssg19
g20
sg21
I175
ssg19
g18
sg21
I3
ssg19
g20
sg21
I104
ssg19
g23
sg21
I0
ssg19
g20
sg21
I137
ssg19
g23
sg21
I107
ssg19
g22
sg21
I91
ssg19
g22
sg21
I65
ssg19
g23
sg21
I77
ssg19
g20
sg21
I112
ssg19
g22
sg21
I64
ssg19
g20
sg21
I115
ssg19
g18
sg21
I67
sa(dp5064
g2
(dp5065
g2
(dp5066
g2
(dp5067
g2
(dp5068
g2
(dp5069
g2
(dp5070
g2
(dp5071
g2
(dp5072
g2
(dp5073
g2
(dp5074
g2
(dp5075
g2
(dp5076
g2
(dp5077
g2
(dp5078
g2
(dp5079
g2
g18
sg19
g20
sg21
I42
ssg19
g20
sg21
I147
ssg19
g22
sg21
I114
ssg19
g22
sg21
I141
ssg19
g22
sg21
I45
ssg19
g22
sg21
I118
ssg19
g18
sg21
I2
ssg19
g22
sg21
I95
ssg19
g20
sg21
I170
ssg19
g18
sg21
I30
ssg19
g23
sg21
I0
ssg19
g20
sg21
I131
ssg19
g23
sg21
I140
ssg19
g18
sg21
I60
ssg19
g23
sg21
I84
ssg19
g23
sg21
I53
sa(dp5080
g2
(dp5081
g2
(dp5082
g2
(dp5083
g2
(dp5084
g2
(dp5085
g2
(dp5086
g2
(dp5087
g2
(dp5088
g2
(dp5089
g2
(dp5090
g2
(dp5091
g2
(dp5092
g2
(dp5093
g2
(dp5094
g2
(dp5095
g2
g22
sg19
g22
sg21
I23
ssg19
g23
sg21
I126
ssg19
g18
sg21
I184
ssg19
g23
sg21
I191
ssg19
g18
sg21
I9
ssg19
g23
sg21
I162
ssg19
g20
sg21
I52
ssg19
g18
sg21
I17
ssg19
g20
sg21
I173
ssg19
g20
sg21
I157
ssg19
g22
sg21
I96
ssg19
g20
sg21
I129
ssg19
g18
sg21
I78
ssg19
g18
sg21
I35
ssg19
g23
sg21
I0
ssg19
g18
sg21
I62
sa(dp5096
g2
(dp5097
g2
(dp5098
g2
(dp5099
g2
(dp5100
g2
(dp5101
g2
(dp5102
g2
(dp5103
g2
(dp5104
g2
(dp5105
g2
(dp5106
g2
(dp5107
g2
(dp5108
g2
(dp5109
g2
(dp5110
g2
(dp5111
g2
g23
sg19
g22
sg21
I17
ssg19
g18
sg21
I23
ssg19
g23
sg21
I115
ssg19
g20
sg21
I59
ssg19
g20
sg21
I111
ssg19
g18
sg21
I69
ssg19
g22
sg21
I141
ssg19
g22
sg21
I168
ssg19
g23
sg21
I78
ssg19
g18
sg21
I44
ssg19
g22
sg21
I181
ssg19
g22
sg21
I185
ssg19
g18
sg21
I134
ssg19
g23
sg21
I123
ssg19
g20
sg21
I156
ssg19
g20
sg21
I180
sa(dp5112
g2
(dp5113
g2
(dp5114
g2
(dp5115
g2
(dp5116
g2
(dp5117
g2
(dp5118
g2
(dp5119
g2
(dp5120
g2
(dp5121
g2
(dp5122
g2
(dp5123
g2
(dp5124
g2
(dp5125
g2
(dp5126
g2
(dp5127
g2
g18
sg19
g22
sg21
I102
ssg19
g20
sg21
I114
ssg19
g20
sg21
I174
ssg19
g23
sg21
I0
ssg19
g22
sg21
I41
ssg19
g23
sg21
I5
ssg19
g18
sg21
I14
ssg19
g20
sg21
I143
ssg19
g23
sg21
I131
ssg19
g18
sg21
I22
ssg19
g20
sg21
I135
ssg19
g18
sg21
I46
ssg19
g20
sg21
I157
ssg19
g22
sg21
I106
ssg19
g22
sg21
I115
ssg19
g20
sg21
I82
sa(dp5128
g2
(dp5129
g2
(dp5130
g2
(dp5131
g2
(dp5132
g2
(dp5133
g2
(dp5134
g2
(dp5135
g2
(dp5136
g2
(dp5137
g2
(dp5138
g2
(dp5139
g2
(dp5140
g2
(dp5141
g2
(dp5142
g2
(dp5143
g2
g23
sg19
g20
sg21
I120
ssg19
g18
sg21
I24
ssg19
g23
sg21
I135
ssg19
g22
sg21
I4
ssg19
g20
sg21
I146
ssg19
g23
sg21
I74
ssg19
g18
sg21
I46
ssg19
g23
sg21
I2
ssg19
g22
sg21
I92
ssg19
g20
sg21
I152
ssg19
g18
sg21
I11
ssg19
g23
sg21
I128
ssg19
g18
sg21
I43
ssg19
g23
sg21
I169
ssg19
g18
sg21
I121
ssg19
g22
sg21
I95
sa(dp5144
g2
(dp5145
g2
(dp5146
g2
(dp5147
g2
(dp5148
g2
(dp5149
g2
(dp5150
g2
(dp5151
g2
(dp5152
g2
(dp5153
g2
(dp5154
g2
(dp5155
g2
(dp5156
g2
(dp5157
g2
(dp5158
g2
(dp5159
g2
g18
sg19
g23
sg21
I71
ssg19
g20
sg21
I98
ssg19
g20
sg21
I115
ssg19
g20
sg21
I122
ssg19
g20
sg21
I164
ssg19
g22
sg21
I192
ssg19
g18
sg21
I81
ssg19
g22
sg21
I175
ssg19
g20
sg21
I171
ssg19
g18
sg21
I59
ssg19
g22
sg21
I90
ssg19
g20
sg21
I153
ssg19
g23
sg21
I0
ssg19
g22
sg21
I20
ssg19
g23
sg21
I13
ssg19
g23
sg21
I106
sa(dp5160
g2
(dp5161
g2
(dp5162
g2
(dp5163
g2
(dp5164
g2
(dp5165
g2
(dp5166
g2
(dp5167
g2
(dp5168
g2
(dp5169
g2
(dp5170
g2
(dp5171
g2
(dp5172
g2
(dp5173
g2
(dp5174
g2
(dp5175
g2
g18
sg19
g20
sg21
I123
ssg19
g18
sg21
I51
ssg19
g22
sg21
I162
ssg19
g22
sg21
I109
ssg19
g20
sg21
I116
ssg19
g20
sg21
I157
ssg19
g23
sg21
I0
ssg19
g22
sg21
I187
ssg19
g20
sg21
I146
ssg19
g23
sg21
I12
ssg19
g22
sg21
I181
ssg19
g18
sg21
I47
ssg19
g23
sg21
I170
ssg19
g20
sg21
I182
ssg19
g20
sg21
I110
ssg19
g23
sg21
I49
sa(dp5176
g2
(dp5177
g2
(dp5178
g2
(dp5179
g2
(dp5180
g2
(dp5181
g2
(dp5182
g2
(dp5183
g2
(dp5184
g2
(dp5185
g2
(dp5186
g2
(dp5187
g2
(dp5188
g2
(dp5189
g2
(dp5190
g2
(dp5191
g2
g22
sg19
g18
sg21
I78
ssg19
g20
sg21
I123
ssg19
g20
sg21
I104
ssg19
g18
sg21
I46
ssg19
g18
sg21
I30
ssg19
g20
sg21
I174
ssg19
g23
sg21
I0
ssg19
g22
sg21
I23
ssg19
g22
sg21
I188
ssg19
g18
sg21
I8
ssg19
g23
sg21
I170
ssg19
g22
sg21
I68
ssg19
g22
sg21
I95
ssg19
g20
sg21
I161
ssg19
g23
sg21
I173
ssg19
g20
sg21
I182
sa(dp5192
g2
(dp5193
g2
(dp5194
g2
(dp5195
g2
(dp5196
g2
(dp5197
g2
(dp5198
g2
(dp5199
g2
(dp5200
g2
(dp5201
g2
(dp5202
g2
(dp5203
g2
(dp5204
g2
(dp5205
g2
(dp5206
g2
(dp5207
g2
g22
sg19
g20
sg21
I180
ssg19
g22
sg21
I96
ssg19
g18
sg21
I107
ssg19
g18
sg21
I15
ssg19
g22
sg21
I120
ssg19
g18
sg21
I44
ssg19
g18
sg21
I184
ssg19
g22
sg21
I91
ssg19
g18
sg21
I75
ssg19
g18
sg21
I10
ssg19
g20
sg21
I171
ssg19
g23
sg21
I0
ssg19
g23
sg21
I82
ssg19
g22
sg21
I65
ssg19
g23
sg21
I79
ssg19
g18
sg21
I61
sa(dp5208
g2
(dp5209
g2
(dp5210
g2
(dp5211
g2
(dp5212
g2
(dp5213
g2
(dp5214
g2
(dp5215
g2
(dp5216
g2
(dp5217
g2
(dp5218
g2
(dp5219
g2
(dp5220
g2
(dp5221
g2
(dp5222
g2
(dp5223
g2
g18
sg19
g22
sg21
I192
ssg19
g20
sg21
I147
ssg19
g22
sg21
I17
ssg19
g20
sg21
I99
ssg19
g22
sg21
I42
ssg19
g20
sg21
I173
ssg19
g18
sg21
I23
ssg19
g20
sg21
I109
ssg19
g22
sg21
I98
ssg19
g23
sg21
I0
ssg19
g18
sg21
I160
ssg19
g23
sg21
I61
ssg19
g20
sg21
I137
ssg19
g23
sg21
I151
ssg19
g22
sg21
I113
ssg19
g20
sg21
I181
sa(dp5224
g2
(dp5225
g2
(dp5226
g2
(dp5227
g2
(dp5228
g2
(dp5229
g2
(dp5230
g2
(dp5231
g2
(dp5232
g2
(dp5233
g2
(dp5234
g2
(dp5235
g2
(dp5236
g2
(dp5237
g2
(dp5238
g2
(dp5239
g2
g23
sg19
g18
sg21
I87
ssg19
g22
sg21
I46
ssg19
g20
sg21
I115
ssg19
g18
sg21
I92
ssg19
g18
sg21
I17
ssg19
g23
sg21
I80
ssg19
g18
sg21
I139
ssg19
g23
sg21
I50
ssg19
g22
sg21
I91
ssg19
g20
sg21
I155
ssg19
g18
sg21
I136
ssg19
g23
sg21
I84
ssg19
g18
sg21
I52
ssg19
g18
sg21
I76
ssg19
g22
sg21
I137
ssg19
g22
sg21
I111
sa(dp5240
g2
(dp5241
g2
(dp5242
g2
(dp5243
g2
(dp5244
g2
(dp5245
g2
(dp5246
g2
(dp5247
g2
(dp5248
g2
(dp5249
g2
(dp5250
g2
(dp5251
g2
(dp5252
g2
(dp5253
g2
(dp5254
g2
(dp5255
g2
g23
sg19
g18
sg21
I58
ssg19
g22
sg21
I177
ssg19
g22
sg21
I96
ssg19
g23
sg21
I75
ssg19
g18
sg21
I85
ssg19
g20
sg21
I140
ssg19
g22
sg21
I113
ssg19
g22
sg21
I143
ssg19
g18
sg21
I185
ssg19
g18
sg21
I65
ssg19
g22
sg21
I92
ssg19
g18
sg21
I11
ssg19
g20
sg21
I180
ssg19
g23
sg21
I128
ssg19
g20
sg21
I159
ssg19
g22
sg21
I64
sa(dp5256
g2
(dp5257
g2
(dp5258
g2
(dp5259
g2
(dp5260
g2
(dp5261
g2
(dp5262
g2
(dp5263
g2
(dp5264
g2
(dp5265
g2
(dp5266
g2
(dp5267
g2
(dp5268
g2
(dp5269
g2
(dp5270
g2
(dp5271
g2
g18
sg19
g22
sg21
I106
ssg19
g22
sg21
I112
ssg19
g20
sg21
I168
ssg19
g20
sg21
I132
ssg19
g20
sg21
I174
ssg19
g20
sg21
I163
ssg19
g22
sg21
I134
ssg19
g23
sg21
I0
ssg19
g22
sg21
I137
ssg19
g22
sg21
I143
ssg19
g20
sg21
I131
ssg19
g18
sg21
I68
ssg19
g22
sg21
I92
ssg19
g23
sg21
I95
ssg19
g23
sg21
I82
ssg19
g22
sg21
I40
sa(dp5272
g2
(dp5273
g2
(dp5274
g2
(dp5275
g2
(dp5276
g2
(dp5277
g2
(dp5278
g2
(dp5279
g2
(dp5280
g2
(dp5281
g2
(dp5282
g2
(dp5283
g2
(dp5284
g2
(dp5285
g2
(dp5286
g2
(dp5287
g2
g20
sg19
g22
sg21
I190
ssg19
g18
sg21
I14
ssg19
g18
sg21
I71
ssg19
g22
sg21
I40
ssg19
g23
sg21
I0
ssg19
g20
sg21
I145
ssg19
g23
sg21
I130
ssg19
g23
sg21
I4
ssg19
g20
sg21
I139
ssg19
g23
sg21
I25
ssg19
g18
sg21
I118
ssg19
g22
sg21
I13
ssg19
g23
sg21
I142
ssg19
g18
sg21
I16
ssg19
g22
sg21
I67
ssg19
g23
sg21
I49
sa(dp5288
g2
(dp5289
g2
(dp5290
g2
(dp5291
g2
(dp5292
g2
(dp5293
g2
(dp5294
g2
(dp5295
g2
(dp5296
g2
(dp5297
g2
(dp5298
g2
(dp5299
g2
(dp5300
g2
(dp5301
g2
(dp5302
g2
(dp5303
g2
g23
sg19
g18
sg21
I26
ssg19
g23
sg21
I145
ssg19
g20
sg21
I142
ssg19
g22
sg21
I120
ssg19
g20
sg21
I162
ssg19
g20
sg21
I105
ssg19
g18
sg21
I18
ssg19
g22
sg21
I20
ssg19
g18
sg21
I14
ssg19
g22
sg21
I135
ssg19
g20
sg21
I132
ssg19
g23
sg21
I134
ssg19
g23
sg21
I64
ssg19
g22
sg21
I84
ssg19
g23
sg21
I107
ssg19
g23
sg21
I49
sa(dp5304
g2
(dp5305
g2
(dp5306
g2
(dp5307
g2
(dp5308
g2
(dp5309
g2
(dp5310
g2
(dp5311
g2
(dp5312
g2
(dp5313
g2
(dp5314
g2
(dp5315
g2
(dp5316
g2
(dp5317
g2
(dp5318
g2
(dp5319
g2
g18
sg19
g23
sg21
I37
ssg19
g20
sg21
I169
ssg19
g22
sg21
I120
ssg19
g22
sg21
I125
ssg19
g20
sg21
I49
ssg19
g22
sg21
I191
ssg19
g20
sg21
I155
ssg19
g20
sg21
I77
ssg19
g20
sg21
I91
ssg19
g18
sg21
I122
ssg19
g20
sg21
I107
ssg19
g18
sg21
I16
ssg19
g22
sg21
I95
ssg19
g18
sg21
I13
ssg19
g20
sg21
I170
ssg19
g23
sg21
I0
sa(dp5320
g2
(dp5321
g2
(dp5322
g2
(dp5323
g2
(dp5324
g2
(dp5325
g2
(dp5326
g2
(dp5327
g2
(dp5328
g2
(dp5329
g2
(dp5330
g2
(dp5331
g2
(dp5332
g2
(dp5333
g2
(dp5334
g2
(dp5335
g2
g18
sg19
g20
sg21
I99
ssg19
g20
sg21
I177
ssg19
g23
sg21
I64
ssg19
g18
sg21
I187
ssg19
g22
sg21
I96
ssg19
g22
sg21
I44
ssg19
g18
sg21
I84
ssg19
g23
sg21
I0
ssg19
g23
sg21
I53
ssg19
g20
sg21
I134
ssg19
g20
sg21
I109
ssg19
g23
sg21
I145
ssg19
g18
sg21
I40
ssg19
g23
sg21
I28
ssg19
g20
sg21
I137
ssg19
g18
sg21
I43
sa(dp5336
g2
(dp5337
g2
(dp5338
g2
(dp5339
g2
(dp5340
g2
(dp5341
g2
(dp5342
g2
(dp5343
g2
(dp5344
g2
(dp5345
g2
(dp5346
g2
(dp5347
g2
(dp5348
g2
(dp5349
g2
(dp5350
g2
(dp5351
g2
g18
sg19
g20
sg21
I76
ssg19
g22
sg21
I72
ssg19
g23
sg21
I138
ssg19
g22
sg21
I191
ssg19
g22
sg21
I78
ssg19
g20
sg21
I7
ssg19
g20
sg21
I183
ssg19
g20
sg21
I52
ssg19
g18
sg21
I10
ssg19
g23
sg21
I99
ssg19
g22
sg21
I94
ssg19
g20
sg21
I185
ssg19
g23
sg21
I47
ssg19
g18
sg21
I44
ssg19
g20
sg21
I148
ssg19
g20
sg21
I172
sa(dp5352
g2
(dp5353
g2
(dp5354
g2
(dp5355
g2
(dp5356
g2
(dp5357
g2
(dp5358
g2
(dp5359
g2
(dp5360
g2
(dp5361
g2
(dp5362
g2
(dp5363
g2
(dp5364
g2
(dp5365
g2
(dp5366
g2
(dp5367
g2
g20
sg19
g22
sg21
I51
ssg19
g20
sg21
I63
ssg19
g18
sg21
I18
ssg19
g20
sg21
I67
ssg19
g18
sg21
I2
ssg19
g18
sg21
I3
ssg19
g20
sg21
I122
ssg19
g22
sg21
I132
ssg19
g23
sg21
I0
ssg19
g22
sg21
I143
ssg19
g22
sg21
I168
ssg19
g23
sg21
I53
ssg19
g18
sg21
I40
ssg19
g22
sg21
I135
ssg19
g20
sg21
I156
ssg19
g23
sg21
I82
sa(dp5368
g2
(dp5369
g2
(dp5370
g2
(dp5371
g2
(dp5372
g2
(dp5373
g2
(dp5374
g2
(dp5375
g2
(dp5376
g2
(dp5377
g2
(dp5378
g2
(dp5379
g2
(dp5380
g2
(dp5381
g2
(dp5382
g2
(dp5383
g2
g18
sg19
g22
sg21
I165
ssg19
g23
sg21
I0
ssg19
g20
sg21
I70
ssg19
g23
sg21
I147
ssg19
g18
sg21
I62
ssg19
g22
sg21
I143
ssg19
g18
sg21
I74
ssg19
g23
sg21
I122
ssg19
g18
sg21
I128
ssg19
g22
sg21
I61
ssg19
g23
sg21
I88
ssg19
g23
sg21
I29
ssg19
g20
sg21
I135
ssg19
g20
sg21
I110
ssg19
g18
sg21
I60
ssg19
g22
sg21
I89
sa(dp5384
g2
(dp5385
g2
(dp5386
g2
(dp5387
g2
(dp5388
g2
(dp5389
g2
(dp5390
g2
(dp5391
g2
(dp5392
g2
(dp5393
g2
(dp5394
g2
(dp5395
g2
(dp5396
g2
(dp5397
g2
(dp5398
g2
(dp5399
g2
g18
sg19
g20
sg21
I16
ssg19
g18
sg21
I122
ssg19
g22
sg21
I178
ssg19
g18
sg21
I88
ssg19
g22
sg21
I125
ssg19
g22
sg21
I166
ssg19
g20
sg21
I145
ssg19
g20
sg21
I182
ssg19
g20
sg21
I76
ssg19
g20
sg21
I40
ssg19
g22
sg21
I120
ssg19
g20
sg21
I147
ssg19
g18
sg21
I3
ssg19
g18
sg21
I4
ssg19
g23
sg21
I0
ssg19
g18
sg21
I49
sa(dp5400
g2
(dp5401
g2
(dp5402
g2
(dp5403
g2
(dp5404
g2
(dp5405
g2
(dp5406
g2
(dp5407
g2
(dp5408
g2
(dp5409
g2
(dp5410
g2
(dp5411
g2
(dp5412
g2
(dp5413
g2
(dp5414
g2
(dp5415
g2
g23
sg19
g22
sg21
I163
ssg19
g18
sg21
I21
ssg19
g22
sg21
I52
ssg19
g22
sg21
I137
ssg19
g23
sg21
I2
ssg19
g18
sg21
I86
ssg19
g23
sg21
I4
ssg19
g20
sg21
I173
ssg19
g18
sg21
I37
ssg19
g20
sg21
I100
ssg19
g23
sg21
I55
ssg19
g18
sg21
I77
ssg19
g20
sg21
I155
ssg19
g18
sg21
I89
ssg19
g23
sg21
I148
ssg19
g23
sg21
I83
sa(dp5416
g2
(dp5417
g2
(dp5418
g2
(dp5419
g2
(dp5420
g2
(dp5421
g2
(dp5422
g2
(dp5423
g2
(dp5424
g2
(dp5425
g2
(dp5426
g2
(dp5427
g2
(dp5428
g2
(dp5429
g2
(dp5430
g2
(dp5431
g2
g18
sg19
g23
sg21
I47
ssg19
g22
sg21
I42
ssg19
g23
sg21
I6
ssg19
g20
sg21
I19
ssg19
g18
sg21
I60
ssg19
g18
sg21
I160
ssg19
g23
sg21
I33
ssg19
g20
sg21
I13
ssg19
g22
sg21
I117
ssg19
g18
sg21
I32
ssg19
g20
sg21
I62
ssg19
g22
sg21
I34
ssg19
g18
sg21
I56
ssg19
g23
sg21
I108
ssg19
g20
sg21
I1
ssg19
g23
sg21
I25
sa(dp5432
g2
(dp5433
g2
(dp5434
g2
(dp5435
g2
(dp5436
g2
(dp5437
g2
(dp5438
g2
(dp5439
g2
(dp5440
g2
(dp5441
g2
(dp5442
g2
(dp5443
g2
(dp5444
g2
(dp5445
g2
(dp5446
g2
(dp5447
g2
g18
sg19
g22
sg21
I153
ssg19
g20
sg21
I130
ssg19
g23
sg21
I0
ssg19
g22
sg21
I121
ssg19
g23
sg21
I76
ssg19
g20
sg21
I180
ssg19
g20
sg21
I82
ssg19
g20
sg21
I156
ssg19
g23
sg21
I1
ssg19
g22
sg21
I119
ssg19
g20
sg21
I173
ssg19
g18
sg21
I20
ssg19
g23
sg21
I90
ssg19
g20
sg21
I106
ssg19
g18
sg21
I88
ssg19
g22
sg21
I160
sa(dp5448
g2
(dp5449
g2
(dp5450
g2
(dp5451
g2
(dp5452
g2
(dp5453
g2
(dp5454
g2
(dp5455
g2
(dp5456
g2
(dp5457
g2
(dp5458
g2
(dp5459
g2
(dp5460
g2
(dp5461
g2
(dp5462
g2
(dp5463
g2
g18
sg19
g22
sg21
I168
ssg19
g22
sg21
I140
ssg19
g20
sg21
I126
ssg19
g20
sg21
I130
ssg19
g22
sg21
I115
ssg19
g18
sg21
I6
ssg19
g20
sg21
I155
ssg19
g22
sg21
I161
ssg19
g18
sg21
I5
ssg19
g20
sg21
I124
ssg19
g22
sg21
I113
ssg19
g18
sg21
I38
ssg19
g20
sg21
I172
ssg19
g18
sg21
I37
ssg19
g23
sg21
I0
ssg19
g20
sg21
I110
sa(dp5464
g2
(dp5465
g2
(dp5466
g2
(dp5467
g2
(dp5468
g2
(dp5469
g2
(dp5470
g2
(dp5471
g2
(dp5472
g2
(dp5473
g2
(dp5474
g2
(dp5475
g2
(dp5476
g2
(dp5477
g2
(dp5478
g2
(dp5479
g2
g18
sg19
g22
sg21
I169
ssg19
g23
sg21
I0
ssg19
g23
sg21
I125
ssg19
g23
sg21
I30
ssg19
g20
sg21
I160
ssg19
g23
sg21
I183
ssg19
g22
sg21
I24
ssg19
g20
sg21
I34
ssg19
g18
sg21
I36
ssg19
g20
sg21
I177
ssg19
g23
sg21
I78
ssg19
g22
sg21
I10
ssg19
g23
sg21
I98
ssg19
g23
sg21
I81
ssg19
g23
sg21
I80
ssg19
g23
sg21
I83
sa(dp5480
g2
(dp5481
g2
(dp5482
g2
(dp5483
g2
(dp5484
g2
(dp5485
g2
(dp5486
g2
(dp5487
g2
(dp5488
g2
(dp5489
g2
(dp5490
g2
(dp5491
g2
(dp5492
g2
(dp5493
g2
(dp5494
g2
(dp5495
g2
g18
sg19
g23
sg21
I172
ssg19
g20
sg21
I158
ssg19
g23
sg21
I184
ssg19
g20
sg21
I142
ssg19
g23
sg21
I33
ssg19
g18
sg21
I13
ssg19
g22
sg21
I40
ssg19
g20
sg21
I180
ssg19
g22
sg21
I120
ssg19
g18
sg21
I68
ssg19
g18
sg21
I38
ssg19
g22
sg21
I166
ssg19
g23
sg21
I122
ssg19
g23
sg21
I84
ssg19
g23
sg21
I83
ssg19
g18
sg21
I92
sa(dp5496
g2
(dp5497
g2
(dp5498
g2
(dp5499
g2
(dp5500
g2
(dp5501
g2
(dp5502
g2
(dp5503
g2
(dp5504
g2
(dp5505
g2
(dp5506
g2
(dp5507
g2
(dp5508
g2
(dp5509
g2
(dp5510
g2
(dp5511
g2
g18
sg19
g20
sg21
I123
ssg19
g23
sg21
I0
ssg19
g23
sg21
I128
ssg19
g20
sg21
I143
ssg19
g22
sg21
I118
ssg19
g22
sg21
I65
ssg19
g18
sg21
I68
ssg19
g18
sg21
I7
ssg19
g22
sg21
I73
ssg19
g18
sg21
I103
ssg19
g22
sg21
I47
ssg19
g23
sg21
I26
ssg19
g23
sg21
I25
ssg19
g22
sg21
I142
ssg19
g20
sg21
I136
ssg19
g18
sg21
I88
sa(dp5512
g2
(dp5513
g2
(dp5514
g2
(dp5515
g2
(dp5516
g2
(dp5517
g2
(dp5518
g2
(dp5519
g2
(dp5520
g2
(dp5521
g2
(dp5522
g2
(dp5523
g2
(dp5524
g2
(dp5525
g2
(dp5526
g2
(dp5527
g2
g23
sg19
g22
sg21
I113
ssg19
g18
sg21
I6
ssg19
g22
sg21
I168
ssg19
g20
sg21
I174
ssg19
g18
sg21
I11
ssg19
g20
sg21
I162
ssg19
g22
sg21
I120
ssg19
g18
sg21
I57
ssg19
g23
sg21
I75
ssg19
g20
sg21
I132
ssg19
g22
sg21
I103
ssg19
g18
sg21
I136
ssg19
g18
sg21
I62
ssg19
g23
sg21
I79
ssg19
g23
sg21
I108
ssg19
g18
sg21
I58
sa(dp5528
g2
(dp5529
g2
(dp5530
g2
(dp5531
g2
(dp5532
g2
(dp5533
g2
(dp5534
g2
(dp5535
g2
(dp5536
g2
(dp5537
g2
(dp5538
g2
(dp5539
g2
(dp5540
g2
(dp5541
g2
(dp5542
g2
(dp5543
g2
g18
sg19
g22
sg21
I114
ssg19
g20
sg21
I179
ssg19
g22
sg21
I117
ssg19
g20
sg21
I76
ssg19
g18
sg21
I103
ssg19
g18
sg21
I60
ssg19
g22
sg21
I45
ssg19
g18
sg21
I12
ssg19
g23
sg21
I0
ssg19
g22
sg21
I135
ssg19
g20
sg21
I162
ssg19
g18
sg21
I47
ssg19
g23
sg21
I37
ssg19
g22
sg21
I137
ssg19
g22
sg21
I127
ssg19
g23
sg21
I107
sa(dp5544
g2
(dp5545
g2
(dp5546
g2
(dp5547
g2
(dp5548
g2
(dp5549
g2
(dp5550
g2
(dp5551
g2
(dp5552
g2
(dp5553
g2
(dp5554
g2
(dp5555
g2
(dp5556
g2
(dp5557
g2
(dp5558
g2
(dp5559
g2
g22
sg19
g20
sg21
I25
ssg19
g18
sg21
I45
ssg19
g20
sg21
I182
ssg19
g22
sg21
I96
ssg19
g22
sg21
I141
ssg19
g20
sg21
I129
ssg19
g18
sg21
I9
ssg19
g23
sg21
I0
ssg19
g18
sg21
I157
ssg19
g23
sg21
I106
ssg19
g22
sg21
I94
ssg19
g18
sg21
I53
ssg19
g20
sg21
I187
ssg19
g22
sg21
I124
ssg19
g23
sg21
I145
ssg19
g20
sg21
I166
sa(dp5560
g2
(dp5561
g2
(dp5562
g2
(dp5563
g2
(dp5564
g2
(dp5565
g2
(dp5566
g2
(dp5567
g2
(dp5568
g2
(dp5569
g2
(dp5570
g2
(dp5571
g2
(dp5572
g2
(dp5573
g2
(dp5574
g2
(dp5575
g2
g18
sg19
g20
sg21
I176
ssg19
g20
sg21
I38
ssg19
g20
sg21
I153
ssg19
g22
sg21
I36
ssg19
g22
sg21
I143
ssg19
g22
sg21
I118
ssg19
g23
sg21
I0
ssg19
g20
sg21
I125
ssg19
g23
sg21
I57
ssg19
g23
sg21
I29
ssg19
g18
sg21
I41
ssg19
g22
sg21
I113
ssg19
g23
sg21
I134
ssg19
g20
sg21
I136
ssg19
g22
sg21
I106
ssg19
g18
sg21
I28
sa(dp5576
g2
(dp5577
g2
(dp5578
g2
(dp5579
g2
(dp5580
g2
(dp5581
g2
(dp5582
g2
(dp5583
g2
(dp5584
g2
(dp5585
g2
(dp5586
g2
(dp5587
g2
(dp5588
g2
(dp5589
g2
(dp5590
g2
(dp5591
g2
g18
sg19
g23
sg21
I53
ssg19
g22
sg21
I113
ssg19
g20
sg21
I164
ssg19
g23
sg21
I76
ssg19
g20
sg21
I86
ssg19
g22
sg21
I115
ssg19
g22
sg21
I92
ssg19
g18
sg21
I41
ssg19
g20
sg21
I131
ssg19
g18
sg21
I39
ssg19
g23
sg21
I109
ssg19
g22
sg21
I116
ssg19
g18
sg21
I59
ssg19
g22
sg21
I139
ssg19
g23
sg21
I104
ssg19
g18
sg21
I84
sa(dp5592
g2
(dp5593
g2
(dp5594
g2
(dp5595
g2
(dp5596
g2
(dp5597
g2
(dp5598
g2
(dp5599
g2
(dp5600
g2
(dp5601
g2
(dp5602
g2
(dp5603
g2
(dp5604
g2
(dp5605
g2
(dp5606
g2
(dp5607
g2
g22
sg19
g20
sg21
I187
ssg19
g20
sg21
I102
ssg19
g18
sg21
I61
ssg19
g18
sg21
I6
ssg19
g22
sg21
I143
ssg19
g18
sg21
I133
ssg19
g20
sg21
I174
ssg19
g22
sg21
I110
ssg19
g18
sg21
I29
ssg19
g20
sg21
I128
ssg19
g20
sg21
I179
ssg19
g20
sg21
I82
ssg19
g18
sg21
I53
ssg19
g23
sg21
I0
ssg19
g23
sg21
I166
ssg19
g18
sg21
I1
sa(dp5608
g2
(dp5609
g2
(dp5610
g2
(dp5611
g2
(dp5612
g2
(dp5613
g2
(dp5614
g2
(dp5615
g2
(dp5616
g2
(dp5617
g2
(dp5618
g2
(dp5619
g2
(dp5620
g2
(dp5621
g2
(dp5622
g2
(dp5623
g2
g18
sg19
g22
sg21
I182
ssg19
g23
sg21
I0
ssg19
g18
sg21
I109
ssg19
g20
sg21
I139
ssg19
g18
sg21
I91
ssg19
g20
sg21
I162
ssg19
g23
sg21
I85
ssg19
g23
sg21
I126
ssg19
g20
sg21
I129
ssg19
g22
sg21
I44
ssg19
g22
sg21
I70
ssg19
g20
sg21
I64
ssg19
g18
sg21
I9
ssg19
g22
sg21
I110
ssg19
g22
sg21
I154
ssg19
g23
sg21
I101
sa(dp5624
g2
(dp5625
g2
(dp5626
g2
(dp5627
g2
(dp5628
g2
(dp5629
g2
(dp5630
g2
(dp5631
g2
(dp5632
g2
(dp5633
g2
(dp5634
g2
(dp5635
g2
(dp5636
g2
(dp5637
g2
(dp5638
g2
(dp5639
g2
g18
sg19
g22
sg21
I96
ssg19
g20
sg21
I7
ssg19
g22
sg21
I103
ssg19
g22
sg21
I141
ssg19
g20
sg21
I186
ssg19
g18
sg21
I14
ssg19
g20
sg21
I159
ssg19
g22
sg21
I93
ssg19
g20
sg21
I170
ssg19
g22
sg21
I51
ssg19
g18
sg21
I30
ssg19
g23
sg21
I0
ssg19
g23
sg21
I34
ssg19
g22
sg21
I107
ssg19
g20
sg21
I172
ssg19
g23
sg21
I101
sa(dp5640
g2
(dp5641
g2
(dp5642
g2
(dp5643
g2
(dp5644
g2
(dp5645
g2
(dp5646
g2
(dp5647
g2
(dp5648
g2
(dp5649
g2
(dp5650
g2
(dp5651
g2
(dp5652
g2
(dp5653
g2
(dp5654
g2
(dp5655
g2
g22
sg19
g18
sg21
I57
ssg19
g20
sg21
I159
ssg19
g18
sg21
I86
ssg19
g18
sg21
I17
ssg19
g23
sg21
I1
ssg19
g22
sg21
I115
ssg19
g18
sg21
I85
ssg19
g18
sg21
I32
ssg19
g18
sg21
I4
ssg19
g23
sg21
I76
ssg19
g18
sg21
I62
ssg19
g20
sg21
I175
ssg19
g22
sg21
I137
ssg19
g20
sg21
I151
ssg19
g18
sg21
I43
ssg19
g23
sg21
I83
sa(dp5656
g2
(dp5657
g2
(dp5658
g2
(dp5659
g2
(dp5660
g2
(dp5661
g2
(dp5662
g2
(dp5663
g2
(dp5664
g2
(dp5665
g2
(dp5666
g2
(dp5667
g2
(dp5668
g2
(dp5669
g2
(dp5670
g2
(dp5671
g2
g23
sg19
g18
sg21
I109
ssg19
g18
sg21
I118
ssg19
g20
sg21
I103
ssg19
g18
sg21
I102
ssg19
g23
sg21
I52
ssg19
g22
sg21
I87
ssg19
g20
sg21
I10
ssg19
g18
sg21
I47
ssg19
g23
sg21
I152
ssg19
g18
sg21
I44
ssg19
g18
sg21
I35
ssg19
g23
sg21
I127
ssg19
g20
sg21
I115
ssg19
g22
sg21
I92
ssg19
g22
sg21
I88
ssg19
g18
sg21
I59
sa(dp5672
g2
(dp5673
g2
(dp5674
g2
(dp5675
g2
(dp5676
g2
(dp5677
g2
(dp5678
g2
(dp5679
g2
(dp5680
g2
(dp5681
g2
(dp5682
g2
(dp5683
g2
(dp5684
g2
(dp5685
g2
(dp5686
g2
(dp5687
g2
g18
sg19
g23
sg21
I79
ssg19
g18
sg21
I10
ssg19
g23
sg21
I136
ssg19
g18
sg21
I74
ssg19
g20
sg21
I175
ssg19
g22
sg21
I163
ssg19
g22
sg21
I105
ssg19
g22
sg21
I144
ssg19
g20
sg21
I180
ssg19
g23
sg21
I0
ssg19
g23
sg21
I131
ssg19
g20
sg21
I176
ssg19
g22
sg21
I59
ssg19
g23
sg21
I134
ssg19
g18
sg21
I84
ssg19
g18
sg21
I169
sa(dp5688
g2
(dp5689
g2
(dp5690
g2
(dp5691
g2
(dp5692
g2
(dp5693
g2
(dp5694
g2
(dp5695
g2
(dp5696
g2
(dp5697
g2
(dp5698
g2
(dp5699
g2
(dp5700
g2
(dp5701
g2
(dp5702
g2
(dp5703
g2
g20
sg19
g18
sg21
I125
ssg19
g20
sg21
I22
ssg19
g22
sg21
I32
ssg19
g18
sg21
I59
ssg19
g20
sg21
I127
ssg19
g18
sg21
I99
ssg19
g18
sg21
I21
ssg19
g22
sg21
I189
ssg19
g22
sg21
I121
ssg19
g18
sg21
I20
ssg19
g23
sg21
I0
ssg19
g23
sg21
I137
ssg19
g20
sg21
I179
ssg19
g23
sg21
I57
ssg19
g22
sg21
I113
ssg19
g20
sg21
I109
sa(dp5704
g2
(dp5705
g2
(dp5706
g2
(dp5707
g2
(dp5708
g2
(dp5709
g2
(dp5710
g2
(dp5711
g2
(dp5712
g2
(dp5713
g2
(dp5714
g2
(dp5715
g2
(dp5716
g2
(dp5717
g2
(dp5718
g2
(dp5719
g2
g22
sg19
g18
sg21
I177
ssg19
g22
sg21
I77
ssg19
g23
sg21
I111
ssg19
g18
sg21
I91
ssg19
g20
sg21
I189
ssg19
g22
sg21
I120
ssg19
g20
sg21
I179
ssg19
g18
sg21
I15
ssg19
g23
sg21
I0
ssg19
g20
sg21
I156
ssg19
g23
sg21
I105
ssg19
g23
sg21
I7
ssg19
g18
sg21
I151
ssg19
g23
sg21
I61
ssg19
g23
sg21
I155
ssg19
g23
sg21
I40
sa(dp5720
g2
(dp5721
g2
(dp5722
g2
(dp5723
g2
(dp5724
g2
(dp5725
g2
(dp5726
g2
(dp5727
g2
(dp5728
g2
(dp5729
g2
(dp5730
g2
(dp5731
g2
(dp5732
g2
(dp5733
g2
(dp5734
g2
(dp5735
g2
g22
sg19
g20
sg21
I52
ssg19
g18
sg21
I120
ssg19
g20
sg21
I134
ssg19
g22
sg21
I174
ssg19
g18
sg21
I67
ssg19
g22
sg21
I19
ssg19
g20
sg21
I181
ssg19
g18
sg21
I78
ssg19
g20
sg21
I42
ssg19
g22
sg21
I15
ssg19
g22
sg21
I104
ssg19
g18
sg21
I33
ssg19
g22
sg21
I89
ssg19
g23
sg21
I0
ssg19
g23
sg21
I111
ssg19
g20
sg21
I83
sa(dp5736
g2
(dp5737
g2
(dp5738
g2
(dp5739
g2
(dp5740
g2
(dp5741
g2
(dp5742
g2
(dp5743
g2
(dp5744
g2
(dp5745
g2
(dp5746
g2
(dp5747
g2
(dp5748
g2
(dp5749
g2
(dp5750
g2
(dp5751
g2
g18
sg19
g22
sg21
I39
ssg19
g20
sg21
I190
ssg19
g22
sg21
I166
ssg19
g20
sg21
I138
ssg19
g20
sg21
I171
ssg19
g23
sg21
I0
ssg19
g18
sg21
I29
ssg19
g23
sg21
I122
ssg19
g23
sg21
I27
ssg19
g20
sg21
I92
ssg19
g23
sg21
I108
ssg19
g20
sg21
I117
ssg19
g18
sg21
I17
ssg19
g23
sg21
I99
ssg19
g20
sg21
I165
ssg19
g22
sg21
I95
sa(dp5752
g2
(dp5753
g2
(dp5754
g2
(dp5755
g2
(dp5756
g2
(dp5757
g2
(dp5758
g2
(dp5759
g2
(dp5760
g2
(dp5761
g2
(dp5762
g2
(dp5763
g2
(dp5764
g2
(dp5765
g2
(dp5766
g2
(dp5767
g2
g23
sg19
g20
sg21
I127
ssg19
g18
sg21
I43
ssg19
g20
sg21
I70
ssg19
g22
sg21
I187
ssg19
g23
sg21
I78
ssg19
g20
sg21
I7
ssg19
g22
sg21
I95
ssg19
g22
sg21
I8
ssg19
g23
sg21
I3
ssg19
g20
sg21
I176
ssg19
g18
sg21
I15
ssg19
g23
sg21
I133
ssg19
g22
sg21
I68
ssg19
g20
sg21
I149
ssg19
g23
sg21
I121
ssg19
g23
sg21
I151
sa(dp5768
g2
(dp5769
g2
(dp5770
g2
(dp5771
g2
(dp5772
g2
(dp5773
g2
(dp5774
g2
(dp5775
g2
(dp5776
g2
(dp5777
g2
(dp5778
g2
(dp5779
g2
(dp5780
g2
(dp5781
g2
(dp5782
g2
(dp5783
g2
g20
sg19
g18
sg21
I118
ssg19
g22
sg21
I188
ssg19
g20
sg21
I158
ssg19
g23
sg21
I5
ssg19
g18
sg21
I22
ssg19
g23
sg21
I152
ssg19
g18
sg21
I39
ssg19
g20
sg21
I79
ssg19
g23
sg21
I25
ssg19
g22
sg21
I142
ssg19
g23
sg21
I179
ssg19
g22
sg21
I55
ssg19
g23
sg21
I131
ssg19
g20
sg21
I170
ssg19
g23
sg21
I121
ssg19
g23
sg21
I86
sa(dp5784
g2
(dp5785
g2
(dp5786
g2
(dp5787
g2
(dp5788
g2
(dp5789
g2
(dp5790
g2
(dp5791
g2
(dp5792
g2
(dp5793
g2
(dp5794
g2
(dp5795
g2
(dp5796
g2
(dp5797
g2
(dp5798
g2
(dp5799
g2
g22
sg19
g20
sg21
I177
ssg19
g22
sg21
I120
ssg19
g20
sg21
I176
ssg19
g18
sg21
I32
ssg19
g22
sg21
I68
ssg19
g23
sg21
I51
ssg19
g20
sg21
I121
ssg19
g23
sg21
I105
ssg19
g20
sg21
I169
ssg19
g23
sg21
I76
ssg19
g18
sg21
I12
ssg19
g22
sg21
I116
ssg19
g20
sg21
I132
ssg19
g18
sg21
I62
ssg19
g18
sg21
I178
ssg19
g23
sg21
I73
sa(dp5800
g2
(dp5801
g2
(dp5802
g2
(dp5803
g2
(dp5804
g2
(dp5805
g2
(dp5806
g2
(dp5807
g2
(dp5808
g2
(dp5809
g2
(dp5810
g2
(dp5811
g2
(dp5812
g2
(dp5813
g2
(dp5814
g2
(dp5815
g2
g23
sg19
g20
sg21
I31
ssg19
g18
sg21
I103
ssg19
g20
sg21
I154
ssg19
g22
sg21
I93
ssg19
g18
sg21
I4
ssg19
g20
sg21
I62
ssg19
g18
sg21
I53
ssg19
g23
sg21
I121
ssg19
g20
sg21
I173
ssg19
g23
sg21
I128
ssg19
g23
sg21
I161
ssg19
g20
sg21
I11
ssg19
g22
sg21
I146
ssg19
g18
sg21
I56
ssg19
g18
sg21
I130
ssg19
g18
sg21
I20
sa(dp5816
g2
(dp5817
g2
(dp5818
g2
(dp5819
g2
(dp5820
g2
(dp5821
g2
(dp5822
g2
(dp5823
g2
(dp5824
g2
(dp5825
g2
(dp5826
g2
(dp5827
g2
(dp5828
g2
(dp5829
g2
(dp5830
g2
(dp5831
g2
g18
sg19
g20
sg21
I147
ssg19
g20
sg21
I115
ssg19
g22
sg21
I93
ssg19
g22
sg21
I67
ssg19
g20
sg21
I183
ssg19
g22
sg21
I87
ssg19
g18
sg21
I56
ssg19
g20
sg21
I170
ssg19
g23
sg21
I0
ssg19
g20
sg21
I167
ssg19
g18
sg21
I84
ssg19
g20
sg21
I137
ssg19
g23
sg21
I127
ssg19
g22
sg21
I134
ssg19
g20
sg21
I155
ssg19
g23
sg21
I108
sa(dp5832
g2
(dp5833
g2
(dp5834
g2
(dp5835
g2
(dp5836
g2
(dp5837
g2
(dp5838
g2
(dp5839
g2
(dp5840
g2
(dp5841
g2
(dp5842
g2
(dp5843
g2
(dp5844
g2
(dp5845
g2
(dp5846
g2
(dp5847
g2
g22
sg19
g20
sg21
I155
ssg19
g23
sg21
I150
ssg19
g18
sg21
I69
ssg19
g20
sg21
I110
ssg19
g23
sg21
I78
ssg19
g22
sg21
I71
ssg19
g18
sg21
I14
ssg19
g20
sg21
I131
ssg19
g23
sg21
I60
ssg19
g20
sg21
I172
ssg19
g22
sg21
I89
ssg19
g23
sg21
I38
ssg19
g18
sg21
I92
ssg19
g23
sg21
I129
ssg19
g18
sg21
I39
ssg19
g20
sg21
I128
sa(dp5848
g2
(dp5849
g2
(dp5850
g2
(dp5851
g2
(dp5852
g2
(dp5853
g2
(dp5854
g2
(dp5855
g2
(dp5856
g2
(dp5857
g2
(dp5858
g2
(dp5859
g2
(dp5860
g2
(dp5861
g2
(dp5862
g2
(dp5863
g2
g18
sg19
g20
sg21
I115
ssg19
g18
sg21
I149
ssg19
g20
sg21
I141
ssg19
g23
sg21
I75
ssg19
g20
sg21
I90
ssg19
g23
sg21
I170
ssg19
g18
sg21
I78
ssg19
g22
sg21
I120
ssg19
g18
sg21
I21
ssg19
g23
sg21
I133
ssg19
g23
sg21
I26
ssg19
g20
sg21
I176
ssg19
g18
sg21
I113
ssg19
g18
sg21
I87
ssg19
g23
sg21
I110
ssg19
g23
sg21
I106
sa(dp5864
g2
(dp5865
g2
(dp5866
g2
(dp5867
g2
(dp5868
g2
(dp5869
g2
(dp5870
g2
(dp5871
g2
(dp5872
g2
(dp5873
g2
(dp5874
g2
(dp5875
g2
(dp5876
g2
(dp5877
g2
(dp5878
g2
(dp5879
g2
g20
sg19
g18
sg21
I11
ssg19
g23
sg21
I0
ssg19
g22
sg21
I46
ssg19
g23
sg21
I70
ssg19
g20
sg21
I182
ssg19
g18
sg21
I181
ssg19
g18
sg21
I38
ssg19
g22
sg21
I104
ssg19
g18
sg21
I154
ssg19
g22
sg21
I137
ssg19
g23
sg21
I56
ssg19
g20
sg21
I59
ssg19
g18
sg21
I62
ssg19
g18
sg21
I134
ssg19
g20
sg21
I106
ssg19
g23
sg21
I82
sa(dp5880
g2
(dp5881
g2
(dp5882
g2
(dp5883
g2
(dp5884
g2
(dp5885
g2
(dp5886
g2
(dp5887
g2
(dp5888
g2
(dp5889
g2
(dp5890
g2
(dp5891
g2
(dp5892
g2
(dp5893
g2
(dp5894
g2
(dp5895
g2
g20
sg19
g23
sg21
I54
ssg19
g23
sg21
I57
ssg19
g18
sg21
I40
ssg19
g20
sg21
I17
ssg19
g23
sg21
I67
ssg19
g20
sg21
I1
ssg19
g23
sg21
I73
ssg19
g18
sg21
I42
ssg19
g20
sg21
I119
ssg19
g23
sg21
I142
ssg19
g22
sg21
I89
ssg19
g23
sg21
I92
ssg19
g23
sg21
I77
ssg19
g20
sg21
I139
ssg19
g18
sg21
I71
ssg19
g22
sg21
I70
sa(dp5896
g2
(dp5897
g2
(dp5898
g2
(dp5899
g2
(dp5900
g2
(dp5901
g2
(dp5902
g2
(dp5903
g2
(dp5904
g2
(dp5905
g2
(dp5906
g2
(dp5907
g2
(dp5908
g2
(dp5909
g2
(dp5910
g2
(dp5911
g2
g20
sg19
g22
sg21
I92
ssg19
g23
sg21
I149
ssg19
g20
sg21
I155
ssg19
g20
sg21
I71
ssg19
g22
sg21
I154
ssg19
g18
sg21
I67
ssg19
g23
sg21
I7
ssg19
g18
sg21
I34
ssg19
g18
sg21
I118
ssg19
g23
sg21
I151
ssg19
g20
sg21
I47
ssg19
g18
sg21
I41
ssg19
g22
sg21
I40
ssg19
g23
sg21
I166
ssg19
g20
sg21
I49
ssg19
g18
sg21
I145
sa(dp5912
g2
(dp5913
g2
(dp5914
g2
(dp5915
g2
(dp5916
g2
(dp5917
g2
(dp5918
g2
(dp5919
g2
(dp5920
g2
(dp5921
g2
(dp5922
g2
(dp5923
g2
(dp5924
g2
(dp5925
g2
(dp5926
g2
(dp5927
g2
g18
sg19
g20
sg21
I43
ssg19
g20
sg21
I4
ssg19
g20
sg21
I45
ssg19
g22
sg21
I26
ssg19
g20
sg21
I14
ssg19
g22
sg21
I41
ssg19
g20
sg21
I5
ssg19
g18
sg21
I7
ssg19
g20
sg21
I157
ssg19
g22
sg21
I93
ssg19
g18
sg21
I83
ssg19
g20
sg21
I56
ssg19
g20
sg21
I79
ssg19
g22
sg21
I75
ssg19
g23
sg21
I0
ssg19
g23
sg21
I65
sa(dp5928
g2
(dp5929
g2
(dp5930
g2
(dp5931
g2
(dp5932
g2
(dp5933
g2
(dp5934
g2
(dp5935
g2
(dp5936
g2
(dp5937
g2
(dp5938
g2
(dp5939
g2
(dp5940
g2
(dp5941
g2
(dp5942
g2
(dp5943
g2
g20
sg19
g23
sg21
I166
ssg19
g18
sg21
I163
ssg19
g22
sg21
I109
ssg19
g22
sg21
I167
ssg19
g20
sg21
I161
ssg19
g22
sg21
I69
ssg19
g20
sg21
I77
ssg19
g18
sg21
I42
ssg19
g20
sg21
I79
ssg19
g20
sg21
I149
ssg19
g18
sg21
I76
ssg19
g23
sg21
I127
ssg19
g18
sg21
I5
ssg19
g23
sg21
I101
ssg19
g23
sg21
I110
ssg19
g23
sg21
I73
sa(dp5944
g2
(dp5945
g2
(dp5946
g2
(dp5947
g2
(dp5948
g2
(dp5949
g2
(dp5950
g2
(dp5951
g2
(dp5952
g2
(dp5953
g2
(dp5954
g2
(dp5955
g2
(dp5956
g2
(dp5957
g2
(dp5958
g2
(dp5959
g2
g18
sg19
g22
sg21
I121
ssg19
g18
sg21
I180
ssg19
g20
sg21
I171
ssg19
g18
sg21
I11
ssg19
g22
sg21
I93
ssg19
g20
sg21
I155
ssg19
g23
sg21
I0
ssg19
g23
sg21
I83
ssg19
g22
sg21
I90
ssg19
g18
sg21
I184
ssg19
g18
sg21
I114
ssg19
g22
sg21
I79
ssg19
g23
sg21
I98
ssg19
g20
sg21
I91
ssg19
g22
sg21
I137
ssg19
g18
sg21
I100
sa(dp5960
g2
(dp5961
g2
(dp5962
g2
(dp5963
g2
(dp5964
g2
(dp5965
g2
(dp5966
g2
(dp5967
g2
(dp5968
g2
(dp5969
g2
(dp5970
g2
(dp5971
g2
(dp5972
g2
(dp5973
g2
(dp5974
g2
(dp5975
g2
g18
sg19
g23
sg21
I169
ssg19
g18
sg21
I43
ssg19
g22
sg21
I141
ssg19
g20
sg21
I44
ssg19
g18
sg21
I120
ssg19
g20
sg21
I176
ssg19
g22
sg21
I143
ssg19
g20
sg21
I92
ssg19
g22
sg21
I163
ssg19
g18
sg21
I187
ssg19
g22
sg21
I114
ssg19
g20
sg21
I156
ssg19
g23
sg21
I81
ssg19
g23
sg21
I68
ssg19
g20
sg21
I135
ssg19
g18
sg21
I158
sa(dp5976
g2
(dp5977
g2
(dp5978
g2
(dp5979
g2
(dp5980
g2
(dp5981
g2
(dp5982
g2
(dp5983
g2
(dp5984
g2
(dp5985
g2
(dp5986
g2
(dp5987
g2
(dp5988
g2
(dp5989
g2
(dp5990
g2
(dp5991
g2
g18
sg19
g23
sg21
I125
ssg19
g22
sg21
I144
ssg19
g22
sg21
I192
ssg19
g20
sg21
I112
ssg19
g22
sg21
I89
ssg19
g20
sg21
I171
ssg19
g20
sg21
I180
ssg19
g18
sg21
I100
ssg19
g22
sg21
I101
ssg19
g18
sg21
I1
ssg19
g18
sg21
I30
ssg19
g18
sg21
I67
ssg19
g22
sg21
I71
ssg19
g20
sg21
I169
ssg19
g23
sg21
I0
ssg19
g22
sg21
I46
sa(dp5992
g2
(dp5993
g2
(dp5994
g2
(dp5995
g2
(dp5996
g2
(dp5997
g2
(dp5998
g2
(dp5999
g2
(dp6000
g2
(dp6001
g2
(dp6002
g2
(dp6003
g2
(dp6004
g2
(dp6005
g2
(dp6006
g2
(dp6007
g2
g18
sg19
g20
sg21
I100
ssg19
g22
sg21
I188
ssg19
g20
sg21
I182
ssg19
g23
sg21
I149
ssg19
g18
sg21
I11
ssg19
g22
sg21
I143
ssg19
g23
sg21
I152
ssg19
g20
sg21
I157
ssg19
g20
sg21
I146
ssg19
g23
sg21
I49
ssg19
g23
sg21
I122
ssg19
g18
sg21
I91
ssg19
g18
sg21
I163
ssg19
g22
sg21
I16
ssg19
g20
sg21
I136
ssg19
g18
sg21
I40
sa(dp6008
g2
(dp6009
g2
(dp6010
g2
(dp6011
g2
(dp6012
g2
(dp6013
g2
(dp6014
g2
(dp6015
g2
(dp6016
g2
(dp6017
g2
(dp6018
g2
(dp6019
g2
(dp6020
g2
(dp6021
g2
(dp6022
g2
(dp6023
g2
g20
sg19
g18
sg21
I27
ssg19
g22
sg21
I130
ssg19
g23
sg21
I0
ssg19
g18
sg21
I16
ssg19
g20
sg21
I187
ssg19
g23
sg21
I139
ssg19
g18
sg21
I119
ssg19
g22
sg21
I143
ssg19
g23
sg21
I76
ssg19
g18
sg21
I64
ssg19
g23
sg21
I146
ssg19
g18
sg21
I10
ssg19
g23
sg21
I142
ssg19
g23
sg21
I145
ssg19
g22
sg21
I91
ssg19
g18
sg21
I40
sa(dp6024
g2
(dp6025
g2
(dp6026
g2
(dp6027
g2
(dp6028
g2
(dp6029
g2
(dp6030
g2
(dp6031
g2
(dp6032
g2
(dp6033
g2
(dp6034
g2
(dp6035
g2
(dp6036
g2
(dp6037
g2
(dp6038
g2
(dp6039
g2
g18
sg19
g23
sg21
I190
ssg19
g23
sg21
I185
ssg19
g22
sg21
I11
ssg19
g22
sg21
I156
ssg19
g22
sg21
I19
ssg19
g22
sg21
I141
ssg19
g20
sg21
I150
ssg19
g22
sg21
I90
ssg19
g18
sg21
I83
ssg19
g20
sg21
I143
ssg19
g20
sg21
I126
ssg19
g18
sg21
I3
ssg19
g22
sg21
I188
ssg19
g23
sg21
I0
ssg19
g20
sg21
I178
ssg19
g18
sg21
I64
sa(dp6040
g2
(dp6041
g2
(dp6042
g2
(dp6043
g2
(dp6044
g2
(dp6045
g2
(dp6046
g2
(dp6047
g2
(dp6048
g2
(dp6049
g2
(dp6050
g2
(dp6051
g2
(dp6052
g2
(dp6053
g2
(dp6054
g2
(dp6055
g2
g20
sg19
g23
sg21
I175
ssg19
g18
sg21
I94
ssg19
g18
sg21
I163
ssg19
g23
sg21
I67
ssg19
g23
sg21
I178
ssg19
g22
sg21
I23
ssg19
g23
sg21
I154
ssg19
g23
sg21
I8
ssg19
g23
sg21
I26
ssg19
g18
sg21
I29
ssg19
g18
sg21
I28
ssg19
g20
sg21
I184
ssg19
g23
sg21
I10
ssg19
g22
sg21
I22
ssg19
g18
sg21
I34
ssg19
g22
sg21
I70
sa(dp6056
g2
(dp6057
g2
(dp6058
g2
(dp6059
g2
(dp6060
g2
(dp6061
g2
(dp6062
g2
(dp6063
g2
(dp6064
g2
(dp6065
g2
(dp6066
g2
(dp6067
g2
(dp6068
g2
(dp6069
g2
(dp6070
g2
(dp6071
g2
g18
sg19
g20
sg21
I92
ssg19
g23
sg21
I174
ssg19
g23
sg21
I162
ssg19
g23
sg21
I1
ssg19
g22
sg21
I185
ssg19
g23
sg21
I75
ssg19
g22
sg21
I187
ssg19
g18
sg21
I45
ssg19
g20
sg21
I177
ssg19
g18
sg21
I58
ssg19
g18
sg21
I105
ssg19
g23
sg21
I182
ssg19
g20
sg21
I176
ssg19
g23
sg21
I81
ssg19
g18
sg21
I31
ssg19
g23
sg21
I106
sa(dp6072
g2
(dp6073
g2
(dp6074
g2
(dp6075
g2
(dp6076
g2
(dp6077
g2
(dp6078
g2
(dp6079
g2
(dp6080
g2
(dp6081
g2
(dp6082
g2
(dp6083
g2
(dp6084
g2
(dp6085
g2
(dp6086
g2
(dp6087
g2
g23
sg19
g18
sg21
I14
ssg19
g20
sg21
I162
ssg19
g23
sg21
I98
ssg19
g22
sg21
I168
ssg19
g18
sg21
I58
ssg19
g20
sg21
I132
ssg19
g18
sg21
I55
ssg19
g23
sg21
I97
ssg19
g23
sg21
I152
ssg19
g22
sg21
I113
ssg19
g20
sg21
I172
ssg19
g18
sg21
I109
ssg19
g20
sg21
I149
ssg19
g23
sg21
I148
ssg19
g20
sg21
I137
ssg19
g18
sg21
I32
sa(dp6088
g2
(dp6089
g2
(dp6090
g2
(dp6091
g2
(dp6092
g2
(dp6093
g2
(dp6094
g2
(dp6095
g2
(dp6096
g2
(dp6097
g2
(dp6098
g2
(dp6099
g2
(dp6100
g2
(dp6101
g2
(dp6102
g2
(dp6103
g2
g18
sg19
g20
sg21
I119
ssg19
g22
sg21
I72
ssg19
g20
sg21
I56
ssg19
g18
sg21
I21
ssg19
g20
sg21
I185
ssg19
g23
sg21
I109
ssg19
g22
sg21
I40
ssg19
g23
sg21
I123
ssg19
g23
sg21
I175
ssg19
g22
sg21
I69
ssg19
g22
sg21
I104
ssg19
g20
sg21
I184
ssg19
g23
sg21
I122
ssg19
g18
sg21
I157
ssg19
g20
sg21
I152
ssg19
g23
sg21
I82
sa(dp6104
g2
(dp6105
g2
(dp6106
g2
(dp6107
g2
(dp6108
g2
(dp6109
g2
(dp6110
g2
(dp6111
g2
(dp6112
g2
(dp6113
g2
(dp6114
g2
(dp6115
g2
(dp6116
g2
(dp6117
g2
(dp6118
g2
(dp6119
g2
g20
sg19
g23
sg21
I0
ssg19
g22
sg21
I110
ssg19
g23
sg21
I80
ssg19
g22
sg21
I4
ssg19
g18
sg21
I154
ssg19
g20
sg21
I88
ssg19
g23
sg21
I83
ssg19
g20
sg21
I175
ssg19
g22
sg21
I92
ssg19
g23
sg21
I106
ssg19
g23
sg21
I2
ssg19
g18
sg21
I35
ssg19
g23
sg21
I1
ssg19
g22
sg21
I82
ssg19
g23
sg21
I108
ssg19
g18
sg21
I94
sa(dp6120
g2
(dp6121
g2
(dp6122
g2
(dp6123
g2
(dp6124
g2
(dp6125
g2
(dp6126
g2
(dp6127
g2
(dp6128
g2
(dp6129
g2
(dp6130
g2
(dp6131
g2
(dp6132
g2
(dp6133
g2
(dp6134
g2
(dp6135
g2
g18
sg19
g22
sg21
I20
ssg19
g20
sg21
I177
ssg19
g20
sg21
I148
ssg19
g23
sg21
I0
ssg19
g18
sg21
I12
ssg19
g22
sg21
I96
ssg19
g23
sg21
I83
ssg19
g18
sg21
I46
ssg19
g22
sg21
I95
ssg19
g23
sg21
I56
ssg19
g20
sg21
I145
ssg19
g22
sg21
I121
ssg19
g20
sg21
I128
ssg19
g18
sg21
I143
ssg19
g23
sg21
I73
ssg19
g18
sg21
I13
sa(dp6136
g2
(dp6137
g2
(dp6138
g2
(dp6139
g2
(dp6140
g2
(dp6141
g2
(dp6142
g2
(dp6143
g2
(dp6144
g2
(dp6145
g2
(dp6146
g2
(dp6147
g2
(dp6148
g2
(dp6149
g2
(dp6150
g2
(dp6151
g2
g18
sg19
g18
sg21
I160
ssg19
g22
sg21
I121
ssg19
g22
sg21
I119
ssg19
g22
sg21
I85
ssg19
g20
sg21
I177
ssg19
g18
sg21
I39
ssg19
g20
sg21
I161
ssg19
g18
sg21
I98
ssg19
g22
sg21
I92
ssg19
g22
sg21
I69
ssg19
g22
sg21
I66
ssg19
g20
sg21
I153
ssg19
g23
sg21
I0
ssg19
g20
sg21
I105
ssg19
g23
sg21
I84
ssg19
g18
sg21
I60
sa(dp6152
g2
(dp6153
g2
(dp6154
g2
(dp6155
g2
(dp6156
g2
(dp6157
g2
(dp6158
g2
(dp6159
g2
(dp6160
g2
(dp6161
g2
(dp6162
g2
(dp6163
g2
(dp6164
g2
(dp6165
g2
(dp6166
g2
(dp6167
g2
g20
sg19
g18
sg21
I32
ssg19
g20
sg21
I128
ssg19
g22
sg21
I172
ssg19
g18
sg21
I166
ssg19
g23
sg21
I82
ssg19
g18
sg21
I68
ssg19
g20
sg21
I133
ssg19
g23
sg21
I55
ssg19
g20
sg21
I10
ssg19
g23
sg21
I20
ssg19
g20
sg21
I160
ssg19
g23
sg21
I5
ssg19
g22
sg21
I113
ssg19
g18
sg21
I49
ssg19
g20
sg21
I163
ssg19
g22
sg21
I73
sa(dp6168
g2
(dp6169
g2
(dp6170
g2
(dp6171
g2
(dp6172
g2
(dp6173
g2
(dp6174
g2
(dp6175
g2
(dp6176
g2
(dp6177
g2
(dp6178
g2
(dp6179
g2
(dp6180
g2
(dp6181
g2
(dp6182
g2
(dp6183
g2
g18
sg19
g22
sg21
I89
ssg19
g20
sg21
I178
ssg19
g18
sg21
I30
ssg19
g20
sg21
I133
ssg19
g22
sg21
I122
ssg19
g22
sg21
I118
ssg19
g20
sg21
I177
ssg19
g20
sg21
I99
ssg19
g18
sg21
I40
ssg19
g22
sg21
I166
ssg19
g18
sg21
I163
ssg19
g18
sg21
I43
ssg19
g20
sg21
I102
ssg19
g23
sg21
I0
ssg19
g22
sg21
I94
ssg19
g22
sg21
I46
sa(dp6184
g2
(dp6185
g2
(dp6186
g2
(dp6187
g2
(dp6188
g2
(dp6189
g2
(dp6190
g2
(dp6191
g2
(dp6192
g2
(dp6193
g2
(dp6194
g2
(dp6195
g2
(dp6196
g2
(dp6197
g2
(dp6198
g2
(dp6199
g2
g18
sg19
g20
sg21
I140
ssg19
g23
sg21
I149
ssg19
g22
sg21
I44
ssg19
g23
sg21
I50
ssg19
g20
sg21
I154
ssg19
g18
sg21
I8
ssg19
g20
sg21
I121
ssg19
g22
sg21
I115
ssg19
g23
sg21
I49
ssg19
g20
sg21
I7
ssg19
g18
sg21
I62
ssg19
g22
sg21
I136
ssg19
g18
sg21
I103
ssg19
g18
sg21
I56
ssg19
g22
sg21
I89
ssg19
g23
sg21
I104
sa(dp6200
g2
(dp6201
g2
(dp6202
g2
(dp6203
g2
(dp6204
g2
(dp6205
g2
(dp6206
g2
(dp6207
g2
(dp6208
g2
(dp6209
g2
(dp6210
g2
(dp6211
g2
(dp6212
g2
(dp6213
g2
(dp6214
g2
(dp6215
g2
g22
sg19
g20
sg21
I74
ssg19
g20
sg21
I182
ssg19
g22
sg21
I116
ssg19
g18
sg21
I6
ssg19
g23
sg21
I0
ssg19
g23
sg21
I77
ssg19
g22
sg21
I68
ssg19
g23
sg21
I59
ssg19
g22
sg21
I112
ssg19
g20
sg21
I180
ssg19
g20
sg21
I104
ssg19
g23
sg21
I84
ssg19
g20
sg21
I66
ssg19
g18
sg21
I41
ssg19
g18
sg21
I90
ssg19
g18
sg21
I39
sa(dp6216
g2
(dp6217
g2
(dp6218
g2
(dp6219
g2
(dp6220
g2
(dp6221
g2
(dp6222
g2
(dp6223
g2
(dp6224
g2
(dp6225
g2
(dp6226
g2
(dp6227
g2
(dp6228
g2
(dp6229
g2
(dp6230
g2
(dp6231
g2
g20
sg19
g20
sg21
I165
ssg19
g22
sg21
I178
ssg19
g18
sg21
I115
ssg19
g22
sg21
I13
ssg19
g22
sg21
I19
ssg19
g18
sg21
I9
ssg19
g22
sg21
I21
ssg19
g18
sg21
I50
ssg19
g20
sg21
I159
ssg19
g22
sg21
I188
ssg19
g20
sg21
I192
ssg19
g22
sg21
I71
ssg19
g18
sg21
I37
ssg19
g20
sg21
I79
ssg19
g20
sg21
I128
ssg19
g23
sg21
I0
sa(dp6232
g2
(dp6233
g2
(dp6234
g2
(dp6235
g2
(dp6236
g2
(dp6237
g2
(dp6238
g2
(dp6239
g2
(dp6240
g2
(dp6241
g2
(dp6242
g2
(dp6243
g2
(dp6244
g2
(dp6245
g2
(dp6246
g2
(dp6247
g2
g18
sg19
g22
sg21
I184
ssg19
g22
sg21
I72
ssg19
g22
sg21
I101
ssg19
g20
sg21
I185
ssg19
g23
sg21
I0
ssg19
g20
sg21
I186
ssg19
g22
sg21
I128
ssg19
g18
sg21
I60
ssg19
g22
sg21
I138
ssg19
g20
sg21
I35
ssg19
g23
sg21
I129
ssg19
g20
sg21
I83
ssg19
g18
sg21
I89
ssg19
g18
sg21
I85
ssg19
g22
sg21
I158
ssg19
g22
sg21
I155
sa(dp6248
g2
(dp6249
g2
(dp6250
g2
(dp6251
g2
(dp6252
g2
(dp6253
g2
(dp6254
g2
(dp6255
g2
(dp6256
g2
(dp6257
g2
(dp6258
g2
(dp6259
g2
(dp6260
g2
(dp6261
g2
(dp6262
g2
(dp6263
g2
g18
sg19
g22
sg21
I96
ssg19
g18
sg21
I77
ssg19
g18
sg21
I81
ssg19
g20
sg21
I157
ssg19
g18
sg21
I22
ssg19
g20
sg21
I83
ssg19
g22
sg21
I43
ssg19
g18
sg21
I3
ssg19
g22
sg21
I191
ssg19
g20
sg21
I60
ssg19
g18
sg21
I57
ssg19
g20
sg21
I174
ssg19
g23
sg21
I0
ssg19
g20
sg21
I106
ssg19
g23
sg21
I154
ssg19
g18
sg21
I107
sa(dp6264
g2
(dp6265
g2
(dp6266
g2
(dp6267
g2
(dp6268
g2
(dp6269
g2
(dp6270
g2
(dp6271
g2
(dp6272
g2
(dp6273
g2
(dp6274
g2
(dp6275
g2
(dp6276
g2
(dp6277
g2
(dp6278
g2
(dp6279
g2
g18
sg19
g22
sg21
I90
ssg19
g18
sg21
I20
ssg19
g18
sg21
I32
ssg19
g22
sg21
I70
ssg19
g20
sg21
I176
ssg19
g22
sg21
I47
ssg19
g20
sg21
I126
ssg19
g18
sg21
I53
ssg19
g22
sg21
I121
ssg19
g20
sg21
I34
ssg19
g18
sg21
I30
ssg19
g20
sg21
I106
ssg19
g23
sg21
I0
ssg19
g18
sg21
I37
ssg19
g20
sg21
I190
ssg19
g23
sg21
I73
sa(dp6280
g2
(dp6281
g2
(dp6282
g2
(dp6283
g2
(dp6284
g2
(dp6285
g2
(dp6286
g2
(dp6287
g2
(dp6288
g2
(dp6289
g2
(dp6290
g2
(dp6291
g2
(dp6292
g2
(dp6293
g2
(dp6294
g2
(dp6295
g2
g20
sg19
g22
sg21
I45
ssg19
g18
sg21
I125
ssg19
g18
sg21
I100
ssg19
g22
sg21
I10
ssg19
g18
sg21
I6
ssg19
g22
sg21
I120
ssg19
g20
sg21
I183
ssg19
g20
sg21
I170
ssg19
g18
sg21
I57
ssg19
g18
sg21
I37
ssg19
g20
sg21
I155
ssg19
g20
sg21
I188
ssg19
g22
sg21
I68
ssg19
g20
sg21
I130
ssg19
g23
sg21
I0
ssg19
g18
sg21
I41
sa(dp6296
g2
(dp6297
g2
(dp6298
g2
(dp6299
g2
(dp6300
g2
(dp6301
g2
(dp6302
g2
(dp6303
g2
(dp6304
g2
(dp6305
g2
(dp6306
g2
(dp6307
g2
(dp6308
g2
(dp6309
g2
(dp6310
g2
(dp6311
g2
g18
sg19
g22
sg21
I118
ssg19
g18
sg21
I40
ssg19
g22
sg21
I141
ssg19
g22
sg21
I144
ssg19
g18
sg21
I12
ssg19
g22
sg21
I158
ssg19
g22
sg21
I109
ssg19
g18
sg21
I78
ssg19
g22
sg21
I180
ssg19
g20
sg21
I123
ssg19
g20
sg21
I99
ssg19
g22
sg21
I179
ssg19
g20
sg21
I125
ssg19
g23
sg21
I0
ssg19
g20
sg21
I178
ssg19
g18
sg21
I91
sa(dp6312
g2
(dp6313
g2
(dp6314
g2
(dp6315
g2
(dp6316
g2
(dp6317
g2
(dp6318
g2
(dp6319
g2
(dp6320
g2
(dp6321
g2
(dp6322
g2
(dp6323
g2
(dp6324
g2
(dp6325
g2
(dp6326
g2
(dp6327
g2
g20
sg19
g18
sg21
I33
ssg19
g20
sg21
I180
ssg19
g18
sg21
I127
ssg19
g20
sg21
I170
ssg19
g22
sg21
I7
ssg19
g20
sg21
I112
ssg19
g22
sg21
I37
ssg19
g18
sg21
I75
ssg19
g20
sg21
I189
ssg19
g22
sg21
I23
ssg19
g20
sg21
I149
ssg19
g18
sg21
I6
ssg19
g18
sg21
I10
ssg19
g20
sg21
I182
ssg19
g18
sg21
I28
ssg19
g23
sg21
I0
sa(dp6328
g2
(dp6329
g2
(dp6330
g2
(dp6331
g2
(dp6332
g2
(dp6333
g2
(dp6334
g2
(dp6335
g2
(dp6336
g2
(dp6337
g2
(dp6338
g2
(dp6339
g2
(dp6340
g2
(dp6341
g2
(dp6342
g2
(dp6343
g2
g18
sg19
g22
sg21
I114
ssg19
g18
sg21
I20
ssg19
g23
sg21
I111
ssg19
g20
sg21
I180
ssg19
g20
sg21
I79
ssg19
g18
sg21
I36
ssg19
g23
sg21
I0
ssg19
g20
sg21
I156
ssg19
g18
sg21
I45
ssg19
g20
sg21
I137
ssg19
g23
sg21
I77
ssg19
g22
sg21
I96
ssg19
g22
sg21
I70
ssg19
g23
sg21
I85
ssg19
g23
sg21
I76
ssg19
g22
sg21
I136
sa(dp6344
g2
(dp6345
g2
(dp6346
g2
(dp6347
g2
(dp6348
g2
(dp6349
g2
(dp6350
g2
(dp6351
g2
(dp6352
g2
(dp6353
g2
(dp6354
g2
(dp6355
g2
(dp6356
g2
(dp6357
g2
(dp6358
g2
(dp6359
g2
g18
sg19
g22
sg21
I107
ssg19
g22
sg21
I102
ssg19
g22
sg21
I184
ssg19
g22
sg21
I74
ssg19
g20
sg21
I189
ssg19
g20
sg21
I185
ssg19
g22
sg21
I164
ssg19
g20
sg21
I137
ssg19
g20
sg21
I170
ssg19
g22
sg21
I119
ssg19
g22
sg21
I96
ssg19
g20
sg21
I180
ssg19
g18
sg21
I57
ssg19
g23
sg21
I0
ssg19
g20
sg21
I158
ssg19
g23
sg21
I84
sa(dp6360
g2
(dp6361
g2
(dp6362
g2
(dp6363
g2
(dp6364
g2
(dp6365
g2
(dp6366
g2
(dp6367
g2
(dp6368
g2
(dp6369
g2
(dp6370
g2
(dp6371
g2
(dp6372
g2
(dp6373
g2
(dp6374
g2
(dp6375
g2
g18
sg19
g22
sg21
I145
ssg19
g22
sg21
I168
ssg19
g20
sg21
I191
ssg19
g22
sg21
I167
ssg19
g22
sg21
I185
ssg19
g20
sg21
I171
ssg19
g18
sg21
I118
ssg19
g18
sg21
I157
ssg19
g22
sg21
I97
ssg19
g20
sg21
I102
ssg19
g20
sg21
I138
ssg19
g23
sg21
I0
ssg19
g20
sg21
I183
ssg19
g22
sg21
I72
ssg19
g22
sg21
I89
ssg19
g23
sg21
I115
sa(dp6376
g2
(dp6377
g2
(dp6378
g2
(dp6379
g2
(dp6380
g2
(dp6381
g2
(dp6382
g2
(dp6383
g2
(dp6384
g2
(dp6385
g2
(dp6386
g2
(dp6387
g2
(dp6388
g2
(dp6389
g2
(dp6390
g2
(dp6391
g2
g20
sg19
g18
sg21
I41
ssg19
g20
sg21
I135
ssg19
g23
sg21
I171
ssg19
g22
sg21
I168
ssg19
g20
sg21
I159
ssg19
g22
sg21
I140
ssg19
g20
sg21
I154
ssg19
g23
sg21
I57
ssg19
g22
sg21
I62
ssg19
g22
sg21
I89
ssg19
g18
sg21
I80
ssg19
g18
sg21
I12
ssg19
g23
sg21
I79
ssg19
g20
sg21
I100
ssg19
g20
sg21
I181
ssg19
g23
sg21
I82
sa(dp6392
g2
(dp6393
g2
(dp6394
g2
(dp6395
g2
(dp6396
g2
(dp6397
g2
(dp6398
g2
(dp6399
g2
(dp6400
g2
(dp6401
g2
(dp6402
g2
(dp6403
g2
(dp6404
g2
(dp6405
g2
(dp6406
g2
(dp6407
g2
g18
sg19
g18
sg21
I73
ssg19
g18
sg21
I17
ssg19
g22
sg21
I107
ssg19
g20
sg21
I116
ssg19
g20
sg21
I144
ssg19
g22
sg21
I120
ssg19
g20
sg21
I136
ssg19
g20
sg21
I163
ssg19
g22
sg21
I148
ssg19
g22
sg21
I155
ssg19
g22
sg21
I167
ssg19
g20
sg21
I183
ssg19
g22
sg21
I93
ssg19
g23
sg21
I0
ssg19
g23
sg21
I61
ssg19
g22
sg21
I137
sa.